
10_stack_overflow_hook.elf:     file format elf32-littlearm

Sections:
Idx Name          Size      VMA       LMA       File off  Algn
  0 .isr_vector   00000188  08000000  08000000  00001000  2**0
                  CONTENTS, ALLOC, LOAD, READONLY, DATA
  1 .text         000050ec  08000190  08000190  00001190  2**4
                  CONTENTS, ALLOC, LOAD, READONLY, CODE
  2 .rodata       000000dc  0800527c  0800527c  0000627c  2**2
                  CONTENTS, ALLOC, LOAD, READONLY, DATA
  3 .ARM.extab    00000000  08005358  08005358  00007060  2**0
                  CONTENTS, READONLY
  4 .ARM          00000008  08005358  08005358  00006358  2**2
                  CONTENTS, ALLOC, LOAD, READONLY, DATA
  5 .preinit_array 00000000  08005360  08005360  00007060  2**0
                  CONTENTS, ALLOC, LOAD, DATA
  6 .init_array   00000004  08005360  08005360  00006360  2**2
                  CONTENTS, ALLOC, LOAD, READONLY, DATA
  7 .fini_array   00000004  08005364  08005364  00006364  2**2
                  CONTENTS, ALLOC, LOAD, READONLY, DATA
  8 .data         00000060  20000000  08005368  00007000  2**2
                  CONTENTS, ALLOC, LOAD, DATA
  9 .bss          00001158  20000060  080053c8  00007060  2**2
                  ALLOC
 10 ._user_heap_stack 00000600  200011b8  080053c8  000071b8  2**0
                  ALLOC
 11 .ARM.attributes 00000030  00000000  00000000  00007060  2**0
                  CONTENTS, READONLY
 12 .debug_info   0000f198  00000000  00000000  00007090  2**0
                  CONTENTS, READONLY, DEBUGGING, OCTETS
 13 .debug_abbrev 00002628  00000000  00000000  00016228  2**0
                  CONTENTS, READONLY, DEBUGGING, OCTETS
 14 .debug_aranges 00000da0  00000000  00000000  00018850  2**3
                  CONTENTS, READONLY, DEBUGGING, OCTETS
 15 .debug_rnglists 00000a66  00000000  00000000  000195f0  2**0
                  CONTENTS, READONLY, DEBUGGING, OCTETS
 16 .debug_macro  0002754f  00000000  00000000  0001a056  2**0
                  CONTENTS, READONLY, DEBUGGING, OCTETS
 17 .debug_line   0000f9d4  00000000  00000000  000415a5  2**0
                  CONTENTS, READONLY, DEBUGGING, OCTETS
 18 .debug_str    000f0410  00000000  00000000  00050f79  2**0
                  CONTENTS, READONLY, DEBUGGING, OCTETS
 19 .comment      00000043  00000000  00000000  00141389  2**0
                  CONTENTS, READONLY
 20 .debug_frame  00003bbc  00000000  00000000  001413cc  2**2
                  CONTENTS, READONLY, DEBUGGING, OCTETS
 21 .debug_line_str 00000071  00000000  00000000  00144f88  2**0
                  CONTENTS, READONLY, DEBUGGING, OCTETS

Disassembly of section .text:

08000190 <__do_global_dtors_aux>:
 8000190:	b510      	push	{r4, lr}
 8000192:	4c05      	ldr	r4, [pc, #20]	@ (80001a8 <__do_global_dtors_aux+0x18>)
 8000194:	7823      	ldrb	r3, [r4, #0]
 8000196:	b933      	cbnz	r3, 80001a6 <__do_global_dtors_aux+0x16>
 8000198:	4b04      	ldr	r3, [pc, #16]	@ (80001ac <__do_global_dtors_aux+0x1c>)
 800019a:	b113      	cbz	r3, 80001a2 <__do_global_dtors_aux+0x12>
 800019c:	4804      	ldr	r0, [pc, #16]	@ (80001b0 <__do_global_dtors_aux+0x20>)
 800019e:	f3af 8000 	nop.w
 80001a2:	2301      	movs	r3, #1
 80001a4:	7023      	strb	r3, [r4, #0]
 80001a6:	bd10      	pop	{r4, pc}
 80001a8:	20000060 	.word	0x20000060
 80001ac:	00000000 	.word	0x00000000
 80001b0:	08005264 	.word	0x08005264

080001b4 <frame_dummy>:
 80001b4:	b508      	push	{r3, lr}
 80001b6:	4b03      	ldr	r3, [pc, #12]	@ (80001c4 <frame_dummy+0x10>)
 80001b8:	b11b      	cbz	r3, 80001c2 <frame_dummy+0xe>
 80001ba:	4903      	ldr	r1, [pc, #12]	@ (80001c8 <frame_dummy+0x14>)
 80001bc:	4803      	ldr	r0, [pc, #12]	@ (80001cc <frame_dummy+0x18>)
 80001be:	f3af 8000 	nop.w
 80001c2:	bd08      	pop	{r3, pc}
 80001c4:	00000000 	.word	0x00000000
 80001c8:	20000064 	.word	0x20000064
 80001cc:	08005264 	.word	0x08005264

080001d0 <strlen>:
 80001d0:	4603      	mov	r3, r0
 80001d2:	f813 2b01 	ldrb.w	r2, [r3], #1
 80001d6:	2a00      	cmp	r2, #0
 80001d8:	d1fb      	bne.n	80001d2 <strlen+0x2>
 80001da:	1a18      	subs	r0, r3, r0
 80001dc:	3801      	subs	r0, #1
 80001de:	4770      	bx	lr

080001e0 <memchr>:
 80001e0:	f001 01ff 	and.w	r1, r1, #255	@ 0xff
 80001e4:	2a10      	cmp	r2, #16
 80001e6:	db2b      	blt.n	8000240 <memchr+0x60>
 80001e8:	f010 0f07 	tst.w	r0, #7
 80001ec:	d008      	beq.n	8000200 <memchr+0x20>
 80001ee:	f810 3b01 	ldrb.w	r3, [r0], #1
 80001f2:	3a01      	subs	r2, #1
 80001f4:	428b      	cmp	r3, r1
 80001f6:	d02d      	beq.n	8000254 <memchr+0x74>
 80001f8:	f010 0f07 	tst.w	r0, #7
 80001fc:	b342      	cbz	r2, 8000250 <memchr+0x70>
 80001fe:	d1f6      	bne.n	80001ee <memchr+0xe>
 8000200:	b4f0      	push	{r4, r5, r6, r7}
 8000202:	ea41 2101 	orr.w	r1, r1, r1, lsl #8
 8000206:	ea41 4101 	orr.w	r1, r1, r1, lsl #16
 800020a:	f022 0407 	bic.w	r4, r2, #7
 800020e:	f07f 0700 	mvns.w	r7, #0
 8000212:	2300      	movs	r3, #0
 8000214:	e8f0 5602 	ldrd	r5, r6, [r0], #8
 8000218:	3c08      	subs	r4, #8
 800021a:	ea85 0501 	eor.w	r5, r5, r1
 800021e:	ea86 0601 	eor.w	r6, r6, r1
 8000222:	fa85 f547 	uadd8	r5, r5, r7
 8000226:	faa3 f587 	sel	r5, r3, r7
 800022a:	fa86 f647 	uadd8	r6, r6, r7
 800022e:	faa5 f687 	sel	r6, r5, r7
 8000232:	b98e      	cbnz	r6, 8000258 <memchr+0x78>
 8000234:	d1ee      	bne.n	8000214 <memchr+0x34>
 8000236:	bcf0      	pop	{r4, r5, r6, r7}
 8000238:	f001 01ff 	and.w	r1, r1, #255	@ 0xff
 800023c:	f002 0207 	and.w	r2, r2, #7
 8000240:	b132      	cbz	r2, 8000250 <memchr+0x70>
 8000242:	f810 3b01 	ldrb.w	r3, [r0], #1
 8000246:	3a01      	subs	r2, #1
 8000248:	ea83 0301 	eor.w	r3, r3, r1
 800024c:	b113      	cbz	r3, 8000254 <memchr+0x74>
 800024e:	d1f8      	bne.n	8000242 <memchr+0x62>
 8000250:	2000      	movs	r0, #0
 8000252:	4770      	bx	lr
 8000254:	3801      	subs	r0, #1
 8000256:	4770      	bx	lr
 8000258:	2d00      	cmp	r5, #0
 800025a:	bf06      	itte	eq
 800025c:	4635      	moveq	r5, r6
 800025e:	3803      	subeq	r0, #3
 8000260:	3807      	subne	r0, #7
 8000262:	f015 0f01 	tst.w	r5, #1
 8000266:	d107      	bne.n	8000278 <memchr+0x98>
 8000268:	3001      	adds	r0, #1
 800026a:	f415 7f80 	tst.w	r5, #256	@ 0x100
 800026e:	bf02      	ittt	eq
 8000270:	3001      	addeq	r0, #1
 8000272:	f415 3fc0 	tsteq.w	r5, #98304	@ 0x18000
 8000276:	3001      	addeq	r0, #1
 8000278:	bcf0      	pop	{r4, r5, r6, r7}
 800027a:	3801      	subs	r0, #1
 800027c:	4770      	bx	lr
 800027e:	bf00      	nop

08000280 <__aeabi_uldivmod>:
 8000280:	b953      	cbnz	r3, 8000298 <__aeabi_uldivmod+0x18>
 8000282:	b94a      	cbnz	r2, 8000298 <__aeabi_uldivmod+0x18>
 8000284:	2900      	cmp	r1, #0
 8000286:	bf08      	it	eq
 8000288:	2800      	cmpeq	r0, #0
 800028a:	bf1c      	itt	ne
 800028c:	f04f 31ff 	movne.w	r1, #4294967295
 8000290:	f04f 30ff 	movne.w	r0, #4294967295
 8000294:	f000 b988 	b.w	80005a8 <__aeabi_idiv0>
 8000298:	f1ad 0c08 	sub.w	ip, sp, #8
 800029c:	e96d ce04 	strd	ip, lr, [sp, #-16]!
 80002a0:	f000 f806 	bl	80002b0 <__udivmoddi4>
 80002a4:	f8dd e004 	ldr.w	lr, [sp, #4]
 80002a8:	e9dd 2302 	ldrd	r2, r3, [sp, #8]
 80002ac:	b004      	add	sp, #16
 80002ae:	4770      	bx	lr

080002b0 <__udivmoddi4>:
 80002b0:	e92d 47f0 	stmdb	sp!, {r4, r5, r6, r7, r8, r9, sl, lr}
 80002b4:	9d08      	ldr	r5, [sp, #32]
 80002b6:	468e      	mov	lr, r1
 80002b8:	4604      	mov	r4, r0
 80002ba:	4688      	mov	r8, r1
 80002bc:	2b00      	cmp	r3, #0
 80002be:	d14a      	bne.n	8000356 <__udivmoddi4+0xa6>
 80002c0:	428a      	cmp	r2, r1
 80002c2:	4617      	mov	r7, r2
 80002c4:	d962      	bls.n	800038c <__udivmoddi4+0xdc>
 80002c6:	fab2 f682 	clz	r6, r2
 80002ca:	b14e      	cbz	r6, 80002e0 <__udivmoddi4+0x30>
 80002cc:	f1c6 0320 	rsb	r3, r6, #32
 80002d0:	fa01 f806 	lsl.w	r8, r1, r6
 80002d4:	fa20 f303 	lsr.w	r3, r0, r3
 80002d8:	40b7      	lsls	r7, r6
 80002da:	ea43 0808 	orr.w	r8, r3, r8
 80002de:	40b4      	lsls	r4, r6
 80002e0:	ea4f 4e17 	mov.w	lr, r7, lsr #16
 80002e4:	fa1f fc87 	uxth.w	ip, r7
 80002e8:	fbb8 f1fe 	udiv	r1, r8, lr
 80002ec:	0c23      	lsrs	r3, r4, #16
 80002ee:	fb0e 8811 	mls	r8, lr, r1, r8
 80002f2:	ea43 4308 	orr.w	r3, r3, r8, lsl #16
 80002f6:	fb01 f20c 	mul.w	r2, r1, ip
 80002fa:	429a      	cmp	r2, r3
 80002fc:	d909      	bls.n	8000312 <__udivmoddi4+0x62>
 80002fe:	18fb      	adds	r3, r7, r3
 8000300:	f101 30ff 	add.w	r0, r1, #4294967295
 8000304:	f080 80ea 	bcs.w	80004dc <__udivmoddi4+0x22c>
 8000308:	429a      	cmp	r2, r3
 800030a:	f240 80e7 	bls.w	80004dc <__udivmoddi4+0x22c>
 800030e:	3902      	subs	r1, #2
 8000310:	443b      	add	r3, r7
 8000312:	1a9a      	subs	r2, r3, r2
 8000314:	b2a3      	uxth	r3, r4
 8000316:	fbb2 f0fe 	udiv	r0, r2, lr
 800031a:	fb0e 2210 	mls	r2, lr, r0, r2
 800031e:	ea43 4302 	orr.w	r3, r3, r2, lsl #16
 8000322:	fb00 fc0c 	mul.w	ip, r0, ip
 8000326:	459c      	cmp	ip, r3
 8000328:	d909      	bls.n	800033e <__udivmoddi4+0x8e>
 800032a:	18fb      	adds	r3, r7, r3
 800032c:	f100 32ff 	add.w	r2, r0, #4294967295
 8000330:	f080 80d6 	bcs.w	80004e0 <__udivmoddi4+0x230>
 8000334:	459c      	cmp	ip, r3
 8000336:	f240 80d3 	bls.w	80004e0 <__udivmoddi4+0x230>
 800033a:	443b      	add	r3, r7
 800033c:	3802      	subs	r0, #2
 800033e:	ea40 4001 	orr.w	r0, r0, r1, lsl #16
 8000342:	eba3 030c 	sub.w	r3, r3, ip
 8000346:	2100      	movs	r1, #0
 8000348:	b11d      	cbz	r5, 8000352 <__udivmoddi4+0xa2>
 800034a:	40f3      	lsrs	r3, r6
 800034c:	2200      	movs	r2, #0
 800034e:	e9c5 3200 	strd	r3, r2, [r5]
 8000352:	e8bd 87f0 	ldmia.w	sp!, {r4, r5, r6, r7, r8, r9, sl, pc}
 8000356:	428b      	cmp	r3, r1
 8000358:	d905      	bls.n	8000366 <__udivmoddi4+0xb6>
 800035a:	b10d      	cbz	r5, 8000360 <__udivmoddi4+0xb0>
 800035c:	e9c5 0100 	strd	r0, r1, [r5]
 8000360:	2100      	movs	r1, #0
 8000362:	4608      	mov	r0, r1
 8000364:	e7f5      	b.n	8000352 <__udivmoddi4+0xa2>
 8000366:	fab3 f183 	clz	r1, r3
 800036a:	2900      	cmp	r1, #0
 800036c:	d146      	bne.n	80003fc <__udivmoddi4+0x14c>
 800036e:	4573      	cmp	r3, lr
 8000370:	d302      	bcc.n	8000378 <__udivmoddi4+0xc8>
 8000372:	4282      	cmp	r2, r0
 8000374:	f200 8105 	bhi.w	8000582 <__udivmoddi4+0x2d2>
 8000378:	1a84      	subs	r4, r0, r2
 800037a:	eb6e 0203 	sbc.w	r2, lr, r3
 800037e:	2001      	movs	r0, #1
 8000380:	4690      	mov	r8, r2
 8000382:	2d00      	cmp	r5, #0
 8000384:	d0e5      	beq.n	8000352 <__udivmoddi4+0xa2>
 8000386:	e9c5 4800 	strd	r4, r8, [r5]
 800038a:	e7e2      	b.n	8000352 <__udivmoddi4+0xa2>
 800038c:	2a00      	cmp	r2, #0
 800038e:	f000 8090 	beq.w	80004b2 <__udivmoddi4+0x202>
 8000392:	fab2 f682 	clz	r6, r2
 8000396:	2e00      	cmp	r6, #0
 8000398:	f040 80a4 	bne.w	80004e4 <__udivmoddi4+0x234>
 800039c:	1a8a      	subs	r2, r1, r2
 800039e:	0c03      	lsrs	r3, r0, #16
 80003a0:	ea4f 4e17 	mov.w	lr, r7, lsr #16
 80003a4:	b280      	uxth	r0, r0
 80003a6:	b2bc      	uxth	r4, r7
 80003a8:	2101      	movs	r1, #1
 80003aa:	fbb2 fcfe 	udiv	ip, r2, lr
 80003ae:	fb0e 221c 	mls	r2, lr, ip, r2
 80003b2:	ea43 4302 	orr.w	r3, r3, r2, lsl #16
 80003b6:	fb04 f20c 	mul.w	r2, r4, ip
 80003ba:	429a      	cmp	r2, r3
 80003bc:	d907      	bls.n	80003ce <__udivmoddi4+0x11e>
 80003be:	18fb      	adds	r3, r7, r3
 80003c0:	f10c 38ff 	add.w	r8, ip, #4294967295
 80003c4:	d202      	bcs.n	80003cc <__udivmoddi4+0x11c>
 80003c6:	429a      	cmp	r2, r3
 80003c8:	f200 80e0 	bhi.w	800058c <__udivmoddi4+0x2dc>
 80003cc:	46c4      	mov	ip, r8
 80003ce:	1a9b      	subs	r3, r3, r2
 80003d0:	fbb3 f2fe 	udiv	r2, r3, lr
 80003d4:	fb0e 3312 	mls	r3, lr, r2, r3
 80003d8:	ea40 4303 	orr.w	r3, r0, r3, lsl #16
 80003dc:	fb02 f404 	mul.w	r4, r2, r4
 80003e0:	429c      	cmp	r4, r3
 80003e2:	d907      	bls.n	80003f4 <__udivmoddi4+0x144>
 80003e4:	18fb      	adds	r3, r7, r3
 80003e6:	f102 30ff 	add.w	r0, r2, #4294967295
 80003ea:	d202      	bcs.n	80003f2 <__udivmoddi4+0x142>
 80003ec:	429c      	cmp	r4, r3
 80003ee:	f200 80ca 	bhi.w	8000586 <__udivmoddi4+0x2d6>
 80003f2:	4602      	mov	r2, r0
 80003f4:	1b1b      	subs	r3, r3, r4
 80003f6:	ea42 400c 	orr.w	r0, r2, ip, lsl #16
 80003fa:	e7a5      	b.n	8000348 <__udivmoddi4+0x98>
 80003fc:	f1c1 0620 	rsb	r6, r1, #32
 8000400:	408b      	lsls	r3, r1
 8000402:	fa22 f706 	lsr.w	r7, r2, r6
 8000406:	431f      	orrs	r7, r3
 8000408:	fa0e f401 	lsl.w	r4, lr, r1
 800040c:	fa20 f306 	lsr.w	r3, r0, r6
 8000410:	fa2e fe06 	lsr.w	lr, lr, r6
 8000414:	ea4f 4917 	mov.w	r9, r7, lsr #16
 8000418:	4323      	orrs	r3, r4
 800041a:	fa00 f801 	lsl.w	r8, r0, r1
 800041e:	fa1f fc87 	uxth.w	ip, r7
 8000422:	fbbe f0f9 	udiv	r0, lr, r9
 8000426:	0c1c      	lsrs	r4, r3, #16
 8000428:	fb09 ee10 	mls	lr, r9, r0, lr
 800042c:	ea44 440e 	orr.w	r4, r4, lr, lsl #16
 8000430:	fb00 fe0c 	mul.w	lr, r0, ip
 8000434:	45a6      	cmp	lr, r4
 8000436:	fa02 f201 	lsl.w	r2, r2, r1
 800043a:	d909      	bls.n	8000450 <__udivmoddi4+0x1a0>
 800043c:	193c      	adds	r4, r7, r4
 800043e:	f100 3aff 	add.w	sl, r0, #4294967295
 8000442:	f080 809c 	bcs.w	800057e <__udivmoddi4+0x2ce>
 8000446:	45a6      	cmp	lr, r4
 8000448:	f240 8099 	bls.w	800057e <__udivmoddi4+0x2ce>
 800044c:	3802      	subs	r0, #2
 800044e:	443c      	add	r4, r7
 8000450:	eba4 040e 	sub.w	r4, r4, lr
 8000454:	fa1f fe83 	uxth.w	lr, r3
 8000458:	fbb4 f3f9 	udiv	r3, r4, r9
 800045c:	fb09 4413 	mls	r4, r9, r3, r4
 8000460:	ea4e 4404 	orr.w	r4, lr, r4, lsl #16
 8000464:	fb03 fc0c 	mul.w	ip, r3, ip
 8000468:	45a4      	cmp	ip, r4
 800046a:	d908      	bls.n	800047e <__udivmoddi4+0x1ce>
 800046c:	193c      	adds	r4, r7, r4
 800046e:	f103 3eff 	add.w	lr, r3, #4294967295
 8000472:	f080 8082 	bcs.w	800057a <__udivmoddi4+0x2ca>
 8000476:	45a4      	cmp	ip, r4
 8000478:	d97f      	bls.n	800057a <__udivmoddi4+0x2ca>
 800047a:	3b02      	subs	r3, #2
 800047c:	443c      	add	r4, r7
 800047e:	ea43 4000 	orr.w	r0, r3, r0, lsl #16
 8000482:	eba4 040c 	sub.w	r4, r4, ip
 8000486:	fba0 ec02 	umull	lr, ip, r0, r2
 800048a:	4564      	cmp	r4, ip
 800048c:	4673      	mov	r3, lr
 800048e:	46e1      	mov	r9, ip
 8000490:	d362      	bcc.n	8000558 <__udivmoddi4+0x2a8>
 8000492:	d05f      	beq.n	8000554 <__udivmoddi4+0x2a4>
 8000494:	b15d      	cbz	r5, 80004ae <__udivmoddi4+0x1fe>
 8000496:	ebb8 0203 	subs.w	r2, r8, r3
 800049a:	eb64 0409 	sbc.w	r4, r4, r9
 800049e:	fa04 f606 	lsl.w	r6, r4, r6
 80004a2:	fa22 f301 	lsr.w	r3, r2, r1
 80004a6:	431e      	orrs	r6, r3
 80004a8:	40cc      	lsrs	r4, r1
 80004aa:	e9c5 6400 	strd	r6, r4, [r5]
 80004ae:	2100      	movs	r1, #0
 80004b0:	e74f      	b.n	8000352 <__udivmoddi4+0xa2>
 80004b2:	fbb1 fcf2 	udiv	ip, r1, r2
 80004b6:	0c01      	lsrs	r1, r0, #16
 80004b8:	ea41 410e 	orr.w	r1, r1, lr, lsl #16
 80004bc:	b280      	uxth	r0, r0
 80004be:	ea40 4201 	orr.w	r2, r0, r1, lsl #16
 80004c2:	463b      	mov	r3, r7
 80004c4:	4638      	mov	r0, r7
 80004c6:	463c      	mov	r4, r7
 80004c8:	46b8      	mov	r8, r7
 80004ca:	46be      	mov	lr, r7
 80004cc:	2620      	movs	r6, #32
 80004ce:	fbb1 f1f7 	udiv	r1, r1, r7
 80004d2:	eba2 0208 	sub.w	r2, r2, r8
 80004d6:	ea41 410c 	orr.w	r1, r1, ip, lsl #16
 80004da:	e766      	b.n	80003aa <__udivmoddi4+0xfa>
 80004dc:	4601      	mov	r1, r0
 80004de:	e718      	b.n	8000312 <__udivmoddi4+0x62>
 80004e0:	4610      	mov	r0, r2
 80004e2:	e72c      	b.n	800033e <__udivmoddi4+0x8e>
 80004e4:	f1c6 0220 	rsb	r2, r6, #32
 80004e8:	fa2e f302 	lsr.w	r3, lr, r2
 80004ec:	40b7      	lsls	r7, r6
 80004ee:	40b1      	lsls	r1, r6
 80004f0:	fa20 f202 	lsr.w	r2, r0, r2
 80004f4:	ea4f 4e17 	mov.w	lr, r7, lsr #16
 80004f8:	430a      	orrs	r2, r1
 80004fa:	fbb3 f8fe 	udiv	r8, r3, lr
 80004fe:	b2bc      	uxth	r4, r7
 8000500:	fb0e 3318 	mls	r3, lr, r8, r3
 8000504:	0c11      	lsrs	r1, r2, #16
 8000506:	ea41 4103 	orr.w	r1, r1, r3, lsl #16
 800050a:	fb08 f904 	mul.w	r9, r8, r4
 800050e:	40b0      	lsls	r0, r6
 8000510:	4589      	cmp	r9, r1
 8000512:	ea4f 4310 	mov.w	r3, r0, lsr #16
 8000516:	b280      	uxth	r0, r0
 8000518:	d93e      	bls.n	8000598 <__udivmoddi4+0x2e8>
 800051a:	1879      	adds	r1, r7, r1
 800051c:	f108 3cff 	add.w	ip, r8, #4294967295
 8000520:	d201      	bcs.n	8000526 <__udivmoddi4+0x276>
 8000522:	4589      	cmp	r9, r1
 8000524:	d81f      	bhi.n	8000566 <__udivmoddi4+0x2b6>
 8000526:	eba1 0109 	sub.w	r1, r1, r9
 800052a:	fbb1 f9fe 	udiv	r9, r1, lr
 800052e:	fb09 f804 	mul.w	r8, r9, r4
 8000532:	fb0e 1119 	mls	r1, lr, r9, r1
 8000536:	b292      	uxth	r2, r2
 8000538:	ea42 4201 	orr.w	r2, r2, r1, lsl #16
 800053c:	4542      	cmp	r2, r8
 800053e:	d229      	bcs.n	8000594 <__udivmoddi4+0x2e4>
 8000540:	18ba      	adds	r2, r7, r2
 8000542:	f109 31ff 	add.w	r1, r9, #4294967295
 8000546:	d2c4      	bcs.n	80004d2 <__udivmoddi4+0x222>
 8000548:	4542      	cmp	r2, r8
 800054a:	d2c2      	bcs.n	80004d2 <__udivmoddi4+0x222>
 800054c:	f1a9 0102 	sub.w	r1, r9, #2
 8000550:	443a      	add	r2, r7
 8000552:	e7be      	b.n	80004d2 <__udivmoddi4+0x222>
 8000554:	45f0      	cmp	r8, lr
 8000556:	d29d      	bcs.n	8000494 <__udivmoddi4+0x1e4>
 8000558:	ebbe 0302 	subs.w	r3, lr, r2
 800055c:	eb6c 0c07 	sbc.w	ip, ip, r7
 8000560:	3801      	subs	r0, #1
 8000562:	46e1      	mov	r9, ip
 8000564:	e796      	b.n	8000494 <__udivmoddi4+0x1e4>
 8000566:	eba7 0909 	sub.w	r9, r7, r9
 800056a:	4449      	add	r1, r9
 800056c:	f1a8 0c02 	sub.w	ip, r8, #2
 8000570:	fbb1 f9fe 	udiv	r9, r1, lr
 8000574:	fb09 f804 	mul.w	r8, r9, r4
 8000578:	e7db      	b.n	8000532 <__udivmoddi4+0x282>
 800057a:	4673      	mov	r3, lr
 800057c:	e77f      	b.n	800047e <__udivmoddi4+0x1ce>
 800057e:	4650      	mov	r0, sl
 8000580:	e766      	b.n	8000450 <__udivmoddi4+0x1a0>
 8000582:	4608      	mov	r0, r1
 8000584:	e6fd      	b.n	8000382 <__udivmoddi4+0xd2>
 8000586:	443b      	add	r3, r7
 8000588:	3a02      	subs	r2, #2
 800058a:	e733      	b.n	80003f4 <__udivmoddi4+0x144>
 800058c:	f1ac 0c02 	sub.w	ip, ip, #2
 8000590:	443b      	add	r3, r7
 8000592:	e71c      	b.n	80003ce <__udivmoddi4+0x11e>
 8000594:	4649      	mov	r1, r9
 8000596:	e79c      	b.n	80004d2 <__udivmoddi4+0x222>
 8000598:	eba1 0109 	sub.w	r1, r1, r9
 800059c:	46c4      	mov	ip, r8
 800059e:	fbb1 f9fe 	udiv	r9, r1, lr
 80005a2:	fb09 f804 	mul.w	r8, r9, r4
 80005a6:	e7c4      	b.n	8000532 <__udivmoddi4+0x282>

080005a8 <__aeabi_idiv0>:
 80005a8:	4770      	bx	lr
 80005aa:	bf00      	nop

080005ac <vApplicationGetIdleTaskMemory>:
/* USER CODE BEGIN GET_IDLE_TASK_MEMORY */
static StaticTask_t xIdleTaskTCBBuffer;
static StackType_t xIdleStack[configMINIMAL_STACK_SIZE];

void vApplicationGetIdleTaskMemory( StaticTask_t **ppxIdleTaskTCBBuffer, StackType_t **ppxIdleTaskStackBuffer, uint32_t *pulIdleTaskStackSize )
{
 80005ac:	b480      	push	{r7}
 80005ae:	b085      	sub	sp, #20
 80005b0:	af00      	add	r7, sp, #0
 80005b2:	60f8      	str	r0, [r7, #12]
 80005b4:	60b9      	str	r1, [r7, #8]
 80005b6:	607a      	str	r2, [r7, #4]
  *ppxIdleTaskTCBBuffer = &xIdleTaskTCBBuffer;
 80005b8:	68fb      	ldr	r3, [r7, #12]
 80005ba:	4a07      	ldr	r2, [pc, #28]	@ (80005d8 <vApplicationGetIdleTaskMemory+0x2c>)
 80005bc:	601a      	str	r2, [r3, #0]
  *ppxIdleTaskStackBuffer = &xIdleStack[0];
 80005be:	68bb      	ldr	r3, [r7, #8]
 80005c0:	4a06      	ldr	r2, [pc, #24]	@ (80005dc <vApplicationGetIdleTaskMemory+0x30>)
 80005c2:	601a      	str	r2, [r3, #0]
  *pulIdleTaskStackSize = configMINIMAL_STACK_SIZE;
 80005c4:	687b      	ldr	r3, [r7, #4]
 80005c6:	2280      	movs	r2, #128	@ 0x80
 80005c8:	601a      	str	r2, [r3, #0]
  /* place for user code */
}
 80005ca:	bf00      	nop
 80005cc:	3714      	adds	r7, #20
 80005ce:	46bd      	mov	sp, r7
 80005d0:	f85d 7b04 	ldr.w	r7, [sp], #4
 80005d4:	4770      	bx	lr
 80005d6:	bf00      	nop
 80005d8:	2000007c 	.word	0x2000007c
 80005dc:	200000d0 	.word	0x200000d0

080005e0 <vApplicationStackOverflowHook>:

/* Private user code ---------------------------------------------------------*/
/* USER CODE BEGIN 0 */
// Called if a task stack overflows
void vApplicationStackOverflowHook(TaskHandle_t xTask, char *pcTaskName)
{
 80005e0:	b580      	push	{r7, lr}
 80005e2:	b09c      	sub	sp, #112	@ 0x70
 80005e4:	af00      	add	r7, sp, #0
 80005e6:	6078      	str	r0, [r7, #4]
 80005e8:	6039      	str	r1, [r7, #0]
    // Print error over UART
    char msg[100];
    sprintf(msg, "Stack Overflow Detected in task: %s\r\n", pcTaskName);
 80005ea:	f107 030c 	add.w	r3, r7, #12
 80005ee:	683a      	ldr	r2, [r7, #0]
 80005f0:	490c      	ldr	r1, [pc, #48]	@ (8000624 <vApplicationStackOverflowHook+0x44>)
 80005f2:	4618      	mov	r0, r3
 80005f4:	f004 f996 	bl	8004924 <siprintf>
    HAL_UART_Transmit(&huart2, (uint8_t*)msg, strlen(msg), HAL_MAX_DELAY);
 80005f8:	f107 030c 	add.w	r3, r7, #12
 80005fc:	4618      	mov	r0, r3
 80005fe:	f7ff fde7 	bl	80001d0 <strlen>
 8000602:	4603      	mov	r3, r0
 8000604:	b29a      	uxth	r2, r3
 8000606:	f107 010c 	add.w	r1, r7, #12
 800060a:	f04f 33ff 	mov.w	r3, #4294967295
 800060e:	4806      	ldr	r0, [pc, #24]	@ (8000628 <vApplicationStackOverflowHook+0x48>)
 8000610:	f002 f90a 	bl	8002828 <HAL_UART_Transmit>
    vTaskDelete(xTask);
 8000614:	6878      	ldr	r0, [r7, #4]
 8000616:	f003 f92f 	bl	8003878 <vTaskDelete>
}
 800061a:	bf00      	nop
 800061c:	3770      	adds	r7, #112	@ 0x70
 800061e:	46bd      	mov	sp, r7
 8000620:	bd80      	pop	{r7, pc}
 8000622:	bf00      	nop
 8000624:	0800527c 	.word	0x0800527c
 8000628:	200002d0 	.word	0x200002d0

0800062c <Task1>:

void Task1(void *argument)
{
 800062c:	b580      	push	{r7, lr}
 800062e:	f5ad 7d4c 	sub.w	sp, sp, #816	@ 0x330
 8000632:	af00      	add	r7, sp, #0
 8000634:	f507 734c 	add.w	r3, r7, #816	@ 0x330
 8000638:	f5a3 734b 	sub.w	r3, r3, #812	@ 0x32c
 800063c:	6018      	str	r0, [r3, #0]
    // Deliberately too large for the stack size
    volatile uint32_t Array[200];

    for(;;)  // infinite loop
    {
        for(uint32_t i = 0; i < 200; i++)
 800063e:	2300      	movs	r3, #0
 8000640:	f8c7 332c 	str.w	r3, [r7, #812]	@ 0x32c
 8000644:	e010      	b.n	8000668 <Task1+0x3c>
        {
            Array[i] = i + 10;
 8000646:	f8d7 332c 	ldr.w	r3, [r7, #812]	@ 0x32c
 800064a:	f103 010a 	add.w	r1, r3, #10
 800064e:	f507 734c 	add.w	r3, r7, #816	@ 0x330
 8000652:	f5a3 7349 	sub.w	r3, r3, #804	@ 0x324
 8000656:	f8d7 232c 	ldr.w	r2, [r7, #812]	@ 0x32c
 800065a:	f843 1022 	str.w	r1, [r3, r2, lsl #2]
        for(uint32_t i = 0; i < 200; i++)
 800065e:	f8d7 332c 	ldr.w	r3, [r7, #812]	@ 0x32c
 8000662:	3301      	adds	r3, #1
 8000664:	f8c7 332c 	str.w	r3, [r7, #812]	@ 0x32c
 8000668:	f8d7 332c 	ldr.w	r3, [r7, #812]	@ 0x32c
 800066c:	2bc7      	cmp	r3, #199	@ 0xc7
 800066e:	d9ea      	bls.n	8000646 <Task1+0x1a>
        }

        // Yield to let scheduler check stacks
        osDelay(1);
 8000670:	2001      	movs	r0, #1
 8000672:	f002 fea1 	bl	80033b8 <osDelay>
        for(uint32_t i = 0; i < 200; i++)
 8000676:	e7e2      	b.n	800063e <Task1+0x12>

08000678 <main>:
/**
  * @brief  The application entry point.
  * @retval int
  */
int main(void)
{
 8000678:	b5b0      	push	{r4, r5, r7, lr}
 800067a:	b08a      	sub	sp, #40	@ 0x28
 800067c:	af02      	add	r7, sp, #8
  /* USER CODE END 1 */

  /* MCU Configuration--------------------------------------------------------*/

  /* Reset of all peripherals, Initializes the Flash interface and the Systick. */
  HAL_Init();
 800067e:	f000 fa41 	bl	8000b04 <HAL_Init>
  /* USER CODE BEGIN Init */

  /* USER CODE END Init */

  /* Configure the system clock */
  SystemClock_Config();
 8000682:	f000 f82b 	bl	80006dc <SystemClock_Config>
  /* USER CODE BEGIN SysInit */

  /* USER CODE END SysInit */

  /* Initialize all configured peripherals */
  MX_GPIO_Init();
 8000686:	f000 f8ab 	bl	80007e0 <MX_GPIO_Init>
  MX_USART2_UART_Init();
 800068a:	f000 f879 	bl	8000780 <MX_USART2_UART_Init>
  /* add queues, ... */
  /* USER CODE END RTOS_QUEUES */

  /* Create the thread(s) */
  /* definition and creation of defaultTask */
  osThreadDef(defaultTask, StartDefaultTask, osPriorityNormal, 0, 128);
 800068e:	4b0f      	ldr	r3, [pc, #60]	@ (80006cc <main+0x54>)
 8000690:	1d3c      	adds	r4, r7, #4
 8000692:	461d      	mov	r5, r3
 8000694:	cd0f      	ldmia	r5!, {r0, r1, r2, r3}
 8000696:	c40f      	stmia	r4!, {r0, r1, r2, r3}
 8000698:	e895 0007 	ldmia.w	r5, {r0, r1, r2}
 800069c:	e884 0007 	stmia.w	r4, {r0, r1, r2}
  defaultTaskHandle = osThreadCreate(osThread(defaultTask), NULL);
 80006a0:	1d3b      	adds	r3, r7, #4
 80006a2:	2100      	movs	r1, #0
 80006a4:	4618      	mov	r0, r3
 80006a6:	f002 fe3b 	bl	8003320 <osThreadCreate>
 80006aa:	4603      	mov	r3, r0
 80006ac:	4a08      	ldr	r2, [pc, #32]	@ (80006d0 <main+0x58>)
 80006ae:	6013      	str	r3, [r2, #0]

  /* USER CODE BEGIN RTOS_THREADS */
  xTaskCreate(Task1, "STACK", 100, NULL, 1, NULL); // creation of task and checking
 80006b0:	2300      	movs	r3, #0
 80006b2:	9301      	str	r3, [sp, #4]
 80006b4:	2301      	movs	r3, #1
 80006b6:	9300      	str	r3, [sp, #0]
 80006b8:	2300      	movs	r3, #0
 80006ba:	2264      	movs	r2, #100	@ 0x64
 80006bc:	4905      	ldr	r1, [pc, #20]	@ (80006d4 <main+0x5c>)
 80006be:	4806      	ldr	r0, [pc, #24]	@ (80006d8 <main+0x60>)
 80006c0:	f002 ffa2 	bl	8003608 <xTaskCreate>

  /* USER CODE END RTOS_THREADS */

  /* Start scheduler */
  osKernelStart();
 80006c4:	f002 fe25 	bl	8003312 <osKernelStart>

  /* We should never get here as control is now taken by the scheduler */

  /* Infinite loop */
  /* USER CODE BEGIN WHILE */
  while (1)
 80006c8:	bf00      	nop
 80006ca:	e7fd      	b.n	80006c8 <main+0x50>
 80006cc:	080052b8 	.word	0x080052b8
 80006d0:	20000358 	.word	0x20000358
 80006d4:	080052a4 	.word	0x080052a4
 80006d8:	0800062d 	.word	0x0800062d

080006dc <SystemClock_Config>:
/**
  * @brief System Clock Configuration
  * @retval None
  */
void SystemClock_Config(void)
{
 80006dc:	b580      	push	{r7, lr}
 80006de:	b096      	sub	sp, #88	@ 0x58
 80006e0:	af00      	add	r7, sp, #0
  RCC_OscInitTypeDef RCC_OscInitStruct = {0};
 80006e2:	f107 0314 	add.w	r3, r7, #20
 80006e6:	2244      	movs	r2, #68	@ 0x44
 80006e8:	2100      	movs	r1, #0
 80006ea:	4618      	mov	r0, r3
 80006ec:	f004 f93c 	bl	8004968 <memset>
  RCC_ClkInitTypeDef RCC_ClkInitStruct = {0};
 80006f0:	463b      	mov	r3, r7
 80006f2:	2200      	movs	r2, #0
 80006f4:	601a      	str	r2, [r3, #0]
 80006f6:	605a      	str	r2, [r3, #4]
 80006f8:	609a      	str	r2, [r3, #8]
 80006fa:	60da      	str	r2, [r3, #12]
 80006fc:	611a      	str	r2, [r3, #16]

  /** Configure the main internal regulator output voltage
  */
  if (HAL_PWREx_ControlVoltageScaling(PWR_REGULATOR_VOLTAGE_SCALE1) != HAL_OK)
 80006fe:	f44f 7000 	mov.w	r0, #512	@ 0x200
 8000702:	f000 fd31 	bl	8001168 <HAL_PWREx_ControlVoltageScaling>
 8000706:	4603      	mov	r3, r0
 8000708:	2b00      	cmp	r3, #0
 800070a:	d001      	beq.n	8000710 <SystemClock_Config+0x34>
  {
    Error_Handler();
 800070c:	f000 f8d6 	bl	80008bc <Error_Handler>
  }

  /** Initializes the RCC Oscillators according to the specified parameters
  * in the RCC_OscInitTypeDef structure.
  */
  RCC_OscInitStruct.OscillatorType = RCC_OSCILLATORTYPE_HSI;
 8000710:	2302      	movs	r3, #2
 8000712:	617b      	str	r3, [r7, #20]
  RCC_OscInitStruct.HSIState = RCC_HSI_ON;
 8000714:	f44f 7380 	mov.w	r3, #256	@ 0x100
 8000718:	623b      	str	r3, [r7, #32]
  RCC_OscInitStruct.HSICalibrationValue = RCC_HSICALIBRATION_DEFAULT;
 800071a:	2310      	movs	r3, #16
 800071c:	627b      	str	r3, [r7, #36]	@ 0x24
  RCC_OscInitStruct.PLL.PLLState = RCC_PLL_ON;
 800071e:	2302      	movs	r3, #2
 8000720:	63fb      	str	r3, [r7, #60]	@ 0x3c
  RCC_OscInitStruct.PLL.PLLSource = RCC_PLLSOURCE_HSI;
 8000722:	2302      	movs	r3, #2
 8000724:	643b      	str	r3, [r7, #64]	@ 0x40
  RCC_OscInitStruct.PLL.PLLM = 1;
 8000726:	2301      	movs	r3, #1
 8000728:	647b      	str	r3, [r7, #68]	@ 0x44
  RCC_OscInitStruct.PLL.PLLN = 10;
 800072a:	230a      	movs	r3, #10
 800072c:	64bb      	str	r3, [r7, #72]	@ 0x48
  RCC_OscInitStruct.PLL.PLLP = RCC_PLLP_DIV7;
 800072e:	2307      	movs	r3, #7
 8000730:	64fb      	str	r3, [r7, #76]	@ 0x4c
  RCC_OscInitStruct.PLL.PLLQ = RCC_PLLQ_DIV2;
 8000732:	2302      	movs	r3, #2
 8000734:	653b      	str	r3, [r7, #80]	@ 0x50
  RCC_OscInitStruct.PLL.PLLR = RCC_PLLR_DIV2;
 8000736:	2302      	movs	r3, #2
 8000738:	657b      	str	r3, [r7, #84]	@ 0x54
  if (HAL_RCC_OscConfig(&RCC_OscInitStruct) != HAL_OK)
 800073a:	f107 0314 	add.w	r3, r7, #20
 800073e:	4618      	mov	r0, r3
 8000740:	f000 fd68 	bl	8001214 <HAL_RCC_OscConfig>
 8000744:	4603      	mov	r3, r0
 8000746:	2b00      	cmp	r3, #0
 8000748:	d001      	beq.n	800074e <SystemClock_Config+0x72>
  {
    Error_Handler();
 800074a:	f000 f8b7 	bl	80008bc <Error_Handler>
  }

  /** Initializes the CPU, AHB and APB buses clocks
  */
  RCC_ClkInitStruct.ClockType = RCC_CLOCKTYPE_HCLK|RCC_CLOCKTYPE_SYSCLK
 800074e:	230f      	movs	r3, #15
 8000750:	603b      	str	r3, [r7, #0]
                              |RCC_CLOCKTYPE_PCLK1|RCC_CLOCKTYPE_PCLK2;
  RCC_ClkInitStruct.SYSCLKSource = RCC_SYSCLKSOURCE_PLLCLK;
 8000752:	2303      	movs	r3, #3
 8000754:	607b      	str	r3, [r7, #4]
  RCC_ClkInitStruct.AHBCLKDivider = RCC_SYSCLK_DIV1;
 8000756:	2300      	movs	r3, #0
 8000758:	60bb      	str	r3, [r7, #8]
  RCC_ClkInitStruct.APB1CLKDivider = RCC_HCLK_DIV1;
 800075a:	2300      	movs	r3, #0
 800075c:	60fb      	str	r3, [r7, #12]
  RCC_ClkInitStruct.APB2CLKDivider = RCC_HCLK_DIV1;
 800075e:	2300      	movs	r3, #0
 8000760:	613b      	str	r3, [r7, #16]

  if (HAL_RCC_ClockConfig(&RCC_ClkInitStruct, FLASH_LATENCY_4) != HAL_OK)
 8000762:	463b      	mov	r3, r7
 8000764:	2104      	movs	r1, #4
 8000766:	4618      	mov	r0, r3
 8000768:	f001 f930 	bl	80019cc <HAL_RCC_ClockConfig>
 800076c:	4603      	mov	r3, r0
 800076e:	2b00      	cmp	r3, #0
 8000770:	d001      	beq.n	8000776 <SystemClock_Config+0x9a>
  {
    Error_Handler();
 8000772:	f000 f8a3 	bl	80008bc <Error_Handler>
  }
}
 8000776:	bf00      	nop
 8000778:	3758      	adds	r7, #88	@ 0x58
 800077a:	46bd      	mov	sp, r7
 800077c:	bd80      	pop	{r7, pc}
	...

08000780 <MX_USART2_UART_Init>:
  * @brief USART2 Initialization Function
  * @param None
  * @retval None
  */
static void MX_USART2_UART_Init(void)
{
 8000780:	b580      	push	{r7, lr}
 8000782:	af00      	add	r7, sp, #0
  /* USER CODE END USART2_Init 0 */

  /* USER CODE BEGIN USART2_Init 1 */

  /* USER CODE END USART2_Init 1 */
  huart2.Instance = USART2;
 8000784:	4b14      	ldr	r3, [pc, #80]	@ (80007d8 <MX_USART2_UART_Init+0x58>)
 8000786:	4a15      	ldr	r2, [pc, #84]	@ (80007dc <MX_USART2_UART_Init+0x5c>)
 8000788:	601a      	str	r2, [r3, #0]
  huart2.Init.BaudRate = 115200;
 800078a:	4b13      	ldr	r3, [pc, #76]	@ (80007d8 <MX_USART2_UART_Init+0x58>)
 800078c:	f44f 32e1 	mov.w	r2, #115200	@ 0x1c200
 8000790:	605a      	str	r2, [r3, #4]
  huart2.Init.WordLength = UART_WORDLENGTH_8B;
 8000792:	4b11      	ldr	r3, [pc, #68]	@ (80007d8 <MX_USART2_UART_Init+0x58>)
 8000794:	2200      	movs	r2, #0
 8000796:	609a      	str	r2, [r3, #8]
  huart2.Init.StopBits = UART_STOPBITS_1;
 8000798:	4b0f      	ldr	r3, [pc, #60]	@ (80007d8 <MX_USART2_UART_Init+0x58>)
 800079a:	2200      	movs	r2, #0
 800079c:	60da      	str	r2, [r3, #12]
  huart2.Init.Parity = UART_PARITY_NONE;
 800079e:	4b0e      	ldr	r3, [pc, #56]	@ (80007d8 <MX_USART2_UART_Init+0x58>)
 80007a0:	2200      	movs	r2, #0
 80007a2:	611a      	str	r2, [r3, #16]
  huart2.Init.Mode = UART_MODE_TX_RX;
 80007a4:	4b0c      	ldr	r3, [pc, #48]	@ (80007d8 <MX_USART2_UART_Init+0x58>)
 80007a6:	220c      	movs	r2, #12
 80007a8:	615a      	str	r2, [r3, #20]
  huart2.Init.HwFlowCtl = UART_HWCONTROL_NONE;
 80007aa:	4b0b      	ldr	r3, [pc, #44]	@ (80007d8 <MX_USART2_UART_Init+0x58>)
 80007ac:	2200      	movs	r2, #0
 80007ae:	619a      	str	r2, [r3, #24]
  huart2.Init.OverSampling = UART_OVERSAMPLING_16;
 80007b0:	4b09      	ldr	r3, [pc, #36]	@ (80007d8 <MX_USART2_UART_Init+0x58>)
 80007b2:	2200      	movs	r2, #0
 80007b4:	61da      	str	r2, [r3, #28]
  huart2.Init.OneBitSampling = UART_ONE_BIT_SAMPLE_DISABLE;
 80007b6:	4b08      	ldr	r3, [pc, #32]	@ (80007d8 <MX_USART2_UART_Init+0x58>)
 80007b8:	2200      	movs	r2, #0
 80007ba:	621a      	str	r2, [r3, #32]
  huart2.AdvancedInit.AdvFeatureInit = UART_ADVFEATURE_NO_INIT;
 80007bc:	4b06      	ldr	r3, [pc, #24]	@ (80007d8 <MX_USART2_UART_Init+0x58>)
 80007be:	2200      	movs	r2, #0
 80007c0:	625a      	str	r2, [r3, #36]	@ 0x24
  if (HAL_UART_Init(&huart2) != HAL_OK)
 80007c2:	4805      	ldr	r0, [pc, #20]	@ (80007d8 <MX_USART2_UART_Init+0x58>)
 80007c4:	f001 ffe2 	bl	800278c <HAL_UART_Init>
 80007c8:	4603      	mov	r3, r0
 80007ca:	2b00      	cmp	r3, #0
 80007cc:	d001      	beq.n	80007d2 <MX_USART2_UART_Init+0x52>
  {
    Error_Handler();
 80007ce:	f000 f875 	bl	80008bc <Error_Handler>
  }
  /* USER CODE BEGIN USART2_Init 2 */

  /* USER CODE END USART2_Init 2 */

}
 80007d2:	bf00      	nop
 80007d4:	bd80      	pop	{r7, pc}
 80007d6:	bf00      	nop
 80007d8:	200002d0 	.word	0x200002d0
 80007dc:	40004400 	.word	0x40004400

080007e0 <MX_GPIO_Init>:
  * @brief GPIO Initialization Function
  * @param None
  * @retval None
  */
static void MX_GPIO_Init(void)
{
 80007e0:	b580      	push	{r7, lr}
 80007e2:	b08a      	sub	sp, #40	@ 0x28
 80007e4:	af00      	add	r7, sp, #0
  GPIO_InitTypeDef GPIO_InitStruct = {0};
 80007e6:	f107 0314 	add.w	r3, r7, #20
 80007ea:	2200      	movs	r2, #0
 80007ec:	601a      	str	r2, [r3, #0]
 80007ee:	605a      	str	r2, [r3, #4]
 80007f0:	609a      	str	r2, [r3, #8]
 80007f2:	60da      	str	r2, [r3, #12]
 80007f4:	611a      	str	r2, [r3, #16]
  /* USER CODE BEGIN MX_GPIO_Init_1 */

  /* USER CODE END MX_GPIO_Init_1 */

  /* GPIO Ports Clock Enable */
  __HAL_RCC_GPIOC_CLK_ENABLE();
 80007f6:	4b2b      	ldr	r3, [pc, #172]	@ (80008a4 <MX_GPIO_Init+0xc4>)
 80007f8:	6cdb      	ldr	r3, [r3, #76]	@ 0x4c
 80007fa:	4a2a      	ldr	r2, [pc, #168]	@ (80008a4 <MX_GPIO_Init+0xc4>)
 80007fc:	f043 0304 	orr.w	r3, r3, #4
 8000800:	64d3      	str	r3, [r2, #76]	@ 0x4c
 8000802:	4b28      	ldr	r3, [pc, #160]	@ (80008a4 <MX_GPIO_Init+0xc4>)
 8000804:	6cdb      	ldr	r3, [r3, #76]	@ 0x4c
 8000806:	f003 0304 	and.w	r3, r3, #4
 800080a:	613b      	str	r3, [r7, #16]
 800080c:	693b      	ldr	r3, [r7, #16]
  __HAL_RCC_GPIOH_CLK_ENABLE();
 800080e:	4b25      	ldr	r3, [pc, #148]	@ (80008a4 <MX_GPIO_Init+0xc4>)
 8000810:	6cdb      	ldr	r3, [r3, #76]	@ 0x4c
 8000812:	4a24      	ldr	r2, [pc, #144]	@ (80008a4 <MX_GPIO_Init+0xc4>)
 8000814:	f043 0380 	orr.w	r3, r3, #128	@ 0x80
 8000818:	64d3      	str	r3, [r2, #76]	@ 0x4c
 800081a:	4b22      	ldr	r3, [pc, #136]	@ (80008a4 <MX_GPIO_Init+0xc4>)
 800081c:	6cdb      	ldr	r3, [r3, #76]	@ 0x4c
 800081e:	f003 0380 	and.w	r3, r3, #128	@ 0x80
 8000822:	60fb      	str	r3, [r7, #12]
 8000824:	68fb      	ldr	r3, [r7, #12]
  __HAL_RCC_GPIOA_CLK_ENABLE();
 8000826:	4b1f      	ldr	r3, [pc, #124]	@ (80008a4 <MX_GPIO_Init+0xc4>)
 8000828:	6cdb      	ldr	r3, [r3, #76]	@ 0x4c
 800082a:	4a1e      	ldr	r2, [pc, #120]	@ (80008a4 <MX_GPIO_Init+0xc4>)
 800082c:	f043 0301 	orr.w	r3, r3, #1
 8000830:	64d3      	str	r3, [r2, #76]	@ 0x4c
 8000832:	4b1c      	ldr	r3, [pc, #112]	@ (80008a4 <MX_GPIO_Init+0xc4>)
 8000834:	6cdb      	ldr	r3, [r3, #76]	@ 0x4c
 8000836:	f003 0301 	and.w	r3, r3, #1
 800083a:	60bb      	str	r3, [r7, #8]
 800083c:	68bb      	ldr	r3, [r7, #8]
  __HAL_RCC_GPIOB_CLK_ENABLE();
 800083e:	4b19      	ldr	r3, [pc, #100]	@ (80008a4 <MX_GPIO_Init+0xc4>)
 8000840:	6cdb      	ldr	r3, [r3, #76]	@ 0x4c
 8000842:	4a18      	ldr	r2, [pc, #96]	@ (80008a4 <MX_GPIO_Init+0xc4>)
 8000844:	f043 0302 	orr.w	r3, r3, #2
 8000848:	64d3      	str	r3, [r2, #76]	@ 0x4c
 800084a:	4b16      	ldr	r3, [pc, #88]	@ (80008a4 <MX_GPIO_Init+0xc4>)
 800084c:	6cdb      	ldr	r3, [r3, #76]	@ 0x4c
 800084e:	f003 0302 	and.w	r3, r3, #2
 8000852:	607b      	str	r3, [r7, #4]
 8000854:	687b      	ldr	r3, [r7, #4]

  /*Configure GPIO pin Output Level */
  HAL_GPIO_WritePin(LD2_GPIO_Port, LD2_Pin, GPIO_PIN_RESET);
 8000856:	2200      	movs	r2, #0
 8000858:	2120      	movs	r1, #32
 800085a:	f04f 4090 	mov.w	r0, #1207959552	@ 0x48000000
 800085e:	f000 fc5d 	bl	800111c <HAL_GPIO_WritePin>

  /*Configure GPIO pin : B1_Pin */
  GPIO_InitStruct.Pin = B1_Pin;
 8000862:	f44f 5300 	mov.w	r3, #8192	@ 0x2000
 8000866:	617b      	str	r3, [r7, #20]
  GPIO_InitStruct.Mode = GPIO_MODE_IT_FALLING;
 8000868:	f44f 1304 	mov.w	r3, #2162688	@ 0x210000
 800086c:	61bb      	str	r3, [r7, #24]
  GPIO_InitStruct.Pull = GPIO_NOPULL;
 800086e:	2300      	movs	r3, #0
 8000870:	61fb      	str	r3, [r7, #28]
  HAL_GPIO_Init(B1_GPIO_Port, &GPIO_InitStruct);
 8000872:	f107 0314 	add.w	r3, r7, #20
 8000876:	4619      	mov	r1, r3
 8000878:	480b      	ldr	r0, [pc, #44]	@ (80008a8 <MX_GPIO_Init+0xc8>)
 800087a:	f000 faa5 	bl	8000dc8 <HAL_GPIO_Init>

  /*Configure GPIO pin : LD2_Pin */
  GPIO_InitStruct.Pin = LD2_Pin;
 800087e:	2320      	movs	r3, #32
 8000880:	617b      	str	r3, [r7, #20]
  GPIO_InitStruct.Mode = GPIO_MODE_OUTPUT_PP;
 8000882:	2301      	movs	r3, #1
 8000884:	61bb      	str	r3, [r7, #24]
  GPIO_InitStruct.Pull = GPIO_NOPULL;
 8000886:	2300      	movs	r3, #0
 8000888:	61fb      	str	r3, [r7, #28]
  GPIO_InitStruct.Speed = GPIO_SPEED_FREQ_LOW;
 800088a:	2300      	movs	r3, #0
 800088c:	623b      	str	r3, [r7, #32]
  HAL_GPIO_Init(LD2_GPIO_Port, &GPIO_InitStruct);
 800088e:	f107 0314 	add.w	r3, r7, #20
 8000892:	4619      	mov	r1, r3
 8000894:	f04f 4090 	mov.w	r0, #1207959552	@ 0x48000000
 8000898:	f000 fa96 	bl	8000dc8 <HAL_GPIO_Init>

  /* USER CODE BEGIN MX_GPIO_Init_2 */

  /* USER CODE END MX_GPIO_Init_2 */
}
 800089c:	bf00      	nop
 800089e:	3728      	adds	r7, #40	@ 0x28
 80008a0:	46bd      	mov	sp, r7
 80008a2:	bd80      	pop	{r7, pc}
 80008a4:	40021000 	.word	0x40021000
 80008a8:	48000800 	.word	0x48000800

080008ac <StartDefaultTask>:
  * @param  argument: Not used
  * @retval None
  */
/* USER CODE END Header_StartDefaultTask */
void StartDefaultTask(void const * argument)
{
 80008ac:	b580      	push	{r7, lr}
 80008ae:	b082      	sub	sp, #8
 80008b0:	af00      	add	r7, sp, #0
 80008b2:	6078      	str	r0, [r7, #4]
  /* USER CODE BEGIN 5 */
  /* Infinite loop */
  for(;;)
  {
    osDelay(1);
 80008b4:	2001      	movs	r0, #1
 80008b6:	f002 fd7f 	bl	80033b8 <osDelay>
 80008ba:	e7fb      	b.n	80008b4 <StartDefaultTask+0x8>

080008bc <Error_Handler>:
/**
  * @brief  This function is executed in case of error occurrence.
  * @retval None
  */
void Error_Handler(void)
{
 80008bc:	b480      	push	{r7}
 80008be:	af00      	add	r7, sp, #0
  \details Disables IRQ interrupts by setting the I-bit in the CPSR.
           Can only be executed in Privileged modes.
 */
__STATIC_FORCEINLINE void __disable_irq(void)
{
  __ASM volatile ("cpsid i" : : : "memory");
 80008c0:	b672      	cpsid	i
}
 80008c2:	bf00      	nop
  /* USER CODE BEGIN Error_Handler_Debug */
  /* User can add his own implementation to report the HAL error return state */
  __disable_irq();
  while (1)
 80008c4:	bf00      	nop
 80008c6:	e7fd      	b.n	80008c4 <Error_Handler+0x8>

080008c8 <HAL_MspInit>:
/* USER CODE END 0 */
/**
  * Initializes the Global MSP.
  */
void HAL_MspInit(void)
{
 80008c8:	b580      	push	{r7, lr}
 80008ca:	b082      	sub	sp, #8
 80008cc:	af00      	add	r7, sp, #0

  /* USER CODE BEGIN MspInit 0 */

  /* USER CODE END MspInit 0 */

  __HAL_RCC_SYSCFG_CLK_ENABLE();
 80008ce:	4b11      	ldr	r3, [pc, #68]	@ (8000914 <HAL_MspInit+0x4c>)
 80008d0:	6e1b      	ldr	r3, [r3, #96]	@ 0x60
 80008d2:	4a10      	ldr	r2, [pc, #64]	@ (8000914 <HAL_MspInit+0x4c>)
 80008d4:	f043 0301 	orr.w	r3, r3, #1
 80008d8:	6613      	str	r3, [r2, #96]	@ 0x60
 80008da:	4b0e      	ldr	r3, [pc, #56]	@ (8000914 <HAL_MspInit+0x4c>)
 80008dc:	6e1b      	ldr	r3, [r3, #96]	@ 0x60
 80008de:	f003 0301 	and.w	r3, r3, #1
 80008e2:	607b      	str	r3, [r7, #4]
 80008e4:	687b      	ldr	r3, [r7, #4]
  __HAL_RCC_PWR_CLK_ENABLE();
 80008e6:	4b0b      	ldr	r3, [pc, #44]	@ (8000914 <HAL_MspInit+0x4c>)
 80008e8:	6d9b      	ldr	r3, [r3, #88]	@ 0x58
 80008ea:	4a0a      	ldr	r2, [pc, #40]	@ (8000914 <HAL_MspInit+0x4c>)
 80008ec:	f043 5380 	orr.w	r3, r3, #268435456	@ 0x10000000
 80008f0:	6593      	str	r3, [r2, #88]	@ 0x58
 80008f2:	4b08      	ldr	r3, [pc, #32]	@ (8000914 <HAL_MspInit+0x4c>)
 80008f4:	6d9b      	ldr	r3, [r3, #88]	@ 0x58
 80008f6:	f003 5380 	and.w	r3, r3, #268435456	@ 0x10000000
 80008fa:	603b      	str	r3, [r7, #0]
 80008fc:	683b      	ldr	r3, [r7, #0]

  /* System interrupt init*/
  /* PendSV_IRQn interrupt configuration */
  HAL_NVIC_SetPriority(PendSV_IRQn, 15, 0);
 80008fe:	2200      	movs	r2, #0
 8000900:	210f      	movs	r1, #15
 8000902:	f06f 0001 	mvn.w	r0, #1
 8000906:	f000 fa36 	bl	8000d76 <HAL_NVIC_SetPriority>

  /* USER CODE BEGIN MspInit 1 */

  /* USER CODE END MspInit 1 */
}
 800090a:	bf00      	nop
 800090c:	3708      	adds	r7, #8
 800090e:	46bd      	mov	sp, r7
 8000910:	bd80      	pop	{r7, pc}
 8000912:	bf00      	nop
 8000914:	40021000 	.word	0x40021000

08000918 <HAL_UART_MspInit>:
  * This function configures the hardware resources used in this example
  * @param huart: UART handle pointer
  * @retval None
  */
void HAL_UART_MspInit(UART_HandleTypeDef* huart)
{
 8000918:	b580      	push	{r7, lr}
 800091a:	b0ac      	sub	sp, #176	@ 0xb0
 800091c:	af00      	add	r7, sp, #0
 800091e:	6078      	str	r0, [r7, #4]
  GPIO_InitTypeDef GPIO_InitStruct = {0};
 8000920:	f107 039c 	add.w	r3, r7, #156	@ 0x9c
 8000924:	2200      	movs	r2, #0
 8000926:	601a      	str	r2, [r3, #0]
 8000928:	605a      	str	r2, [r3, #4]
 800092a:	609a      	str	r2, [r3, #8]
 800092c:	60da      	str	r2, [r3, #12]
 800092e:	611a      	str	r2, [r3, #16]
  RCC_PeriphCLKInitTypeDef PeriphClkInit = {0};
 8000930:	f107 0314 	add.w	r3, r7, #20
 8000934:	2288      	movs	r2, #136	@ 0x88
 8000936:	2100      	movs	r1, #0
 8000938:	4618      	mov	r0, r3
 800093a:	f004 f815 	bl	8004968 <memset>
  if(huart->Instance==USART2)
 800093e:	687b      	ldr	r3, [r7, #4]
 8000940:	681b      	ldr	r3, [r3, #0]
 8000942:	4a21      	ldr	r2, [pc, #132]	@ (80009c8 <HAL_UART_MspInit+0xb0>)
 8000944:	4293      	cmp	r3, r2
 8000946:	d13b      	bne.n	80009c0 <HAL_UART_MspInit+0xa8>

    /* USER CODE END USART2_MspInit 0 */

  /** Initializes the peripherals clock
  */
    PeriphClkInit.PeriphClockSelection = RCC_PERIPHCLK_USART2;
 8000948:	2302      	movs	r3, #2
 800094a:	617b      	str	r3, [r7, #20]
    PeriphClkInit.Usart2ClockSelection = RCC_USART2CLKSOURCE_PCLK1;
 800094c:	2300      	movs	r3, #0
 800094e:	653b      	str	r3, [r7, #80]	@ 0x50
    if (HAL_RCCEx_PeriphCLKConfig(&PeriphClkInit) != HAL_OK)
 8000950:	f107 0314 	add.w	r3, r7, #20
 8000954:	4618      	mov	r0, r3
 8000956:	f001 fa5d 	bl	8001e14 <HAL_RCCEx_PeriphCLKConfig>
 800095a:	4603      	mov	r3, r0
 800095c:	2b00      	cmp	r3, #0
 800095e:	d001      	beq.n	8000964 <HAL_UART_MspInit+0x4c>
    {
      Error_Handler();
 8000960:	f7ff ffac 	bl	80008bc <Error_Handler>
    }

    /* Peripheral clock enable */
    __HAL_RCC_USART2_CLK_ENABLE();
 8000964:	4b19      	ldr	r3, [pc, #100]	@ (80009cc <HAL_UART_MspInit+0xb4>)
 8000966:	6d9b      	ldr	r3, [r3, #88]	@ 0x58
 8000968:	4a18      	ldr	r2, [pc, #96]	@ (80009cc <HAL_UART_MspInit+0xb4>)
 800096a:	f443 3300 	orr.w	r3, r3, #131072	@ 0x20000
 800096e:	6593      	str	r3, [r2, #88]	@ 0x58
 8000970:	4b16      	ldr	r3, [pc, #88]	@ (80009cc <HAL_UART_MspInit+0xb4>)
 8000972:	6d9b      	ldr	r3, [r3, #88]	@ 0x58
 8000974:	f403 3300 	and.w	r3, r3, #131072	@ 0x20000
 8000978:	613b      	str	r3, [r7, #16]
 800097a:	693b      	ldr	r3, [r7, #16]

    __HAL_RCC_GPIOA_CLK_ENABLE();
 800097c:	4b13      	ldr	r3, [pc, #76]	@ (80009cc <HAL_UART_MspInit+0xb4>)
 800097e:	6cdb      	ldr	r3, [r3, #76]	@ 0x4c
 8000980:	4a12      	ldr	r2, [pc, #72]	@ (80009cc <HAL_UART_MspInit+0xb4>)
 8000982:	f043 0301 	orr.w	r3, r3, #1
 8000986:	64d3      	str	r3, [r2, #76]	@ 0x4c
 8000988:	4b10      	ldr	r3, [pc, #64]	@ (80009cc <HAL_UART_MspInit+0xb4>)
 800098a:	6cdb      	ldr	r3, [r3, #76]	@ 0x4c
 800098c:	f003 0301 	and.w	r3, r3, #1
 8000990:	60fb      	str	r3, [r7, #12]
 8000992:	68fb      	ldr	r3, [r7, #12]
    /**USART2 GPIO Configuration
    PA2     ------> USART2_TX
    PA3     ------> USART2_RX
    */
    GPIO_InitStruct.Pin = USART_TX_Pin|USART_RX_Pin;
 8000994:	230c      	movs	r3, #12
 8000996:	f8c7 309c 	str.w	r3, [r7, #156]	@ 0x9c
    GPIO_InitStruct.Mode = GPIO_MODE_AF_PP;
 800099a:	2302      	movs	r3, #2
 800099c:	f8c7 30a0 	str.w	r3, [r7, #160]	@ 0xa0
    GPIO_InitStruct.Pull = GPIO_NOPULL;
 80009a0:	2300      	movs	r3, #0
 80009a2:	f8c7 30a4 	str.w	r3, [r7, #164]	@ 0xa4
    GPIO_InitStruct.Speed = GPIO_SPEED_FREQ_VERY_HIGH;
 80009a6:	2303      	movs	r3, #3
 80009a8:	f8c7 30a8 	str.w	r3, [r7, #168]	@ 0xa8
    GPIO_InitStruct.Alternate = GPIO_AF7_USART2;
 80009ac:	2307      	movs	r3, #7
 80009ae:	f8c7 30ac 	str.w	r3, [r7, #172]	@ 0xac
    HAL_GPIO_Init(GPIOA, &GPIO_InitStruct);
 80009b2:	f107 039c 	add.w	r3, r7, #156	@ 0x9c
 80009b6:	4619      	mov	r1, r3
 80009b8:	f04f 4090 	mov.w	r0, #1207959552	@ 0x48000000
 80009bc:	f000 fa04 	bl	8000dc8 <HAL_GPIO_Init>

    /* USER CODE END USART2_MspInit 1 */

  }

}
 80009c0:	bf00      	nop
 80009c2:	37b0      	adds	r7, #176	@ 0xb0
 80009c4:	46bd      	mov	sp, r7
 80009c6:	bd80      	pop	{r7, pc}
 80009c8:	40004400 	.word	0x40004400
 80009cc:	40021000 	.word	0x40021000

080009d0 <NMI_Handler>:
/******************************************************************************/
/**
  * @brief This function handles Non maskable interrupt.
  */
void NMI_Handler(void)
{
 80009d0:	b480      	push	{r7}
 80009d2:	af00      	add	r7, sp, #0
  /* USER CODE BEGIN NonMaskableInt_IRQn 0 */

  /* USER CODE END NonMaskableInt_IRQn 0 */
  /* USER CODE BEGIN NonMaskableInt_IRQn 1 */
   while (1)
 80009d4:	bf00      	nop
 80009d6:	e7fd      	b.n	80009d4 <NMI_Handler+0x4>

080009d8 <HardFault_Handler>:

/**
  * @brief This function handles Hard fault interrupt.
  */
void HardFault_Handler(void)
{
 80009d8:	b480      	push	{r7}
 80009da:	af00      	add	r7, sp, #0
  /* USER CODE BEGIN HardFault_IRQn 0 */

  /* USER CODE END HardFault_IRQn 0 */
  while (1)
 80009dc:	bf00      	nop
 80009de:	e7fd      	b.n	80009dc <HardFault_Handler+0x4>

080009e0 <MemManage_Handler>:

/**
  * @brief This function handles Memory management fault.
  */
void MemManage_Handler(void)
{
 80009e0:	b480      	push	{r7}
 80009e2:	af00      	add	r7, sp, #0
  /* USER CODE BEGIN MemoryManagement_IRQn 0 */

  /* USER CODE END MemoryManagement_IRQn 0 */
  while (1)
 80009e4:	bf00      	nop
 80009e6:	e7fd      	b.n	80009e4 <MemManage_Handler+0x4>

080009e8 <BusFault_Handler>:

/**
  * @brief This function handles Prefetch fault, memory access fault.
  */
void BusFault_Handler(void)
{
 80009e8:	b480      	push	{r7}
 80009ea:	af00      	add	r7, sp, #0
  /* USER CODE BEGIN BusFault_IRQn 0 */

  /* USER CODE END BusFault_IRQn 0 */
  while (1)
 80009ec:	bf00      	nop
 80009ee:	e7fd      	b.n	80009ec <BusFault_Handler+0x4>

080009f0 <UsageFault_Handler>:

/**
  * @brief This function handles Undefined instruction or illegal state.
  */
void UsageFault_Handler(void)
{
 80009f0:	b480      	push	{r7}
 80009f2:	af00      	add	r7, sp, #0
  /* USER CODE BEGIN UsageFault_IRQn 0 */

  /* USER CODE END UsageFault_IRQn 0 */
  while (1)
 80009f4:	bf00      	nop
 80009f6:	e7fd      	b.n	80009f4 <UsageFault_Handler+0x4>

080009f8 <DebugMon_Handler>:

/**
  * @brief This function handles Debug monitor.
  */
void DebugMon_Handler(void)
{
 80009f8:	b480      	push	{r7}
 80009fa:	af00      	add	r7, sp, #0

  /* USER CODE END DebugMonitor_IRQn 0 */
  /* USER CODE BEGIN DebugMonitor_IRQn 1 */

  /* USER CODE END DebugMonitor_IRQn 1 */
}
 80009fc:	bf00      	nop
 80009fe:	46bd      	mov	sp, r7
 8000a00:	f85d 7b04 	ldr.w	r7, [sp], #4
 8000a04:	4770      	bx	lr

08000a06 <SysTick_Handler>:

/**
  * @brief This function handles System tick timer.
  */
void SysTick_Handler(void)
{
 8000a06:	b580      	push	{r7, lr}
 8000a08:	af00      	add	r7, sp, #0
  /* USER CODE BEGIN SysTick_IRQn 0 */

  /* USER CODE END SysTick_IRQn 0 */
  HAL_IncTick();
 8000a0a:	f000 f8d7 	bl	8000bbc <HAL_IncTick>
#if (INCLUDE_xTaskGetSchedulerState == 1 )
  if (xTaskGetSchedulerState() != taskSCHEDULER_NOT_STARTED)
 8000a0e:	f003 fb03 	bl	8004018 <xTaskGetSchedulerState>
 8000a12:	4603      	mov	r3, r0
 8000a14:	2b01      	cmp	r3, #1
 8000a16:	d001      	beq.n	8000a1c <SysTick_Handler+0x16>
  {
#endif /* INCLUDE_xTaskGetSchedulerState */
  xPortSysTickHandler();
 8000a18:	f003 fd46 	bl	80044a8 <xPortSysTickHandler>
  }
#endif /* INCLUDE_xTaskGetSchedulerState */
  /* USER CODE BEGIN SysTick_IRQn 1 */

  /* USER CODE END SysTick_IRQn 1 */
}
 8000a1c:	bf00      	nop
 8000a1e:	bd80      	pop	{r7, pc}

08000a20 <_sbrk>:
 *
 * @param incr Memory size
 * @return Pointer to allocated memory
 */
void *_sbrk(ptrdiff_t incr)
{
 8000a20:	b580      	push	{r7, lr}
 8000a22:	b086      	sub	sp, #24
 8000a24:	af00      	add	r7, sp, #0
 8000a26:	6078      	str	r0, [r7, #4]
  extern uint8_t _end; /* Symbol defined in the linker script */
  extern uint8_t _estack; /* Symbol defined in the linker script */
  extern uint32_t _Min_Stack_Size; /* Symbol defined in the linker script */
  const uint32_t stack_limit = (uint32_t)&_estack - (uint32_t)&_Min_Stack_Size;
 8000a28:	4a14      	ldr	r2, [pc, #80]	@ (8000a7c <_sbrk+0x5c>)
 8000a2a:	4b15      	ldr	r3, [pc, #84]	@ (8000a80 <_sbrk+0x60>)
 8000a2c:	1ad3      	subs	r3, r2, r3
 8000a2e:	617b      	str	r3, [r7, #20]
  const uint8_t *max_heap = (uint8_t *)stack_limit;
 8000a30:	697b      	ldr	r3, [r7, #20]
 8000a32:	613b      	str	r3, [r7, #16]
  uint8_t *prev_heap_end;

  /* Initialize heap end at first call */
  if (NULL == __sbrk_heap_end)
 8000a34:	4b13      	ldr	r3, [pc, #76]	@ (8000a84 <_sbrk+0x64>)
 8000a36:	681b      	ldr	r3, [r3, #0]
 8000a38:	2b00      	cmp	r3, #0
 8000a3a:	d102      	bne.n	8000a42 <_sbrk+0x22>
  {
    __sbrk_heap_end = &_end;
 8000a3c:	4b11      	ldr	r3, [pc, #68]	@ (8000a84 <_sbrk+0x64>)
 8000a3e:	4a12      	ldr	r2, [pc, #72]	@ (8000a88 <_sbrk+0x68>)
 8000a40:	601a      	str	r2, [r3, #0]
  }

  /* Protect heap from growing into the reserved MSP stack */
  if (__sbrk_heap_end + incr > max_heap)
 8000a42:	4b10      	ldr	r3, [pc, #64]	@ (8000a84 <_sbrk+0x64>)
 8000a44:	681a      	ldr	r2, [r3, #0]
 8000a46:	687b      	ldr	r3, [r7, #4]
 8000a48:	4413      	add	r3, r2
 8000a4a:	693a      	ldr	r2, [r7, #16]
 8000a4c:	429a      	cmp	r2, r3
 8000a4e:	d207      	bcs.n	8000a60 <_sbrk+0x40>
  {
    errno = ENOMEM;
 8000a50:	f003 ff92 	bl	8004978 <__errno>
 8000a54:	4603      	mov	r3, r0
 8000a56:	220c      	movs	r2, #12
 8000a58:	601a      	str	r2, [r3, #0]
    return (void *)-1;
 8000a5a:	f04f 33ff 	mov.w	r3, #4294967295
 8000a5e:	e009      	b.n	8000a74 <_sbrk+0x54>
  }

  prev_heap_end = __sbrk_heap_end;
 8000a60:	4b08      	ldr	r3, [pc, #32]	@ (8000a84 <_sbrk+0x64>)
 8000a62:	681b      	ldr	r3, [r3, #0]
 8000a64:	60fb      	str	r3, [r7, #12]
  __sbrk_heap_end += incr;
 8000a66:	4b07      	ldr	r3, [pc, #28]	@ (8000a84 <_sbrk+0x64>)
 8000a68:	681a      	ldr	r2, [r3, #0]
 8000a6a:	687b      	ldr	r3, [r7, #4]
 8000a6c:	4413      	add	r3, r2
 8000a6e:	4a05      	ldr	r2, [pc, #20]	@ (8000a84 <_sbrk+0x64>)
 8000a70:	6013      	str	r3, [r2, #0]

  return (void *)prev_heap_end;
 8000a72:	68fb      	ldr	r3, [r7, #12]
}
 8000a74:	4618      	mov	r0, r3
 8000a76:	3718      	adds	r7, #24
 8000a78:	46bd      	mov	sp, r7
 8000a7a:	bd80      	pop	{r7, pc}
 8000a7c:	20018000 	.word	0x20018000
 8000a80:	00000400 	.word	0x00000400
 8000a84:	2000035c 	.word	0x2000035c
 8000a88:	200011b8 	.word	0x200011b8

08000a8c <SystemInit>:
  * @brief  Setup the microcontroller system.
  * @retval None
  */

void SystemInit(void)
{
 8000a8c:	b480      	push	{r7}
 8000a8e:	af00      	add	r7, sp, #0
  SCB->VTOR = VECT_TAB_BASE_ADDRESS | VECT_TAB_OFFSET;
#endif

  /* FPU settings ------------------------------------------------------------*/
#if (__FPU_PRESENT == 1) && (__FPU_USED == 1)
  SCB->CPACR |= ((3UL << 20U)|(3UL << 22U));  /* set CP10 and CP11 Full Access */
 8000a90:	4b06      	ldr	r3, [pc, #24]	@ (8000aac <SystemInit+0x20>)
 8000a92:	f8d3 3088 	ldr.w	r3, [r3, #136]	@ 0x88
 8000a96:	4a05      	ldr	r2, [pc, #20]	@ (8000aac <SystemInit+0x20>)
 8000a98:	f443 0370 	orr.w	r3, r3, #15728640	@ 0xf00000
 8000a9c:	f8c2 3088 	str.w	r3, [r2, #136]	@ 0x88
#endif
}
 8000aa0:	bf00      	nop
 8000aa2:	46bd      	mov	sp, r7
 8000aa4:	f85d 7b04 	ldr.w	r7, [sp], #4
 8000aa8:	4770      	bx	lr
 8000aaa:	bf00      	nop
 8000aac:	e000ed00 	.word	0xe000ed00

08000ab0 <Reset_Handler>:

    .section	.text.Reset_Handler
	.weak	Reset_Handler
	.type	Reset_Handler, %function
Reset_Handler:
  ldr   sp, =_estack    /* Set stack pointer */
 8000ab0:	f8df d034 	ldr.w	sp, [pc, #52]	@ 8000ae8 <LoopForever+0x2>

/* Call the clock system initialization function.*/
    bl  SystemInit
 8000ab4:	f7ff ffea 	bl	8000a8c <SystemInit>

/* Copy the data segment initializers from flash to SRAM */
  ldr r0, =_sdata
 8000ab8:	480c      	ldr	r0, [pc, #48]	@ (8000aec <LoopForever+0x6>)
  ldr r1, =_edata
 8000aba:	490d      	ldr	r1, [pc, #52]	@ (8000af0 <LoopForever+0xa>)
  ldr r2, =_sidata
 8000abc:	4a0d      	ldr	r2, [pc, #52]	@ (8000af4 <LoopForever+0xe>)
  movs r3, #0
 8000abe:	2300      	movs	r3, #0
  b LoopCopyDataInit
 8000ac0:	e002      	b.n	8000ac8 <LoopCopyDataInit>

08000ac2 <CopyDataInit>:

CopyDataInit:
  ldr r4, [r2, r3]
 8000ac2:	58d4      	ldr	r4, [r2, r3]
  str r4, [r0, r3]
 8000ac4:	50c4      	str	r4, [r0, r3]
  adds r3, r3, #4
 8000ac6:	3304      	adds	r3, #4

08000ac8 <LoopCopyDataInit>:

LoopCopyDataInit:
  adds r4, r0, r3
 8000ac8:	18c4      	adds	r4, r0, r3
  cmp r4, r1
 8000aca:	428c      	cmp	r4, r1
  bcc CopyDataInit
 8000acc:	d3f9      	bcc.n	8000ac2 <CopyDataInit>
  
/* Zero fill the bss segment. */
  ldr r2, =_sbss
 8000ace:	4a0a      	ldr	r2, [pc, #40]	@ (8000af8 <LoopForever+0x12>)
  ldr r4, =_ebss
 8000ad0:	4c0a      	ldr	r4, [pc, #40]	@ (8000afc <LoopForever+0x16>)
  movs r3, #0
 8000ad2:	2300      	movs	r3, #0
  b LoopFillZerobss
 8000ad4:	e001      	b.n	8000ada <LoopFillZerobss>

08000ad6 <FillZerobss>:

FillZerobss:
  str  r3, [r2]
 8000ad6:	6013      	str	r3, [r2, #0]
  adds r2, r2, #4
 8000ad8:	3204      	adds	r2, #4

08000ada <LoopFillZerobss>:

LoopFillZerobss:
  cmp r2, r4
 8000ada:	42a2      	cmp	r2, r4
  bcc FillZerobss
 8000adc:	d3fb      	bcc.n	8000ad6 <FillZerobss>

/* Call static constructors */
    bl __libc_init_array
 8000ade:	f003 ff51 	bl	8004984 <__libc_init_array>
/* Call the application's entry point.*/
	bl	main
 8000ae2:	f7ff fdc9 	bl	8000678 <main>

08000ae6 <LoopForever>:

LoopForever:
    b LoopForever
 8000ae6:	e7fe      	b.n	8000ae6 <LoopForever>
  ldr   sp, =_estack    /* Set stack pointer */
 8000ae8:	20018000 	.word	0x20018000
  ldr r0, =_sdata
 8000aec:	20000000 	.word	0x20000000
  ldr r1, =_edata
 8000af0:	20000060 	.word	0x20000060
  ldr r2, =_sidata
 8000af4:	08005368 	.word	0x08005368
  ldr r2, =_sbss
 8000af8:	20000060 	.word	0x20000060
  ldr r4, =_ebss
 8000afc:	200011b8 	.word	0x200011b8

08000b00 <ADC1_2_IRQHandler>:
 * @retval : None
*/
    .section	.text.Default_Handler,"ax",%progbits
Default_Handler:
Infinite_Loop:
	b	Infinite_Loop
 8000b00:	e7fe      	b.n	8000b00 <ADC1_2_IRQHandler>
	...

08000b04 <HAL_Init>:
  *         each 1ms in the SysTick_Handler() interrupt handler.
  *
  * @retval HAL status
  */
HAL_StatusTypeDef HAL_Init(void)
{
 8000b04:	b580      	push	{r7, lr}
 8000b06:	b082      	sub	sp, #8
 8000b08:	af00      	add	r7, sp, #0
  HAL_StatusTypeDef  status = HAL_OK;
 8000b0a:	2300      	movs	r3, #0
 8000b0c:	71fb      	strb	r3, [r7, #7]
#if (DATA_CACHE_ENABLE == 0)
   __HAL_FLASH_DATA_CACHE_DISABLE();
#endif /* DATA_CACHE_ENABLE */

#if (PREFETCH_ENABLE != 0)
  __HAL_FLASH_PREFETCH_BUFFER_ENABLE();
 8000b0e:	4b0c      	ldr	r3, [pc, #48]	@ (8000b40 <HAL_Init+0x3c>)
 8000b10:	681b      	ldr	r3, [r3, #0]
 8000b12:	4a0b      	ldr	r2, [pc, #44]	@ (8000b40 <HAL_Init+0x3c>)
 8000b14:	f443 7380 	orr.w	r3, r3, #256	@ 0x100
 8000b18:	6013      	str	r3, [r2, #0]
#endif /* PREFETCH_ENABLE */

  /* Set Interrupt Group Priority */
  HAL_NVIC_SetPriorityGrouping(NVIC_PRIORITYGROUP_4);
 8000b1a:	2003      	movs	r0, #3
 8000b1c:	f000 f920 	bl	8000d60 <HAL_NVIC_SetPriorityGrouping>

  /* Use SysTick as time base source and configure 1ms tick (default clock after Reset is MSI) */
  if (HAL_InitTick(TICK_INT_PRIORITY) != HAL_OK)
 8000b20:	200f      	movs	r0, #15
 8000b22:	f000 f80f 	bl	8000b44 <HAL_InitTick>
 8000b26:	4603      	mov	r3, r0
 8000b28:	2b00      	cmp	r3, #0
 8000b2a:	d002      	beq.n	8000b32 <HAL_Init+0x2e>
  {
    status = HAL_ERROR;
 8000b2c:	2301      	movs	r3, #1
 8000b2e:	71fb      	strb	r3, [r7, #7]
 8000b30:	e001      	b.n	8000b36 <HAL_Init+0x32>
  }
  else
  {
    /* Init the low level hardware */
    HAL_MspInit();
 8000b32:	f7ff fec9 	bl	80008c8 <HAL_MspInit>
  }

  /* Return function status */
  return status;
 8000b36:	79fb      	ldrb	r3, [r7, #7]
}
 8000b38:	4618      	mov	r0, r3
 8000b3a:	3708      	adds	r7, #8
 8000b3c:	46bd      	mov	sp, r7
 8000b3e:	bd80      	pop	{r7, pc}
 8000b40:	40022000 	.word	0x40022000

08000b44 <HAL_InitTick>:
  *       implementation  in user file.
  * @param TickPriority  Tick interrupt priority.
  * @retval HAL status
  */
__weak HAL_StatusTypeDef HAL_InitTick(uint32_t TickPriority)
{
 8000b44:	b580      	push	{r7, lr}
 8000b46:	b084      	sub	sp, #16
 8000b48:	af00      	add	r7, sp, #0
 8000b4a:	6078      	str	r0, [r7, #4]
  HAL_StatusTypeDef  status = HAL_OK;
 8000b4c:	2300      	movs	r3, #0
 8000b4e:	73fb      	strb	r3, [r7, #15]

  /* Check uwTickFreq for MisraC 2012 (even if uwTickFreq is a enum type that doesn't take the value zero)*/
  if ((uint32_t)uwTickFreq != 0U)
 8000b50:	4b17      	ldr	r3, [pc, #92]	@ (8000bb0 <HAL_InitTick+0x6c>)
 8000b52:	781b      	ldrb	r3, [r3, #0]
 8000b54:	2b00      	cmp	r3, #0
 8000b56:	d023      	beq.n	8000ba0 <HAL_InitTick+0x5c>
  {
    /*Configure the SysTick to have interrupt in 1ms time basis*/
    if (HAL_SYSTICK_Config(SystemCoreClock / (1000U / (uint32_t)uwTickFreq)) == 0U)
 8000b58:	4b16      	ldr	r3, [pc, #88]	@ (8000bb4 <HAL_InitTick+0x70>)
 8000b5a:	681a      	ldr	r2, [r3, #0]
 8000b5c:	4b14      	ldr	r3, [pc, #80]	@ (8000bb0 <HAL_InitTick+0x6c>)
 8000b5e:	781b      	ldrb	r3, [r3, #0]
 8000b60:	4619      	mov	r1, r3
 8000b62:	f44f 737a 	mov.w	r3, #1000	@ 0x3e8
 8000b66:	fbb3 f3f1 	udiv	r3, r3, r1
 8000b6a:	fbb2 f3f3 	udiv	r3, r2, r3
 8000b6e:	4618      	mov	r0, r3
 8000b70:	f000 f91d 	bl	8000dae <HAL_SYSTICK_Config>
 8000b74:	4603      	mov	r3, r0
 8000b76:	2b00      	cmp	r3, #0
 8000b78:	d10f      	bne.n	8000b9a <HAL_InitTick+0x56>
    {
      /* Configure the SysTick IRQ priority */
      if (TickPriority < (1UL << __NVIC_PRIO_BITS))
 8000b7a:	687b      	ldr	r3, [r7, #4]
 8000b7c:	2b0f      	cmp	r3, #15
 8000b7e:	d809      	bhi.n	8000b94 <HAL_InitTick+0x50>
      {
        HAL_NVIC_SetPriority(SysTick_IRQn, TickPriority, 0U);
 8000b80:	2200      	movs	r2, #0
 8000b82:	6879      	ldr	r1, [r7, #4]
 8000b84:	f04f 30ff 	mov.w	r0, #4294967295
 8000b88:	f000 f8f5 	bl	8000d76 <HAL_NVIC_SetPriority>
        uwTickPrio = TickPriority;
 8000b8c:	4a0a      	ldr	r2, [pc, #40]	@ (8000bb8 <HAL_InitTick+0x74>)
 8000b8e:	687b      	ldr	r3, [r7, #4]
 8000b90:	6013      	str	r3, [r2, #0]
 8000b92:	e007      	b.n	8000ba4 <HAL_InitTick+0x60>
      }
      else
      {
        status = HAL_ERROR;
 8000b94:	2301      	movs	r3, #1
 8000b96:	73fb      	strb	r3, [r7, #15]
 8000b98:	e004      	b.n	8000ba4 <HAL_InitTick+0x60>
      }
    }
    else
    {
      status = HAL_ERROR;
 8000b9a:	2301      	movs	r3, #1
 8000b9c:	73fb      	strb	r3, [r7, #15]
 8000b9e:	e001      	b.n	8000ba4 <HAL_InitTick+0x60>
    }
  }
  else
  {
    status = HAL_ERROR;
 8000ba0:	2301      	movs	r3, #1
 8000ba2:	73fb      	strb	r3, [r7, #15]
  }

  /* Return function status */
  return status;
 8000ba4:	7bfb      	ldrb	r3, [r7, #15]
}
 8000ba6:	4618      	mov	r0, r3
 8000ba8:	3710      	adds	r7, #16
 8000baa:	46bd      	mov	sp, r7
 8000bac:	bd80      	pop	{r7, pc}
 8000bae:	bf00      	nop
 8000bb0:	20000008 	.word	0x20000008
 8000bb4:	20000000 	.word	0x20000000
 8000bb8:	20000004 	.word	0x20000004

08000bbc <HAL_IncTick>:
 * @note This function is declared as __weak to be overwritten in case of other
  *      implementations in user file.
  * @retval None
  */
__weak void HAL_IncTick(void)
{
 8000bbc:	b480      	push	{r7}
 8000bbe:	af00      	add	r7, sp, #0
  uwTick += (uint32_t)uwTickFreq;
 8000bc0:	4b06      	ldr	r3, [pc, #24]	@ (8000bdc <HAL_IncTick+0x20>)
 8000bc2:	781b      	ldrb	r3, [r3, #0]
 8000bc4:	461a      	mov	r2, r3
 8000bc6:	4b06      	ldr	r3, [pc, #24]	@ (8000be0 <HAL_IncTick+0x24>)
 8000bc8:	681b      	ldr	r3, [r3, #0]
 8000bca:	4413      	add	r3, r2
 8000bcc:	4a04      	ldr	r2, [pc, #16]	@ (8000be0 <HAL_IncTick+0x24>)
 8000bce:	6013      	str	r3, [r2, #0]
}
 8000bd0:	bf00      	nop
 8000bd2:	46bd      	mov	sp, r7
 8000bd4:	f85d 7b04 	ldr.w	r7, [sp], #4
 8000bd8:	4770      	bx	lr
 8000bda:	bf00      	nop
 8000bdc:	20000008 	.word	0x20000008
 8000be0:	20000360 	.word	0x20000360

08000be4 <HAL_GetTick>:
  * @note This function is declared as __weak to be overwritten in case of other
  *       implementations in user file.
  * @retval tick value
  */
__weak uint32_t HAL_GetTick(void)
{
 8000be4:	b480      	push	{r7}
 8000be6:	af00      	add	r7, sp, #0
  return uwTick;
 8000be8:	4b03      	ldr	r3, [pc, #12]	@ (8000bf8 <HAL_GetTick+0x14>)
 8000bea:	681b      	ldr	r3, [r3, #0]
}
 8000bec:	4618      	mov	r0, r3
 8000bee:	46bd      	mov	sp, r7
 8000bf0:	f85d 7b04 	ldr.w	r7, [sp], #4
 8000bf4:	4770      	bx	lr
 8000bf6:	bf00      	nop
 8000bf8:	20000360 	.word	0x20000360

08000bfc <__NVIC_SetPriorityGrouping>:
           In case of a conflict between priority grouping and available
           priority bits (__NVIC_PRIO_BITS), the smallest possible priority group is set.
  \param [in]      PriorityGroup  Priority grouping field.
 */
__STATIC_INLINE void __NVIC_SetPriorityGrouping(uint32_t PriorityGroup)
{
 8000bfc:	b480      	push	{r7}
 8000bfe:	b085      	sub	sp, #20
 8000c00:	af00      	add	r7, sp, #0
 8000c02:	6078      	str	r0, [r7, #4]
  uint32_t reg_value;
  uint32_t PriorityGroupTmp = (PriorityGroup & (uint32_t)0x07UL);             /* only values 0..7 are used          */
 8000c04:	687b      	ldr	r3, [r7, #4]
 8000c06:	f003 0307 	and.w	r3, r3, #7
 8000c0a:	60fb      	str	r3, [r7, #12]

  reg_value  =  SCB->AIRCR;                                                   /* read old register configuration    */
 8000c0c:	4b0c      	ldr	r3, [pc, #48]	@ (8000c40 <__NVIC_SetPriorityGrouping+0x44>)
 8000c0e:	68db      	ldr	r3, [r3, #12]
 8000c10:	60bb      	str	r3, [r7, #8]
  reg_value &= ~((uint32_t)(SCB_AIRCR_VECTKEY_Msk | SCB_AIRCR_PRIGROUP_Msk)); /* clear bits to change               */
 8000c12:	68ba      	ldr	r2, [r7, #8]
 8000c14:	f64f 03ff 	movw	r3, #63743	@ 0xf8ff
 8000c18:	4013      	ands	r3, r2
 8000c1a:	60bb      	str	r3, [r7, #8]
  reg_value  =  (reg_value                                   |
                ((uint32_t)0x5FAUL << SCB_AIRCR_VECTKEY_Pos) |
                (PriorityGroupTmp << SCB_AIRCR_PRIGROUP_Pos)  );              /* Insert write key and priority group */
 8000c1c:	68fb      	ldr	r3, [r7, #12]
 8000c1e:	021a      	lsls	r2, r3, #8
                ((uint32_t)0x5FAUL << SCB_AIRCR_VECTKEY_Pos) |
 8000c20:	68bb      	ldr	r3, [r7, #8]
 8000c22:	4313      	orrs	r3, r2
  reg_value  =  (reg_value                                   |
 8000c24:	f043 63bf 	orr.w	r3, r3, #100139008	@ 0x5f80000
 8000c28:	f443 3300 	orr.w	r3, r3, #131072	@ 0x20000
 8000c2c:	60bb      	str	r3, [r7, #8]
  SCB->AIRCR =  reg_value;
 8000c2e:	4a04      	ldr	r2, [pc, #16]	@ (8000c40 <__NVIC_SetPriorityGrouping+0x44>)
 8000c30:	68bb      	ldr	r3, [r7, #8]
 8000c32:	60d3      	str	r3, [r2, #12]
}
 8000c34:	bf00      	nop
 8000c36:	3714      	adds	r7, #20
 8000c38:	46bd      	mov	sp, r7
 8000c3a:	f85d 7b04 	ldr.w	r7, [sp], #4
 8000c3e:	4770      	bx	lr
 8000c40:	e000ed00 	.word	0xe000ed00

08000c44 <__NVIC_GetPriorityGrouping>:
  \brief   Get Priority Grouping
  \details Reads the priority grouping field from the NVIC Interrupt Controller.
  \return                Priority grouping field (SCB->AIRCR [10:8] PRIGROUP field).
 */
__STATIC_INLINE uint32_t __NVIC_GetPriorityGrouping(void)
{
 8000c44:	b480      	push	{r7}
 8000c46:	af00      	add	r7, sp, #0
  return ((uint32_t)((SCB->AIRCR & SCB_AIRCR_PRIGROUP_Msk) >> SCB_AIRCR_PRIGROUP_Pos));
 8000c48:	4b04      	ldr	r3, [pc, #16]	@ (8000c5c <__NVIC_GetPriorityGrouping+0x18>)
 8000c4a:	68db      	ldr	r3, [r3, #12]
 8000c4c:	0a1b      	lsrs	r3, r3, #8
 8000c4e:	f003 0307 	and.w	r3, r3, #7
}
 8000c52:	4618      	mov	r0, r3
 8000c54:	46bd      	mov	sp, r7
 8000c56:	f85d 7b04 	ldr.w	r7, [sp], #4
 8000c5a:	4770      	bx	lr
 8000c5c:	e000ed00 	.word	0xe000ed00

08000c60 <__NVIC_SetPriority>:
  \param [in]      IRQn  Interrupt number.
  \param [in]  priority  Priority to set.
  \note    The priority cannot be set for every processor exception.
 */
__STATIC_INLINE void __NVIC_SetPriority(IRQn_Type IRQn, uint32_t priority)
{
 8000c60:	b480      	push	{r7}
 8000c62:	b083      	sub	sp, #12
 8000c64:	af00      	add	r7, sp, #0
 8000c66:	4603      	mov	r3, r0
 8000c68:	6039      	str	r1, [r7, #0]
 8000c6a:	71fb      	strb	r3, [r7, #7]
  if ((int32_t)(IRQn) >= 0)
 8000c6c:	f997 3007 	ldrsb.w	r3, [r7, #7]
 8000c70:	2b00      	cmp	r3, #0
 8000c72:	db0a      	blt.n	8000c8a <__NVIC_SetPriority+0x2a>
  {
    NVIC->IP[((uint32_t)IRQn)]               = (uint8_t)((priority << (8U - __NVIC_PRIO_BITS)) & (uint32_t)0xFFUL);
 8000c74:	683b      	ldr	r3, [r7, #0]
 8000c76:	b2da      	uxtb	r2, r3
 8000c78:	490c      	ldr	r1, [pc, #48]	@ (8000cac <__NVIC_SetPriority+0x4c>)
 8000c7a:	f997 3007 	ldrsb.w	r3, [r7, #7]
 8000c7e:	0112      	lsls	r2, r2, #4
 8000c80:	b2d2      	uxtb	r2, r2
 8000c82:	440b      	add	r3, r1
 8000c84:	f883 2300 	strb.w	r2, [r3, #768]	@ 0x300
  }
  else
  {
    SCB->SHP[(((uint32_t)IRQn) & 0xFUL)-4UL] = (uint8_t)((priority << (8U - __NVIC_PRIO_BITS)) & (uint32_t)0xFFUL);
  }
}
 8000c88:	e00a      	b.n	8000ca0 <__NVIC_SetPriority+0x40>
    SCB->SHP[(((uint32_t)IRQn) & 0xFUL)-4UL] = (uint8_t)((priority << (8U - __NVIC_PRIO_BITS)) & (uint32_t)0xFFUL);
 8000c8a:	683b      	ldr	r3, [r7, #0]
 8000c8c:	b2da      	uxtb	r2, r3
 8000c8e:	4908      	ldr	r1, [pc, #32]	@ (8000cb0 <__NVIC_SetPriority+0x50>)
 8000c90:	79fb      	ldrb	r3, [r7, #7]
 8000c92:	f003 030f 	and.w	r3, r3, #15
 8000c96:	3b04      	subs	r3, #4
 8000c98:	0112      	lsls	r2, r2, #4
 8000c9a:	b2d2      	uxtb	r2, r2
 8000c9c:	440b      	add	r3, r1
 8000c9e:	761a      	strb	r2, [r3, #24]
}
 8000ca0:	bf00      	nop
 8000ca2:	370c      	adds	r7, #12
 8000ca4:	46bd      	mov	sp, r7
 8000ca6:	f85d 7b04 	ldr.w	r7, [sp], #4
 8000caa:	4770      	bx	lr
 8000cac:	e000e100 	.word	0xe000e100
 8000cb0:	e000ed00 	.word	0xe000ed00

08000cb4 <NVIC_EncodePriority>:
  \param [in]   PreemptPriority  Preemptive priority value (starting from 0).
  \param [in]       SubPriority  Subpriority value (starting from 0).
  \return                        Encoded priority. Value can be used in the function \ref NVIC_SetPriority().
 */
__STATIC_INLINE uint32_t NVIC_EncodePriority (uint32_t PriorityGroup, uint32_t PreemptPriority, uint32_t SubPriority)
{
 8000cb4:	b480      	push	{r7}
 8000cb6:	b089      	sub	sp, #36	@ 0x24
 8000cb8:	af00      	add	r7, sp, #0
 8000cba:	60f8      	str	r0, [r7, #12]
 8000cbc:	60b9      	str	r1, [r7, #8]
 8000cbe:	607a      	str	r2, [r7, #4]
  uint32_t PriorityGroupTmp = (PriorityGroup & (uint32_t)0x07UL);   /* only values 0..7 are used          */
 8000cc0:	68fb      	ldr	r3, [r7, #12]
 8000cc2:	f003 0307 	and.w	r3, r3, #7
 8000cc6:	61fb      	str	r3, [r7, #28]
  uint32_t PreemptPriorityBits;
  uint32_t SubPriorityBits;

  PreemptPriorityBits = ((7UL - PriorityGroupTmp) > (uint32_t)(__NVIC_PRIO_BITS)) ? (uint32_t)(__NVIC_PRIO_BITS) : (uint32_t)(7UL - PriorityGroupTmp);
 8000cc8:	69fb      	ldr	r3, [r7, #28]
 8000cca:	f1c3 0307 	rsb	r3, r3, #7
 8000cce:	2b04      	cmp	r3, #4
 8000cd0:	bf28      	it	cs
 8000cd2:	2304      	movcs	r3, #4
 8000cd4:	61bb      	str	r3, [r7, #24]
  SubPriorityBits     = ((PriorityGroupTmp + (uint32_t)(__NVIC_PRIO_BITS)) < (uint32_t)7UL) ? (uint32_t)0UL : (uint32_t)((PriorityGroupTmp - 7UL) + (uint32_t)(__NVIC_PRIO_BITS));
 8000cd6:	69fb      	ldr	r3, [r7, #28]
 8000cd8:	3304      	adds	r3, #4
 8000cda:	2b06      	cmp	r3, #6
 8000cdc:	d902      	bls.n	8000ce4 <NVIC_EncodePriority+0x30>
 8000cde:	69fb      	ldr	r3, [r7, #28]
 8000ce0:	3b03      	subs	r3, #3
 8000ce2:	e000      	b.n	8000ce6 <NVIC_EncodePriority+0x32>
 8000ce4:	2300      	movs	r3, #0
 8000ce6:	617b      	str	r3, [r7, #20]

  return (
           ((PreemptPriority & (uint32_t)((1UL << (PreemptPriorityBits)) - 1UL)) << SubPriorityBits) |
 8000ce8:	f04f 32ff 	mov.w	r2, #4294967295
 8000cec:	69bb      	ldr	r3, [r7, #24]
 8000cee:	fa02 f303 	lsl.w	r3, r2, r3
 8000cf2:	43da      	mvns	r2, r3
 8000cf4:	68bb      	ldr	r3, [r7, #8]
 8000cf6:	401a      	ands	r2, r3
 8000cf8:	697b      	ldr	r3, [r7, #20]
 8000cfa:	409a      	lsls	r2, r3
           ((SubPriority     & (uint32_t)((1UL << (SubPriorityBits    )) - 1UL)))
 8000cfc:	f04f 31ff 	mov.w	r1, #4294967295
 8000d00:	697b      	ldr	r3, [r7, #20]
 8000d02:	fa01 f303 	lsl.w	r3, r1, r3
 8000d06:	43d9      	mvns	r1, r3
 8000d08:	687b      	ldr	r3, [r7, #4]
 8000d0a:	400b      	ands	r3, r1
           ((PreemptPriority & (uint32_t)((1UL << (PreemptPriorityBits)) - 1UL)) << SubPriorityBits) |
 8000d0c:	4313      	orrs	r3, r2
         );
}
 8000d0e:	4618      	mov	r0, r3
 8000d10:	3724      	adds	r7, #36	@ 0x24
 8000d12:	46bd      	mov	sp, r7
 8000d14:	f85d 7b04 	ldr.w	r7, [sp], #4
 8000d18:	4770      	bx	lr
	...

08000d1c <SysTick_Config>:
  \note    When the variable <b>__Vendor_SysTickConfig</b> is set to 1, then the
           function <b>SysTick_Config</b> is not included. In this case, the file <b><i>device</i>.h</b>
           must contain a vendor-specific implementation of this function.
 */
__STATIC_INLINE uint32_t SysTick_Config(uint32_t ticks)
{
 8000d1c:	b580      	push	{r7, lr}
 8000d1e:	b082      	sub	sp, #8
 8000d20:	af00      	add	r7, sp, #0
 8000d22:	6078      	str	r0, [r7, #4]
  if ((ticks - 1UL) > SysTick_LOAD_RELOAD_Msk)
 8000d24:	687b      	ldr	r3, [r7, #4]
 8000d26:	3b01      	subs	r3, #1
 8000d28:	f1b3 7f80 	cmp.w	r3, #16777216	@ 0x1000000
 8000d2c:	d301      	bcc.n	8000d32 <SysTick_Config+0x16>
  {
    return (1UL);                                                   /* Reload value impossible */
 8000d2e:	2301      	movs	r3, #1
 8000d30:	e00f      	b.n	8000d52 <SysTick_Config+0x36>
  }

  SysTick->LOAD  = (uint32_t)(ticks - 1UL);                         /* set reload register */
 8000d32:	4a0a      	ldr	r2, [pc, #40]	@ (8000d5c <SysTick_Config+0x40>)
 8000d34:	687b      	ldr	r3, [r7, #4]
 8000d36:	3b01      	subs	r3, #1
 8000d38:	6053      	str	r3, [r2, #4]
  NVIC_SetPriority (SysTick_IRQn, (1UL << __NVIC_PRIO_BITS) - 1UL); /* set Priority for Systick Interrupt */
 8000d3a:	210f      	movs	r1, #15
 8000d3c:	f04f 30ff 	mov.w	r0, #4294967295
 8000d40:	f7ff ff8e 	bl	8000c60 <__NVIC_SetPriority>
  SysTick->VAL   = 0UL;                                             /* Load the SysTick Counter Value */
 8000d44:	4b05      	ldr	r3, [pc, #20]	@ (8000d5c <SysTick_Config+0x40>)
 8000d46:	2200      	movs	r2, #0
 8000d48:	609a      	str	r2, [r3, #8]
  SysTick->CTRL  = SysTick_CTRL_CLKSOURCE_Msk |
 8000d4a:	4b04      	ldr	r3, [pc, #16]	@ (8000d5c <SysTick_Config+0x40>)
 8000d4c:	2207      	movs	r2, #7
 8000d4e:	601a      	str	r2, [r3, #0]
                   SysTick_CTRL_TICKINT_Msk   |
                   SysTick_CTRL_ENABLE_Msk;                         /* Enable SysTick IRQ and SysTick Timer */
  return (0UL);                                                     /* Function successful */
 8000d50:	2300      	movs	r3, #0
}
 8000d52:	4618      	mov	r0, r3
 8000d54:	3708      	adds	r7, #8
 8000d56:	46bd      	mov	sp, r7
 8000d58:	bd80      	pop	{r7, pc}
 8000d5a:	bf00      	nop
 8000d5c:	e000e010 	.word	0xe000e010

08000d60 <HAL_NVIC_SetPriorityGrouping>:
  * @note   When the NVIC_PriorityGroup_0 is selected, IRQ pre-emption is no more possible.
  *         The pending IRQ priority will be managed only by the subpriority.
  * @retval None
  */
void HAL_NVIC_SetPriorityGrouping(uint32_t PriorityGroup)
{
 8000d60:	b580      	push	{r7, lr}
 8000d62:	b082      	sub	sp, #8
 8000d64:	af00      	add	r7, sp, #0
 8000d66:	6078      	str	r0, [r7, #4]
  /* Check the parameters */
  assert_param(IS_NVIC_PRIORITY_GROUP(PriorityGroup));

  /* Set the PRIGROUP[10:8] bits according to the PriorityGroup parameter value */
  NVIC_SetPriorityGrouping(PriorityGroup);
 8000d68:	6878      	ldr	r0, [r7, #4]
 8000d6a:	f7ff ff47 	bl	8000bfc <__NVIC_SetPriorityGrouping>
}
 8000d6e:	bf00      	nop
 8000d70:	3708      	adds	r7, #8
 8000d72:	46bd      	mov	sp, r7
 8000d74:	bd80      	pop	{r7, pc}

08000d76 <HAL_NVIC_SetPriority>:
  *         This parameter can be a value between 0 and 15
  *         A lower priority value indicates a higher priority.
  * @retval None
  */
void HAL_NVIC_SetPriority(IRQn_Type IRQn, uint32_t PreemptPriority, uint32_t SubPriority)
{
 8000d76:	b580      	push	{r7, lr}
 8000d78:	b086      	sub	sp, #24
 8000d7a:	af00      	add	r7, sp, #0
 8000d7c:	4603      	mov	r3, r0
 8000d7e:	60b9      	str	r1, [r7, #8]
 8000d80:	607a      	str	r2, [r7, #4]
 8000d82:	73fb      	strb	r3, [r7, #15]
  uint32_t prioritygroup = 0x00;
 8000d84:	2300      	movs	r3, #0
 8000d86:	617b      	str	r3, [r7, #20]

  /* Check the parameters */
  assert_param(IS_NVIC_SUB_PRIORITY(SubPriority));
  assert_param(IS_NVIC_PREEMPTION_PRIORITY(PreemptPriority));

  prioritygroup = NVIC_GetPriorityGrouping();
 8000d88:	f7ff ff5c 	bl	8000c44 <__NVIC_GetPriorityGrouping>
 8000d8c:	6178      	str	r0, [r7, #20]

  NVIC_SetPriority(IRQn, NVIC_EncodePriority(prioritygroup, PreemptPriority, SubPriority));
 8000d8e:	687a      	ldr	r2, [r7, #4]
 8000d90:	68b9      	ldr	r1, [r7, #8]
 8000d92:	6978      	ldr	r0, [r7, #20]
 8000d94:	f7ff ff8e 	bl	8000cb4 <NVIC_EncodePriority>
 8000d98:	4602      	mov	r2, r0
 8000d9a:	f997 300f 	ldrsb.w	r3, [r7, #15]
 8000d9e:	4611      	mov	r1, r2
 8000da0:	4618      	mov	r0, r3
 8000da2:	f7ff ff5d 	bl	8000c60 <__NVIC_SetPriority>
}
 8000da6:	bf00      	nop
 8000da8:	3718      	adds	r7, #24
 8000daa:	46bd      	mov	sp, r7
 8000dac:	bd80      	pop	{r7, pc}

08000dae <HAL_SYSTICK_Config>:
  * @param  TicksNumb: Specifies the ticks Number of ticks between two interrupts.
  * @retval status:  - 0  Function succeeded.
  *                  - 1  Function failed.
  */
uint32_t HAL_SYSTICK_Config(uint32_t TicksNumb)
{
 8000dae:	b580      	push	{r7, lr}
 8000db0:	b082      	sub	sp, #8
 8000db2:	af00      	add	r7, sp, #0
 8000db4:	6078      	str	r0, [r7, #4]
   return SysTick_Config(TicksNumb);
 8000db6:	6878      	ldr	r0, [r7, #4]
 8000db8:	f7ff ffb0 	bl	8000d1c <SysTick_Config>
 8000dbc:	4603      	mov	r3, r0
}
 8000dbe:	4618      	mov	r0, r3
 8000dc0:	3708      	adds	r7, #8
 8000dc2:	46bd      	mov	sp, r7
 8000dc4:	bd80      	pop	{r7, pc}
	...

08000dc8 <HAL_GPIO_Init>:
  * @param  GPIO_Init pointer to a GPIO_InitTypeDef structure that contains
  *         the configuration information for the specified GPIO peripheral.
  * @retval None
  */
void HAL_GPIO_Init(GPIO_TypeDef  *GPIOx, GPIO_InitTypeDef *GPIO_Init)
{
 8000dc8:	b480      	push	{r7}
 8000dca:	b087      	sub	sp, #28
 8000dcc:	af00      	add	r7, sp, #0
 8000dce:	6078      	str	r0, [r7, #4]
 8000dd0:	6039      	str	r1, [r7, #0]
  uint32_t position = 0x00u;
 8000dd2:	2300      	movs	r3, #0
 8000dd4:	617b      	str	r3, [r7, #20]
  assert_param(IS_GPIO_ALL_INSTANCE(GPIOx));
  assert_param(IS_GPIO_PIN(GPIO_Init->Pin));
  assert_param(IS_GPIO_MODE(GPIO_Init->Mode));

  /* Configure the port pins */
  while (((GPIO_Init->Pin) >> position) != 0x00u)
 8000dd6:	e17f      	b.n	80010d8 <HAL_GPIO_Init+0x310>
  {
    /* Get current io position */
    iocurrent = (GPIO_Init->Pin) & (1uL << position);
 8000dd8:	683b      	ldr	r3, [r7, #0]
 8000dda:	681a      	ldr	r2, [r3, #0]
 8000ddc:	2101      	movs	r1, #1
 8000dde:	697b      	ldr	r3, [r7, #20]
 8000de0:	fa01 f303 	lsl.w	r3, r1, r3
 8000de4:	4013      	ands	r3, r2
 8000de6:	60fb      	str	r3, [r7, #12]

    if (iocurrent != 0x00u)
 8000de8:	68fb      	ldr	r3, [r7, #12]
 8000dea:	2b00      	cmp	r3, #0
 8000dec:	f000 8171 	beq.w	80010d2 <HAL_GPIO_Init+0x30a>
    {
      /*--------------------- GPIO Mode Configuration ------------------------*/
      /* In case of Output or Alternate function mode selection */
      if (((GPIO_Init->Mode & GPIO_MODE) == MODE_OUTPUT) || ((GPIO_Init->Mode & GPIO_MODE) == MODE_AF))
 8000df0:	683b      	ldr	r3, [r7, #0]
 8000df2:	685b      	ldr	r3, [r3, #4]
 8000df4:	f003 0303 	and.w	r3, r3, #3
 8000df8:	2b01      	cmp	r3, #1
 8000dfa:	d005      	beq.n	8000e08 <HAL_GPIO_Init+0x40>
 8000dfc:	683b      	ldr	r3, [r7, #0]
 8000dfe:	685b      	ldr	r3, [r3, #4]
 8000e00:	f003 0303 	and.w	r3, r3, #3
 8000e04:	2b02      	cmp	r3, #2
 8000e06:	d130      	bne.n	8000e6a <HAL_GPIO_Init+0xa2>
      {
        /* Check the Speed parameter */
        assert_param(IS_GPIO_SPEED(GPIO_Init->Speed));

        /* Configure the IO Speed */
        temp = GPIOx->OSPEEDR;
 8000e08:	687b      	ldr	r3, [r7, #4]
 8000e0a:	689b      	ldr	r3, [r3, #8]
 8000e0c:	613b      	str	r3, [r7, #16]
        temp &= ~(GPIO_OSPEEDR_OSPEED0 << (position * 2u));
 8000e0e:	697b      	ldr	r3, [r7, #20]
 8000e10:	005b      	lsls	r3, r3, #1
 8000e12:	2203      	movs	r2, #3
 8000e14:	fa02 f303 	lsl.w	r3, r2, r3
 8000e18:	43db      	mvns	r3, r3
 8000e1a:	693a      	ldr	r2, [r7, #16]
 8000e1c:	4013      	ands	r3, r2
 8000e1e:	613b      	str	r3, [r7, #16]
        temp |= (GPIO_Init->Speed << (position * 2u));
 8000e20:	683b      	ldr	r3, [r7, #0]
 8000e22:	68da      	ldr	r2, [r3, #12]
 8000e24:	697b      	ldr	r3, [r7, #20]
 8000e26:	005b      	lsls	r3, r3, #1
 8000e28:	fa02 f303 	lsl.w	r3, r2, r3
 8000e2c:	693a      	ldr	r2, [r7, #16]
 8000e2e:	4313      	orrs	r3, r2
 8000e30:	613b      	str	r3, [r7, #16]
        GPIOx->OSPEEDR = temp;
 8000e32:	687b      	ldr	r3, [r7, #4]
 8000e34:	693a      	ldr	r2, [r7, #16]
 8000e36:	609a      	str	r2, [r3, #8]

        /* Configure the IO Output Type */
        temp = GPIOx->OTYPER;
 8000e38:	687b      	ldr	r3, [r7, #4]
 8000e3a:	685b      	ldr	r3, [r3, #4]
 8000e3c:	613b      	str	r3, [r7, #16]
        temp &= ~(GPIO_OTYPER_OT0 << position) ;
 8000e3e:	2201      	movs	r2, #1
 8000e40:	697b      	ldr	r3, [r7, #20]
 8000e42:	fa02 f303 	lsl.w	r3, r2, r3
 8000e46:	43db      	mvns	r3, r3
 8000e48:	693a      	ldr	r2, [r7, #16]
 8000e4a:	4013      	ands	r3, r2
 8000e4c:	613b      	str	r3, [r7, #16]
        temp |= (((GPIO_Init->Mode & OUTPUT_TYPE) >> OUTPUT_TYPE_Pos) << position);
 8000e4e:	683b      	ldr	r3, [r7, #0]
 8000e50:	685b      	ldr	r3, [r3, #4]
 8000e52:	091b      	lsrs	r3, r3, #4
 8000e54:	f003 0201 	and.w	r2, r3, #1
 8000e58:	697b      	ldr	r3, [r7, #20]
 8000e5a:	fa02 f303 	lsl.w	r3, r2, r3
 8000e5e:	693a      	ldr	r2, [r7, #16]
 8000e60:	4313      	orrs	r3, r2
 8000e62:	613b      	str	r3, [r7, #16]
        GPIOx->OTYPER = temp;
 8000e64:	687b      	ldr	r3, [r7, #4]
 8000e66:	693a      	ldr	r2, [r7, #16]
 8000e68:	605a      	str	r2, [r3, #4]
      }

#if defined(STM32L471xx) || defined(STM32L475xx) || defined(STM32L476xx) || defined(STM32L485xx) || defined(STM32L486xx)

      /* In case of Analog mode, check if ADC control mode is selected */
      if((GPIO_Init->Mode & GPIO_MODE_ANALOG) == GPIO_MODE_ANALOG)
 8000e6a:	683b      	ldr	r3, [r7, #0]
 8000e6c:	685b      	ldr	r3, [r3, #4]
 8000e6e:	f003 0303 	and.w	r3, r3, #3
 8000e72:	2b03      	cmp	r3, #3
 8000e74:	d118      	bne.n	8000ea8 <HAL_GPIO_Init+0xe0>
      {
        /* Configure the IO Output Type */
        temp = GPIOx->ASCR;
 8000e76:	687b      	ldr	r3, [r7, #4]
 8000e78:	6adb      	ldr	r3, [r3, #44]	@ 0x2c
 8000e7a:	613b      	str	r3, [r7, #16]
        temp &= ~(GPIO_ASCR_ASC0 << position) ;
 8000e7c:	2201      	movs	r2, #1
 8000e7e:	697b      	ldr	r3, [r7, #20]
 8000e80:	fa02 f303 	lsl.w	r3, r2, r3
 8000e84:	43db      	mvns	r3, r3
 8000e86:	693a      	ldr	r2, [r7, #16]
 8000e88:	4013      	ands	r3, r2
 8000e8a:	613b      	str	r3, [r7, #16]
        temp |= (((GPIO_Init->Mode & GPIO_MODE_ANALOG_ADC_CONTROL) >> 3) << position);
 8000e8c:	683b      	ldr	r3, [r7, #0]
 8000e8e:	685b      	ldr	r3, [r3, #4]
 8000e90:	08db      	lsrs	r3, r3, #3
 8000e92:	f003 0201 	and.w	r2, r3, #1
 8000e96:	697b      	ldr	r3, [r7, #20]
 8000e98:	fa02 f303 	lsl.w	r3, r2, r3
 8000e9c:	693a      	ldr	r2, [r7, #16]
 8000e9e:	4313      	orrs	r3, r2
 8000ea0:	613b      	str	r3, [r7, #16]
        GPIOx->ASCR = temp;
 8000ea2:	687b      	ldr	r3, [r7, #4]
 8000ea4:	693a      	ldr	r2, [r7, #16]
 8000ea6:	62da      	str	r2, [r3, #44]	@ 0x2c
      }

#endif /* STM32L471xx || STM32L475xx || STM32L476xx || STM32L485xx || STM32L486xx */

      /* Activate the Pull-up or Pull down resistor for the current IO */
      if ((GPIO_Init->Mode & GPIO_MODE) != MODE_ANALOG)
 8000ea8:	683b      	ldr	r3, [r7, #0]
 8000eaa:	685b      	ldr	r3, [r3, #4]
 8000eac:	f003 0303 	and.w	r3, r3, #3
 8000eb0:	2b03      	cmp	r3, #3
 8000eb2:	d017      	beq.n	8000ee4 <HAL_GPIO_Init+0x11c>
      {
        /* Check the Pull parameter */
        assert_param(IS_GPIO_PULL(GPIO_Init->Pull));

        temp = GPIOx->PUPDR;
 8000eb4:	687b      	ldr	r3, [r7, #4]
 8000eb6:	68db      	ldr	r3, [r3, #12]
 8000eb8:	613b      	str	r3, [r7, #16]
        temp &= ~(GPIO_PUPDR_PUPD0 << (position * 2U));
 8000eba:	697b      	ldr	r3, [r7, #20]
 8000ebc:	005b      	lsls	r3, r3, #1
 8000ebe:	2203      	movs	r2, #3
 8000ec0:	fa02 f303 	lsl.w	r3, r2, r3
 8000ec4:	43db      	mvns	r3, r3
 8000ec6:	693a      	ldr	r2, [r7, #16]
 8000ec8:	4013      	ands	r3, r2
 8000eca:	613b      	str	r3, [r7, #16]
        temp |= ((GPIO_Init->Pull) << (position * 2U));
 8000ecc:	683b      	ldr	r3, [r7, #0]
 8000ece:	689a      	ldr	r2, [r3, #8]
 8000ed0:	697b      	ldr	r3, [r7, #20]
 8000ed2:	005b      	lsls	r3, r3, #1
 8000ed4:	fa02 f303 	lsl.w	r3, r2, r3
 8000ed8:	693a      	ldr	r2, [r7, #16]
 8000eda:	4313      	orrs	r3, r2
 8000edc:	613b      	str	r3, [r7, #16]
        GPIOx->PUPDR = temp;
 8000ede:	687b      	ldr	r3, [r7, #4]
 8000ee0:	693a      	ldr	r2, [r7, #16]
 8000ee2:	60da      	str	r2, [r3, #12]
      }

      /* In case of Alternate function mode selection */
      if ((GPIO_Init->Mode & GPIO_MODE) == MODE_AF)
 8000ee4:	683b      	ldr	r3, [r7, #0]
 8000ee6:	685b      	ldr	r3, [r3, #4]
 8000ee8:	f003 0303 	and.w	r3, r3, #3
 8000eec:	2b02      	cmp	r3, #2
 8000eee:	d123      	bne.n	8000f38 <HAL_GPIO_Init+0x170>
        /* Check the Alternate function parameters */
        assert_param(IS_GPIO_AF_INSTANCE(GPIOx));
        assert_param(IS_GPIO_AF(GPIO_Init->Alternate));

        /* Configure Alternate function mapped with the current IO */
        temp = GPIOx->AFR[position >> 3u];
 8000ef0:	697b      	ldr	r3, [r7, #20]
 8000ef2:	08da      	lsrs	r2, r3, #3
 8000ef4:	687b      	ldr	r3, [r7, #4]
 8000ef6:	3208      	adds	r2, #8
 8000ef8:	f853 3022 	ldr.w	r3, [r3, r2, lsl #2]
 8000efc:	613b      	str	r3, [r7, #16]
        temp &= ~(0xFu << ((position & 0x07u) * 4u));
 8000efe:	697b      	ldr	r3, [r7, #20]
 8000f00:	f003 0307 	and.w	r3, r3, #7
 8000f04:	009b      	lsls	r3, r3, #2
 8000f06:	220f      	movs	r2, #15
 8000f08:	fa02 f303 	lsl.w	r3, r2, r3
 8000f0c:	43db      	mvns	r3, r3
 8000f0e:	693a      	ldr	r2, [r7, #16]
 8000f10:	4013      	ands	r3, r2
 8000f12:	613b      	str	r3, [r7, #16]
        temp |= ((GPIO_Init->Alternate) << ((position & 0x07u) * 4u));
 8000f14:	683b      	ldr	r3, [r7, #0]
 8000f16:	691a      	ldr	r2, [r3, #16]
 8000f18:	697b      	ldr	r3, [r7, #20]
 8000f1a:	f003 0307 	and.w	r3, r3, #7
 8000f1e:	009b      	lsls	r3, r3, #2
 8000f20:	fa02 f303 	lsl.w	r3, r2, r3
 8000f24:	693a      	ldr	r2, [r7, #16]
 8000f26:	4313      	orrs	r3, r2
 8000f28:	613b      	str	r3, [r7, #16]
        GPIOx->AFR[position >> 3u] = temp;
 8000f2a:	697b      	ldr	r3, [r7, #20]
 8000f2c:	08da      	lsrs	r2, r3, #3
 8000f2e:	687b      	ldr	r3, [r7, #4]
 8000f30:	3208      	adds	r2, #8
 8000f32:	6939      	ldr	r1, [r7, #16]
 8000f34:	f843 1022 	str.w	r1, [r3, r2, lsl #2]
      }

      /* Configure IO Direction mode (Input, Output, Alternate or Analog) */
      temp = GPIOx->MODER;
 8000f38:	687b      	ldr	r3, [r7, #4]
 8000f3a:	681b      	ldr	r3, [r3, #0]
 8000f3c:	613b      	str	r3, [r7, #16]
      temp &= ~(GPIO_MODER_MODE0 << (position * 2u));
 8000f3e:	697b      	ldr	r3, [r7, #20]
 8000f40:	005b      	lsls	r3, r3, #1
 8000f42:	2203      	movs	r2, #3
 8000f44:	fa02 f303 	lsl.w	r3, r2, r3
 8000f48:	43db      	mvns	r3, r3
 8000f4a:	693a      	ldr	r2, [r7, #16]
 8000f4c:	4013      	ands	r3, r2
 8000f4e:	613b      	str	r3, [r7, #16]
      temp |= ((GPIO_Init->Mode & GPIO_MODE) << (position * 2u));
 8000f50:	683b      	ldr	r3, [r7, #0]
 8000f52:	685b      	ldr	r3, [r3, #4]
 8000f54:	f003 0203 	and.w	r2, r3, #3
 8000f58:	697b      	ldr	r3, [r7, #20]
 8000f5a:	005b      	lsls	r3, r3, #1
 8000f5c:	fa02 f303 	lsl.w	r3, r2, r3
 8000f60:	693a      	ldr	r2, [r7, #16]
 8000f62:	4313      	orrs	r3, r2
 8000f64:	613b      	str	r3, [r7, #16]
      GPIOx->MODER = temp;
 8000f66:	687b      	ldr	r3, [r7, #4]
 8000f68:	693a      	ldr	r2, [r7, #16]
 8000f6a:	601a      	str	r2, [r3, #0]

      /*--------------------- EXTI Mode Configuration ------------------------*/
      /* Configure the External Interrupt or event for the current IO */
      if ((GPIO_Init->Mode & EXTI_MODE) != 0x00u)
 8000f6c:	683b      	ldr	r3, [r7, #0]
 8000f6e:	685b      	ldr	r3, [r3, #4]
 8000f70:	f403 3340 	and.w	r3, r3, #196608	@ 0x30000
 8000f74:	2b00      	cmp	r3, #0
 8000f76:	f000 80ac 	beq.w	80010d2 <HAL_GPIO_Init+0x30a>
      {
        /* Enable SYSCFG Clock */
        __HAL_RCC_SYSCFG_CLK_ENABLE();
 8000f7a:	4b5f      	ldr	r3, [pc, #380]	@ (80010f8 <HAL_GPIO_Init+0x330>)
 8000f7c:	6e1b      	ldr	r3, [r3, #96]	@ 0x60
 8000f7e:	4a5e      	ldr	r2, [pc, #376]	@ (80010f8 <HAL_GPIO_Init+0x330>)
 8000f80:	f043 0301 	orr.w	r3, r3, #1
 8000f84:	6613      	str	r3, [r2, #96]	@ 0x60
 8000f86:	4b5c      	ldr	r3, [pc, #368]	@ (80010f8 <HAL_GPIO_Init+0x330>)
 8000f88:	6e1b      	ldr	r3, [r3, #96]	@ 0x60
 8000f8a:	f003 0301 	and.w	r3, r3, #1
 8000f8e:	60bb      	str	r3, [r7, #8]
 8000f90:	68bb      	ldr	r3, [r7, #8]

        temp = SYSCFG->EXTICR[position >> 2u];
 8000f92:	4a5a      	ldr	r2, [pc, #360]	@ (80010fc <HAL_GPIO_Init+0x334>)
 8000f94:	697b      	ldr	r3, [r7, #20]
 8000f96:	089b      	lsrs	r3, r3, #2
 8000f98:	3302      	adds	r3, #2
 8000f9a:	f852 3023 	ldr.w	r3, [r2, r3, lsl #2]
 8000f9e:	613b      	str	r3, [r7, #16]
        temp &= ~(0x0FuL << (4u * (position & 0x03u)));
 8000fa0:	697b      	ldr	r3, [r7, #20]
 8000fa2:	f003 0303 	and.w	r3, r3, #3
 8000fa6:	009b      	lsls	r3, r3, #2
 8000fa8:	220f      	movs	r2, #15
 8000faa:	fa02 f303 	lsl.w	r3, r2, r3
 8000fae:	43db      	mvns	r3, r3
 8000fb0:	693a      	ldr	r2, [r7, #16]
 8000fb2:	4013      	ands	r3, r2
 8000fb4:	613b      	str	r3, [r7, #16]
        temp |= (GPIO_GET_INDEX(GPIOx) << (4u * (position & 0x03u)));
 8000fb6:	687b      	ldr	r3, [r7, #4]
 8000fb8:	f1b3 4f90 	cmp.w	r3, #1207959552	@ 0x48000000
 8000fbc:	d025      	beq.n	800100a <HAL_GPIO_Init+0x242>
 8000fbe:	687b      	ldr	r3, [r7, #4]
 8000fc0:	4a4f      	ldr	r2, [pc, #316]	@ (8001100 <HAL_GPIO_Init+0x338>)
 8000fc2:	4293      	cmp	r3, r2
 8000fc4:	d01f      	beq.n	8001006 <HAL_GPIO_Init+0x23e>
 8000fc6:	687b      	ldr	r3, [r7, #4]
 8000fc8:	4a4e      	ldr	r2, [pc, #312]	@ (8001104 <HAL_GPIO_Init+0x33c>)
 8000fca:	4293      	cmp	r3, r2
 8000fcc:	d019      	beq.n	8001002 <HAL_GPIO_Init+0x23a>
 8000fce:	687b      	ldr	r3, [r7, #4]
 8000fd0:	4a4d      	ldr	r2, [pc, #308]	@ (8001108 <HAL_GPIO_Init+0x340>)
 8000fd2:	4293      	cmp	r3, r2
 8000fd4:	d013      	beq.n	8000ffe <HAL_GPIO_Init+0x236>
 8000fd6:	687b      	ldr	r3, [r7, #4]
 8000fd8:	4a4c      	ldr	r2, [pc, #304]	@ (800110c <HAL_GPIO_Init+0x344>)
 8000fda:	4293      	cmp	r3, r2
 8000fdc:	d00d      	beq.n	8000ffa <HAL_GPIO_Init+0x232>
 8000fde:	687b      	ldr	r3, [r7, #4]
 8000fe0:	4a4b      	ldr	r2, [pc, #300]	@ (8001110 <HAL_GPIO_Init+0x348>)
 8000fe2:	4293      	cmp	r3, r2
 8000fe4:	d007      	beq.n	8000ff6 <HAL_GPIO_Init+0x22e>
 8000fe6:	687b      	ldr	r3, [r7, #4]
 8000fe8:	4a4a      	ldr	r2, [pc, #296]	@ (8001114 <HAL_GPIO_Init+0x34c>)
 8000fea:	4293      	cmp	r3, r2
 8000fec:	d101      	bne.n	8000ff2 <HAL_GPIO_Init+0x22a>
 8000fee:	2306      	movs	r3, #6
 8000ff0:	e00c      	b.n	800100c <HAL_GPIO_Init+0x244>
 8000ff2:	2307      	movs	r3, #7
 8000ff4:	e00a      	b.n	800100c <HAL_GPIO_Init+0x244>
 8000ff6:	2305      	movs	r3, #5
 8000ff8:	e008      	b.n	800100c <HAL_GPIO_Init+0x244>
 8000ffa:	2304      	movs	r3, #4
 8000ffc:	e006      	b.n	800100c <HAL_GPIO_Init+0x244>
 8000ffe:	2303      	movs	r3, #3
 8001000:	e004      	b.n	800100c <HAL_GPIO_Init+0x244>
 8001002:	2302      	movs	r3, #2
 8001004:	e002      	b.n	800100c <HAL_GPIO_Init+0x244>
 8001006:	2301      	movs	r3, #1
 8001008:	e000      	b.n	800100c <HAL_GPIO_Init+0x244>
 800100a:	2300      	movs	r3, #0
 800100c:	697a      	ldr	r2, [r7, #20]
 800100e:	f002 0203 	and.w	r2, r2, #3
 8001012:	0092      	lsls	r2, r2, #2
 8001014:	4093      	lsls	r3, r2
 8001016:	693a      	ldr	r2, [r7, #16]
 8001018:	4313      	orrs	r3, r2
 800101a:	613b      	str	r3, [r7, #16]
        SYSCFG->EXTICR[position >> 2u] = temp;
 800101c:	4937      	ldr	r1, [pc, #220]	@ (80010fc <HAL_GPIO_Init+0x334>)
 800101e:	697b      	ldr	r3, [r7, #20]
 8001020:	089b      	lsrs	r3, r3, #2
 8001022:	3302      	adds	r3, #2
 8001024:	693a      	ldr	r2, [r7, #16]
 8001026:	f841 2023 	str.w	r2, [r1, r3, lsl #2]

        /* Clear Rising Falling edge configuration */
        temp = EXTI->RTSR1;
 800102a:	4b3b      	ldr	r3, [pc, #236]	@ (8001118 <HAL_GPIO_Init+0x350>)
 800102c:	689b      	ldr	r3, [r3, #8]
 800102e:	613b      	str	r3, [r7, #16]
        temp &= ~(iocurrent);
 8001030:	68fb      	ldr	r3, [r7, #12]
 8001032:	43db      	mvns	r3, r3
 8001034:	693a      	ldr	r2, [r7, #16]
 8001036:	4013      	ands	r3, r2
 8001038:	613b      	str	r3, [r7, #16]
        if ((GPIO_Init->Mode & TRIGGER_RISING) != 0x00u)
 800103a:	683b      	ldr	r3, [r7, #0]
 800103c:	685b      	ldr	r3, [r3, #4]
 800103e:	f403 1380 	and.w	r3, r3, #1048576	@ 0x100000
 8001042:	2b00      	cmp	r3, #0
 8001044:	d003      	beq.n	800104e <HAL_GPIO_Init+0x286>
        {
          temp |= iocurrent;
 8001046:	693a      	ldr	r2, [r7, #16]
 8001048:	68fb      	ldr	r3, [r7, #12]
 800104a:	4313      	orrs	r3, r2
 800104c:	613b      	str	r3, [r7, #16]
        }
        EXTI->RTSR1 = temp;
 800104e:	4a32      	ldr	r2, [pc, #200]	@ (8001118 <HAL_GPIO_Init+0x350>)
 8001050:	693b      	ldr	r3, [r7, #16]
 8001052:	6093      	str	r3, [r2, #8]

        temp = EXTI->FTSR1;
 8001054:	4b30      	ldr	r3, [pc, #192]	@ (8001118 <HAL_GPIO_Init+0x350>)
 8001056:	68db      	ldr	r3, [r3, #12]
 8001058:	613b      	str	r3, [r7, #16]
        temp &= ~(iocurrent);
 800105a:	68fb      	ldr	r3, [r7, #12]
 800105c:	43db      	mvns	r3, r3
 800105e:	693a      	ldr	r2, [r7, #16]
 8001060:	4013      	ands	r3, r2
 8001062:	613b      	str	r3, [r7, #16]
        if ((GPIO_Init->Mode & TRIGGER_FALLING) != 0x00u)
 8001064:	683b      	ldr	r3, [r7, #0]
 8001066:	685b      	ldr	r3, [r3, #4]
 8001068:	f403 1300 	and.w	r3, r3, #2097152	@ 0x200000
 800106c:	2b00      	cmp	r3, #0
 800106e:	d003      	beq.n	8001078 <HAL_GPIO_Init+0x2b0>
        {
          temp |= iocurrent;
 8001070:	693a      	ldr	r2, [r7, #16]
 8001072:	68fb      	ldr	r3, [r7, #12]
 8001074:	4313      	orrs	r3, r2
 8001076:	613b      	str	r3, [r7, #16]
        }
        EXTI->FTSR1 = temp;
 8001078:	4a27      	ldr	r2, [pc, #156]	@ (8001118 <HAL_GPIO_Init+0x350>)
 800107a:	693b      	ldr	r3, [r7, #16]
 800107c:	60d3      	str	r3, [r2, #12]

        /* Clear EXTI line configuration */
        temp = EXTI->EMR1;
 800107e:	4b26      	ldr	r3, [pc, #152]	@ (8001118 <HAL_GPIO_Init+0x350>)
 8001080:	685b      	ldr	r3, [r3, #4]
 8001082:	613b      	str	r3, [r7, #16]
        temp &= ~(iocurrent);
 8001084:	68fb      	ldr	r3, [r7, #12]
 8001086:	43db      	mvns	r3, r3
 8001088:	693a      	ldr	r2, [r7, #16]
 800108a:	4013      	ands	r3, r2
 800108c:	613b      	str	r3, [r7, #16]
        if ((GPIO_Init->Mode & EXTI_EVT) != 0x00u)
 800108e:	683b      	ldr	r3, [r7, #0]
 8001090:	685b      	ldr	r3, [r3, #4]
 8001092:	f403 3300 	and.w	r3, r3, #131072	@ 0x20000
 8001096:	2b00      	cmp	r3, #0
 8001098:	d003      	beq.n	80010a2 <HAL_GPIO_Init+0x2da>
        {
          temp |= iocurrent;
 800109a:	693a      	ldr	r2, [r7, #16]
 800109c:	68fb      	ldr	r3, [r7, #12]
 800109e:	4313      	orrs	r3, r2
 80010a0:	613b      	str	r3, [r7, #16]
        }
        EXTI->EMR1 = temp;
 80010a2:	4a1d      	ldr	r2, [pc, #116]	@ (8001118 <HAL_GPIO_Init+0x350>)
 80010a4:	693b      	ldr	r3, [r7, #16]
 80010a6:	6053      	str	r3, [r2, #4]

        temp = EXTI->IMR1;
 80010a8:	4b1b      	ldr	r3, [pc, #108]	@ (8001118 <HAL_GPIO_Init+0x350>)
 80010aa:	681b      	ldr	r3, [r3, #0]
 80010ac:	613b      	str	r3, [r7, #16]
        temp &= ~(iocurrent);
 80010ae:	68fb      	ldr	r3, [r7, #12]
 80010b0:	43db      	mvns	r3, r3
 80010b2:	693a      	ldr	r2, [r7, #16]
 80010b4:	4013      	ands	r3, r2
 80010b6:	613b      	str	r3, [r7, #16]
        if ((GPIO_Init->Mode & EXTI_IT) != 0x00u)
 80010b8:	683b      	ldr	r3, [r7, #0]
 80010ba:	685b      	ldr	r3, [r3, #4]
 80010bc:	f403 3380 	and.w	r3, r3, #65536	@ 0x10000
 80010c0:	2b00      	cmp	r3, #0
 80010c2:	d003      	beq.n	80010cc <HAL_GPIO_Init+0x304>
        {
          temp |= iocurrent;
 80010c4:	693a      	ldr	r2, [r7, #16]
 80010c6:	68fb      	ldr	r3, [r7, #12]
 80010c8:	4313      	orrs	r3, r2
 80010ca:	613b      	str	r3, [r7, #16]
        }
        EXTI->IMR1 = temp;
 80010cc:	4a12      	ldr	r2, [pc, #72]	@ (8001118 <HAL_GPIO_Init+0x350>)
 80010ce:	693b      	ldr	r3, [r7, #16]
 80010d0:	6013      	str	r3, [r2, #0]
      }
    }

    position++;
 80010d2:	697b      	ldr	r3, [r7, #20]
 80010d4:	3301      	adds	r3, #1
 80010d6:	617b      	str	r3, [r7, #20]
  while (((GPIO_Init->Pin) >> position) != 0x00u)
 80010d8:	683b      	ldr	r3, [r7, #0]
 80010da:	681a      	ldr	r2, [r3, #0]
 80010dc:	697b      	ldr	r3, [r7, #20]
 80010de:	fa22 f303 	lsr.w	r3, r2, r3
 80010e2:	2b00      	cmp	r3, #0
 80010e4:	f47f ae78 	bne.w	8000dd8 <HAL_GPIO_Init+0x10>
  }
}
 80010e8:	bf00      	nop
 80010ea:	bf00      	nop
 80010ec:	371c      	adds	r7, #28
 80010ee:	46bd      	mov	sp, r7
 80010f0:	f85d 7b04 	ldr.w	r7, [sp], #4
 80010f4:	4770      	bx	lr
 80010f6:	bf00      	nop
 80010f8:	40021000 	.word	0x40021000
 80010fc:	40010000 	.word	0x40010000
 8001100:	48000400 	.word	0x48000400
 8001104:	48000800 	.word	0x48000800
 8001108:	48000c00 	.word	0x48000c00
 800110c:	48001000 	.word	0x48001000
 8001110:	48001400 	.word	0x48001400
 8001114:	48001800 	.word	0x48001800
 8001118:	40010400 	.word	0x40010400

0800111c <HAL_GPIO_WritePin>:
  *            @arg GPIO_PIN_RESET: to clear the port pin
  *            @arg GPIO_PIN_SET: to set the port pin
  * @retval None
  */
void HAL_GPIO_WritePin(GPIO_TypeDef* GPIOx, uint16_t GPIO_Pin, GPIO_PinState PinState)
{
 800111c:	b480      	push	{r7}
 800111e:	b083      	sub	sp, #12
 8001120:	af00      	add	r7, sp, #0
 8001122:	6078      	str	r0, [r7, #4]
 8001124:	460b      	mov	r3, r1
 8001126:	807b      	strh	r3, [r7, #2]
 8001128:	4613      	mov	r3, r2
 800112a:	707b      	strb	r3, [r7, #1]
  /* Check the parameters */
  assert_param(IS_GPIO_PIN(GPIO_Pin));
  assert_param(IS_GPIO_PIN_ACTION(PinState));

  if(PinState != GPIO_PIN_RESET)
 800112c:	787b      	ldrb	r3, [r7, #1]
 800112e:	2b00      	cmp	r3, #0
 8001130:	d003      	beq.n	800113a <HAL_GPIO_WritePin+0x1e>
  {
    GPIOx->BSRR = (uint32_t)GPIO_Pin;
 8001132:	887a      	ldrh	r2, [r7, #2]
 8001134:	687b      	ldr	r3, [r7, #4]
 8001136:	619a      	str	r2, [r3, #24]
  }
  else
  {
    GPIOx->BRR = (uint32_t)GPIO_Pin;
  }
}
 8001138:	e002      	b.n	8001140 <HAL_GPIO_WritePin+0x24>
    GPIOx->BRR = (uint32_t)GPIO_Pin;
 800113a:	887a      	ldrh	r2, [r7, #2]
 800113c:	687b      	ldr	r3, [r7, #4]
 800113e:	629a      	str	r2, [r3, #40]	@ 0x28
}
 8001140:	bf00      	nop
 8001142:	370c      	adds	r7, #12
 8001144:	46bd      	mov	sp, r7
 8001146:	f85d 7b04 	ldr.w	r7, [sp], #4
 800114a:	4770      	bx	lr

0800114c <HAL_PWREx_GetVoltageRange>:
  * @brief Return Voltage Scaling Range.
  * @retval VOS bit field (PWR_REGULATOR_VOLTAGE_SCALE1 or PWR_REGULATOR_VOLTAGE_SCALE2
  *         or PWR_REGULATOR_VOLTAGE_SCALE1_BOOST when applicable)
  */
uint32_t HAL_PWREx_GetVoltageRange(void)
{
 800114c:	b480      	push	{r7}
 800114e:	af00      	add	r7, sp, #0
    else
    {
      return PWR_REGULATOR_VOLTAGE_SCALE1_BOOST;
    }
#else
  return  (PWR->CR1 & PWR_CR1_VOS);
 8001150:	4b04      	ldr	r3, [pc, #16]	@ (8001164 <HAL_PWREx_GetVoltageRange+0x18>)
 8001152:	681b      	ldr	r3, [r3, #0]
 8001154:	f403 63c0 	and.w	r3, r3, #1536	@ 0x600
#endif
}
 8001158:	4618      	mov	r0, r3
 800115a:	46bd      	mov	sp, r7
 800115c:	f85d 7b04 	ldr.w	r7, [sp], #4
 8001160:	4770      	bx	lr
 8001162:	bf00      	nop
 8001164:	40007000 	.word	0x40007000

08001168 <HAL_PWREx_ControlVoltageScaling>:
  *        cleared before returning the status. If the flag is not cleared within
  *        50 microseconds, HAL_TIMEOUT status is reported.
  * @retval HAL Status
  */
HAL_StatusTypeDef HAL_PWREx_ControlVoltageScaling(uint32_t VoltageScaling)
{
 8001168:	b480      	push	{r7}
 800116a:	b085      	sub	sp, #20
 800116c:	af00      	add	r7, sp, #0
 800116e:	6078      	str	r0, [r7, #4]
  }

#else

  /* If Set Range 1 */
  if (VoltageScaling == PWR_REGULATOR_VOLTAGE_SCALE1)
 8001170:	687b      	ldr	r3, [r7, #4]
 8001172:	f5b3 7f00 	cmp.w	r3, #512	@ 0x200
 8001176:	d130      	bne.n	80011da <HAL_PWREx_ControlVoltageScaling+0x72>
  {
    if (READ_BIT(PWR->CR1, PWR_CR1_VOS) != PWR_REGULATOR_VOLTAGE_SCALE1)
 8001178:	4b23      	ldr	r3, [pc, #140]	@ (8001208 <HAL_PWREx_ControlVoltageScaling+0xa0>)
 800117a:	681b      	ldr	r3, [r3, #0]
 800117c:	f403 63c0 	and.w	r3, r3, #1536	@ 0x600
 8001180:	f5b3 7f00 	cmp.w	r3, #512	@ 0x200
 8001184:	d038      	beq.n	80011f8 <HAL_PWREx_ControlVoltageScaling+0x90>
    {
      /* Set Range 1 */
      MODIFY_REG(PWR->CR1, PWR_CR1_VOS, PWR_REGULATOR_VOLTAGE_SCALE1);
 8001186:	4b20      	ldr	r3, [pc, #128]	@ (8001208 <HAL_PWREx_ControlVoltageScaling+0xa0>)
 8001188:	681b      	ldr	r3, [r3, #0]
 800118a:	f423 63c0 	bic.w	r3, r3, #1536	@ 0x600
 800118e:	4a1e      	ldr	r2, [pc, #120]	@ (8001208 <HAL_PWREx_ControlVoltageScaling+0xa0>)
 8001190:	f443 7300 	orr.w	r3, r3, #512	@ 0x200
 8001194:	6013      	str	r3, [r2, #0]

      /* Wait until VOSF is cleared */
      wait_loop_index = ((PWR_FLAG_SETTING_DELAY_US * SystemCoreClock) / 1000000U) + 1U;
 8001196:	4b1d      	ldr	r3, [pc, #116]	@ (800120c <HAL_PWREx_ControlVoltageScaling+0xa4>)
 8001198:	681b      	ldr	r3, [r3, #0]
 800119a:	2232      	movs	r2, #50	@ 0x32
 800119c:	fb02 f303 	mul.w	r3, r2, r3
 80011a0:	4a1b      	ldr	r2, [pc, #108]	@ (8001210 <HAL_PWREx_ControlVoltageScaling+0xa8>)
 80011a2:	fba2 2303 	umull	r2, r3, r2, r3
 80011a6:	0c9b      	lsrs	r3, r3, #18
 80011a8:	3301      	adds	r3, #1
 80011aa:	60fb      	str	r3, [r7, #12]
      while ((HAL_IS_BIT_SET(PWR->SR2, PWR_SR2_VOSF)) && (wait_loop_index != 0U))
 80011ac:	e002      	b.n	80011b4 <HAL_PWREx_ControlVoltageScaling+0x4c>
      {
        wait_loop_index--;
 80011ae:	68fb      	ldr	r3, [r7, #12]
 80011b0:	3b01      	subs	r3, #1
 80011b2:	60fb      	str	r3, [r7, #12]
      while ((HAL_IS_BIT_SET(PWR->SR2, PWR_SR2_VOSF)) && (wait_loop_index != 0U))
 80011b4:	4b14      	ldr	r3, [pc, #80]	@ (8001208 <HAL_PWREx_ControlVoltageScaling+0xa0>)
 80011b6:	695b      	ldr	r3, [r3, #20]
 80011b8:	f403 6380 	and.w	r3, r3, #1024	@ 0x400
 80011bc:	f5b3 6f80 	cmp.w	r3, #1024	@ 0x400
 80011c0:	d102      	bne.n	80011c8 <HAL_PWREx_ControlVoltageScaling+0x60>
 80011c2:	68fb      	ldr	r3, [r7, #12]
 80011c4:	2b00      	cmp	r3, #0
 80011c6:	d1f2      	bne.n	80011ae <HAL_PWREx_ControlVoltageScaling+0x46>
      }
      if (HAL_IS_BIT_SET(PWR->SR2, PWR_SR2_VOSF))
 80011c8:	4b0f      	ldr	r3, [pc, #60]	@ (8001208 <HAL_PWREx_ControlVoltageScaling+0xa0>)
 80011ca:	695b      	ldr	r3, [r3, #20]
 80011cc:	f403 6380 	and.w	r3, r3, #1024	@ 0x400
 80011d0:	f5b3 6f80 	cmp.w	r3, #1024	@ 0x400
 80011d4:	d110      	bne.n	80011f8 <HAL_PWREx_ControlVoltageScaling+0x90>
      {
        return HAL_TIMEOUT;
 80011d6:	2303      	movs	r3, #3
 80011d8:	e00f      	b.n	80011fa <HAL_PWREx_ControlVoltageScaling+0x92>
      }
    }
  }
  else
  {
    if (READ_BIT(PWR->CR1, PWR_CR1_VOS) != PWR_REGULATOR_VOLTAGE_SCALE2)
 80011da:	4b0b      	ldr	r3, [pc, #44]	@ (8001208 <HAL_PWREx_ControlVoltageScaling+0xa0>)
 80011dc:	681b      	ldr	r3, [r3, #0]
 80011de:	f403 63c0 	and.w	r3, r3, #1536	@ 0x600
 80011e2:	f5b3 6f80 	cmp.w	r3, #1024	@ 0x400
 80011e6:	d007      	beq.n	80011f8 <HAL_PWREx_ControlVoltageScaling+0x90>
    {
      /* Set Range 2 */
      MODIFY_REG(PWR->CR1, PWR_CR1_VOS, PWR_REGULATOR_VOLTAGE_SCALE2);
 80011e8:	4b07      	ldr	r3, [pc, #28]	@ (8001208 <HAL_PWREx_ControlVoltageScaling+0xa0>)
 80011ea:	681b      	ldr	r3, [r3, #0]
 80011ec:	f423 63c0 	bic.w	r3, r3, #1536	@ 0x600
 80011f0:	4a05      	ldr	r2, [pc, #20]	@ (8001208 <HAL_PWREx_ControlVoltageScaling+0xa0>)
 80011f2:	f443 6380 	orr.w	r3, r3, #1024	@ 0x400
 80011f6:	6013      	str	r3, [r2, #0]
      /* No need to wait for VOSF to be cleared for this transition */
    }
  }
#endif

  return HAL_OK;
 80011f8:	2300      	movs	r3, #0
}
 80011fa:	4618      	mov	r0, r3
 80011fc:	3714      	adds	r7, #20
 80011fe:	46bd      	mov	sp, r7
 8001200:	f85d 7b04 	ldr.w	r7, [sp], #4
 8001204:	4770      	bx	lr
 8001206:	bf00      	nop
 8001208:	40007000 	.word	0x40007000
 800120c:	20000000 	.word	0x20000000
 8001210:	431bde83 	.word	0x431bde83

08001214 <HAL_RCC_OscConfig>:
  * @note   If HSE failed to start, HSE should be disabled before recalling
            HAL_RCC_OscConfig().
  * @retval HAL status
  */
HAL_StatusTypeDef HAL_RCC_OscConfig(RCC_OscInitTypeDef  *RCC_OscInitStruct)
{
 8001214:	b580      	push	{r7, lr}
 8001216:	b088      	sub	sp, #32
 8001218:	af00      	add	r7, sp, #0
 800121a:	6078      	str	r0, [r7, #4]
  uint32_t tickstart;
  HAL_StatusTypeDef status;
  uint32_t sysclk_source, pll_config;

  /* Check Null pointer */
  if(RCC_OscInitStruct == NULL)
 800121c:	687b      	ldr	r3, [r7, #4]
 800121e:	2b00      	cmp	r3, #0
 8001220:	d101      	bne.n	8001226 <HAL_RCC_OscConfig+0x12>
  {
    return HAL_ERROR;
 8001222:	2301      	movs	r3, #1
 8001224:	e3ca      	b.n	80019bc <HAL_RCC_OscConfig+0x7a8>
  }

  /* Check the parameters */
  assert_param(IS_RCC_OSCILLATORTYPE(RCC_OscInitStruct->OscillatorType));

  sysclk_source = __HAL_RCC_GET_SYSCLK_SOURCE();
 8001226:	4b97      	ldr	r3, [pc, #604]	@ (8001484 <HAL_RCC_OscConfig+0x270>)
 8001228:	689b      	ldr	r3, [r3, #8]
 800122a:	f003 030c 	and.w	r3, r3, #12
 800122e:	61bb      	str	r3, [r7, #24]
  pll_config = __HAL_RCC_GET_PLL_OSCSOURCE();
 8001230:	4b94      	ldr	r3, [pc, #592]	@ (8001484 <HAL_RCC_OscConfig+0x270>)
 8001232:	68db      	ldr	r3, [r3, #12]
 8001234:	f003 0303 	and.w	r3, r3, #3
 8001238:	617b      	str	r3, [r7, #20]

  /*----------------------------- MSI Configuration --------------------------*/
  if(((RCC_OscInitStruct->OscillatorType) & RCC_OSCILLATORTYPE_MSI) == RCC_OSCILLATORTYPE_MSI)
 800123a:	687b      	ldr	r3, [r7, #4]
 800123c:	681b      	ldr	r3, [r3, #0]
 800123e:	f003 0310 	and.w	r3, r3, #16
 8001242:	2b00      	cmp	r3, #0
 8001244:	f000 80e4 	beq.w	8001410 <HAL_RCC_OscConfig+0x1fc>
    assert_param(IS_RCC_MSI(RCC_OscInitStruct->MSIState));
    assert_param(IS_RCC_MSICALIBRATION_VALUE(RCC_OscInitStruct->MSICalibrationValue));
    assert_param(IS_RCC_MSI_CLOCK_RANGE(RCC_OscInitStruct->MSIClockRange));

    /* Check if MSI is used as system clock or as PLL source when PLL is selected as system clock */
    if((sysclk_source == RCC_CFGR_SWS_MSI) ||
 8001248:	69bb      	ldr	r3, [r7, #24]
 800124a:	2b00      	cmp	r3, #0
 800124c:	d007      	beq.n	800125e <HAL_RCC_OscConfig+0x4a>
 800124e:	69bb      	ldr	r3, [r7, #24]
 8001250:	2b0c      	cmp	r3, #12
 8001252:	f040 808b 	bne.w	800136c <HAL_RCC_OscConfig+0x158>
       ((sysclk_source == RCC_CFGR_SWS_PLL) && (pll_config == RCC_PLLSOURCE_MSI)))
 8001256:	697b      	ldr	r3, [r7, #20]
 8001258:	2b01      	cmp	r3, #1
 800125a:	f040 8087 	bne.w	800136c <HAL_RCC_OscConfig+0x158>
    {
      if((READ_BIT(RCC->CR, RCC_CR_MSIRDY) != 0U) && (RCC_OscInitStruct->MSIState == RCC_MSI_OFF))
 800125e:	4b89      	ldr	r3, [pc, #548]	@ (8001484 <HAL_RCC_OscConfig+0x270>)
 8001260:	681b      	ldr	r3, [r3, #0]
 8001262:	f003 0302 	and.w	r3, r3, #2
 8001266:	2b00      	cmp	r3, #0
 8001268:	d005      	beq.n	8001276 <HAL_RCC_OscConfig+0x62>
 800126a:	687b      	ldr	r3, [r7, #4]
 800126c:	699b      	ldr	r3, [r3, #24]
 800126e:	2b00      	cmp	r3, #0
 8001270:	d101      	bne.n	8001276 <HAL_RCC_OscConfig+0x62>
      {
        return HAL_ERROR;
 8001272:	2301      	movs	r3, #1
 8001274:	e3a2      	b.n	80019bc <HAL_RCC_OscConfig+0x7a8>
      else
      {
        /* To correctly read data from FLASH memory, the number of wait states (LATENCY)
           must be correctly programmed according to the frequency of the CPU clock
           (HCLK) and the supply voltage of the device. */
        if(RCC_OscInitStruct->MSIClockRange > __HAL_RCC_GET_MSI_RANGE())
 8001276:	687b      	ldr	r3, [r7, #4]
 8001278:	6a1a      	ldr	r2, [r3, #32]
 800127a:	4b82      	ldr	r3, [pc, #520]	@ (8001484 <HAL_RCC_OscConfig+0x270>)
 800127c:	681b      	ldr	r3, [r3, #0]
 800127e:	f003 0308 	and.w	r3, r3, #8
 8001282:	2b00      	cmp	r3, #0
 8001284:	d004      	beq.n	8001290 <HAL_RCC_OscConfig+0x7c>
 8001286:	4b7f      	ldr	r3, [pc, #508]	@ (8001484 <HAL_RCC_OscConfig+0x270>)
 8001288:	681b      	ldr	r3, [r3, #0]
 800128a:	f003 03f0 	and.w	r3, r3, #240	@ 0xf0
 800128e:	e005      	b.n	800129c <HAL_RCC_OscConfig+0x88>
 8001290:	4b7c      	ldr	r3, [pc, #496]	@ (8001484 <HAL_RCC_OscConfig+0x270>)
 8001292:	f8d3 3094 	ldr.w	r3, [r3, #148]	@ 0x94
 8001296:	091b      	lsrs	r3, r3, #4
 8001298:	f003 03f0 	and.w	r3, r3, #240	@ 0xf0
 800129c:	4293      	cmp	r3, r2
 800129e:	d223      	bcs.n	80012e8 <HAL_RCC_OscConfig+0xd4>
        {
          /* First increase number of wait states update if necessary */
          if(RCC_SetFlashLatencyFromMSIRange(RCC_OscInitStruct->MSIClockRange) != HAL_OK)
 80012a0:	687b      	ldr	r3, [r7, #4]
 80012a2:	6a1b      	ldr	r3, [r3, #32]
 80012a4:	4618      	mov	r0, r3
 80012a6:	f000 fd55 	bl	8001d54 <RCC_SetFlashLatencyFromMSIRange>
 80012aa:	4603      	mov	r3, r0
 80012ac:	2b00      	cmp	r3, #0
 80012ae:	d001      	beq.n	80012b4 <HAL_RCC_OscConfig+0xa0>
          {
            return HAL_ERROR;
 80012b0:	2301      	movs	r3, #1
 80012b2:	e383      	b.n	80019bc <HAL_RCC_OscConfig+0x7a8>
          }

          /* Selects the Multiple Speed oscillator (MSI) clock range .*/
          __HAL_RCC_MSI_RANGE_CONFIG(RCC_OscInitStruct->MSIClockRange);
 80012b4:	4b73      	ldr	r3, [pc, #460]	@ (8001484 <HAL_RCC_OscConfig+0x270>)
 80012b6:	681b      	ldr	r3, [r3, #0]
 80012b8:	4a72      	ldr	r2, [pc, #456]	@ (8001484 <HAL_RCC_OscConfig+0x270>)
 80012ba:	f043 0308 	orr.w	r3, r3, #8
 80012be:	6013      	str	r3, [r2, #0]
 80012c0:	4b70      	ldr	r3, [pc, #448]	@ (8001484 <HAL_RCC_OscConfig+0x270>)
 80012c2:	681b      	ldr	r3, [r3, #0]
 80012c4:	f023 02f0 	bic.w	r2, r3, #240	@ 0xf0
 80012c8:	687b      	ldr	r3, [r7, #4]
 80012ca:	6a1b      	ldr	r3, [r3, #32]
 80012cc:	496d      	ldr	r1, [pc, #436]	@ (8001484 <HAL_RCC_OscConfig+0x270>)
 80012ce:	4313      	orrs	r3, r2
 80012d0:	600b      	str	r3, [r1, #0]
          /* Adjusts the Multiple Speed oscillator (MSI) calibration value.*/
          __HAL_RCC_MSI_CALIBRATIONVALUE_ADJUST(RCC_OscInitStruct->MSICalibrationValue);
 80012d2:	4b6c      	ldr	r3, [pc, #432]	@ (8001484 <HAL_RCC_OscConfig+0x270>)
 80012d4:	685b      	ldr	r3, [r3, #4]
 80012d6:	f423 427f 	bic.w	r2, r3, #65280	@ 0xff00
 80012da:	687b      	ldr	r3, [r7, #4]
 80012dc:	69db      	ldr	r3, [r3, #28]
 80012de:	021b      	lsls	r3, r3, #8
 80012e0:	4968      	ldr	r1, [pc, #416]	@ (8001484 <HAL_RCC_OscConfig+0x270>)
 80012e2:	4313      	orrs	r3, r2
 80012e4:	604b      	str	r3, [r1, #4]
 80012e6:	e025      	b.n	8001334 <HAL_RCC_OscConfig+0x120>
        }
        else
        {
          /* Else, keep current flash latency while decreasing applies */
          /* Selects the Multiple Speed oscillator (MSI) clock range .*/
          __HAL_RCC_MSI_RANGE_CONFIG(RCC_OscInitStruct->MSIClockRange);
 80012e8:	4b66      	ldr	r3, [pc, #408]	@ (8001484 <HAL_RCC_OscConfig+0x270>)
 80012ea:	681b      	ldr	r3, [r3, #0]
 80012ec:	4a65      	ldr	r2, [pc, #404]	@ (8001484 <HAL_RCC_OscConfig+0x270>)
 80012ee:	f043 0308 	orr.w	r3, r3, #8
 80012f2:	6013      	str	r3, [r2, #0]
 80012f4:	4b63      	ldr	r3, [pc, #396]	@ (8001484 <HAL_RCC_OscConfig+0x270>)
 80012f6:	681b      	ldr	r3, [r3, #0]
 80012f8:	f023 02f0 	bic.w	r2, r3, #240	@ 0xf0
 80012fc:	687b      	ldr	r3, [r7, #4]
 80012fe:	6a1b      	ldr	r3, [r3, #32]
 8001300:	4960      	ldr	r1, [pc, #384]	@ (8001484 <HAL_RCC_OscConfig+0x270>)
 8001302:	4313      	orrs	r3, r2
 8001304:	600b      	str	r3, [r1, #0]
          /* Adjusts the Multiple Speed oscillator (MSI) calibration value.*/
          __HAL_RCC_MSI_CALIBRATIONVALUE_ADJUST(RCC_OscInitStruct->MSICalibrationValue);
 8001306:	4b5f      	ldr	r3, [pc, #380]	@ (8001484 <HAL_RCC_OscConfig+0x270>)
 8001308:	685b      	ldr	r3, [r3, #4]
 800130a:	f423 427f 	bic.w	r2, r3, #65280	@ 0xff00
 800130e:	687b      	ldr	r3, [r7, #4]
 8001310:	69db      	ldr	r3, [r3, #28]
 8001312:	021b      	lsls	r3, r3, #8
 8001314:	495b      	ldr	r1, [pc, #364]	@ (8001484 <HAL_RCC_OscConfig+0x270>)
 8001316:	4313      	orrs	r3, r2
 8001318:	604b      	str	r3, [r1, #4]

          /* Decrease number of wait states update if necessary */
          /* Only possible when MSI is the System clock source  */
          if(sysclk_source == RCC_CFGR_SWS_MSI)
 800131a:	69bb      	ldr	r3, [r7, #24]
 800131c:	2b00      	cmp	r3, #0
 800131e:	d109      	bne.n	8001334 <HAL_RCC_OscConfig+0x120>
          {
            if(RCC_SetFlashLatencyFromMSIRange(RCC_OscInitStruct->MSIClockRange) != HAL_OK)
 8001320:	687b      	ldr	r3, [r7, #4]
 8001322:	6a1b      	ldr	r3, [r3, #32]
 8001324:	4618      	mov	r0, r3
 8001326:	f000 fd15 	bl	8001d54 <RCC_SetFlashLatencyFromMSIRange>
 800132a:	4603      	mov	r3, r0
 800132c:	2b00      	cmp	r3, #0
 800132e:	d001      	beq.n	8001334 <HAL_RCC_OscConfig+0x120>
            {
              return HAL_ERROR;
 8001330:	2301      	movs	r3, #1
 8001332:	e343      	b.n	80019bc <HAL_RCC_OscConfig+0x7a8>
            }
          }
        }

        /* Update the SystemCoreClock global variable */
        SystemCoreClock = HAL_RCC_GetSysClockFreq() >> (AHBPrescTable[READ_BIT(RCC->CFGR, RCC_CFGR_HPRE) >> RCC_CFGR_HPRE_Pos] & 0x1FU);
 8001334:	f000 fc4a 	bl	8001bcc <HAL_RCC_GetSysClockFreq>
 8001338:	4602      	mov	r2, r0
 800133a:	4b52      	ldr	r3, [pc, #328]	@ (8001484 <HAL_RCC_OscConfig+0x270>)
 800133c:	689b      	ldr	r3, [r3, #8]
 800133e:	091b      	lsrs	r3, r3, #4
 8001340:	f003 030f 	and.w	r3, r3, #15
 8001344:	4950      	ldr	r1, [pc, #320]	@ (8001488 <HAL_RCC_OscConfig+0x274>)
 8001346:	5ccb      	ldrb	r3, [r1, r3]
 8001348:	f003 031f 	and.w	r3, r3, #31
 800134c:	fa22 f303 	lsr.w	r3, r2, r3
 8001350:	4a4e      	ldr	r2, [pc, #312]	@ (800148c <HAL_RCC_OscConfig+0x278>)
 8001352:	6013      	str	r3, [r2, #0]

        /* Configure the source of time base considering new system clocks settings*/
        status = HAL_InitTick(uwTickPrio);
 8001354:	4b4e      	ldr	r3, [pc, #312]	@ (8001490 <HAL_RCC_OscConfig+0x27c>)
 8001356:	681b      	ldr	r3, [r3, #0]
 8001358:	4618      	mov	r0, r3
 800135a:	f7ff fbf3 	bl	8000b44 <HAL_InitTick>
 800135e:	4603      	mov	r3, r0
 8001360:	73fb      	strb	r3, [r7, #15]
        if(status != HAL_OK)
 8001362:	7bfb      	ldrb	r3, [r7, #15]
 8001364:	2b00      	cmp	r3, #0
 8001366:	d052      	beq.n	800140e <HAL_RCC_OscConfig+0x1fa>
        {
          return status;
 8001368:	7bfb      	ldrb	r3, [r7, #15]
 800136a:	e327      	b.n	80019bc <HAL_RCC_OscConfig+0x7a8>
      }
    }
    else
    {
      /* Check the MSI State */
      if(RCC_OscInitStruct->MSIState != RCC_MSI_OFF)
 800136c:	687b      	ldr	r3, [r7, #4]
 800136e:	699b      	ldr	r3, [r3, #24]
 8001370:	2b00      	cmp	r3, #0
 8001372:	d032      	beq.n	80013da <HAL_RCC_OscConfig+0x1c6>
      {
        /* Enable the Internal High Speed oscillator (MSI). */
        __HAL_RCC_MSI_ENABLE();
 8001374:	4b43      	ldr	r3, [pc, #268]	@ (8001484 <HAL_RCC_OscConfig+0x270>)
 8001376:	681b      	ldr	r3, [r3, #0]
 8001378:	4a42      	ldr	r2, [pc, #264]	@ (8001484 <HAL_RCC_OscConfig+0x270>)
 800137a:	f043 0301 	orr.w	r3, r3, #1
 800137e:	6013      	str	r3, [r2, #0]

        /* Get timeout */
        tickstart = HAL_GetTick();
 8001380:	f7ff fc30 	bl	8000be4 <HAL_GetTick>
 8001384:	6138      	str	r0, [r7, #16]

        /* Wait till MSI is ready */
        while(READ_BIT(RCC->CR, RCC_CR_MSIRDY) == 0U)
 8001386:	e008      	b.n	800139a <HAL_RCC_OscConfig+0x186>
        {
          if((HAL_GetTick() - tickstart) > MSI_TIMEOUT_VALUE)
 8001388:	f7ff fc2c 	bl	8000be4 <HAL_GetTick>
 800138c:	4602      	mov	r2, r0
 800138e:	693b      	ldr	r3, [r7, #16]
 8001390:	1ad3      	subs	r3, r2, r3
 8001392:	2b02      	cmp	r3, #2
 8001394:	d901      	bls.n	800139a <HAL_RCC_OscConfig+0x186>
          {
            return HAL_TIMEOUT;
 8001396:	2303      	movs	r3, #3
 8001398:	e310      	b.n	80019bc <HAL_RCC_OscConfig+0x7a8>
        while(READ_BIT(RCC->CR, RCC_CR_MSIRDY) == 0U)
 800139a:	4b3a      	ldr	r3, [pc, #232]	@ (8001484 <HAL_RCC_OscConfig+0x270>)
 800139c:	681b      	ldr	r3, [r3, #0]
 800139e:	f003 0302 	and.w	r3, r3, #2
 80013a2:	2b00      	cmp	r3, #0
 80013a4:	d0f0      	beq.n	8001388 <HAL_RCC_OscConfig+0x174>
          }
        }
         /* Selects the Multiple Speed oscillator (MSI) clock range .*/
        __HAL_RCC_MSI_RANGE_CONFIG(RCC_OscInitStruct->MSIClockRange);
 80013a6:	4b37      	ldr	r3, [pc, #220]	@ (8001484 <HAL_RCC_OscConfig+0x270>)
 80013a8:	681b      	ldr	r3, [r3, #0]
 80013aa:	4a36      	ldr	r2, [pc, #216]	@ (8001484 <HAL_RCC_OscConfig+0x270>)
 80013ac:	f043 0308 	orr.w	r3, r3, #8
 80013b0:	6013      	str	r3, [r2, #0]
 80013b2:	4b34      	ldr	r3, [pc, #208]	@ (8001484 <HAL_RCC_OscConfig+0x270>)
 80013b4:	681b      	ldr	r3, [r3, #0]
 80013b6:	f023 02f0 	bic.w	r2, r3, #240	@ 0xf0
 80013ba:	687b      	ldr	r3, [r7, #4]
 80013bc:	6a1b      	ldr	r3, [r3, #32]
 80013be:	4931      	ldr	r1, [pc, #196]	@ (8001484 <HAL_RCC_OscConfig+0x270>)
 80013c0:	4313      	orrs	r3, r2
 80013c2:	600b      	str	r3, [r1, #0]
         /* Adjusts the Multiple Speed oscillator (MSI) calibration value.*/
        __HAL_RCC_MSI_CALIBRATIONVALUE_ADJUST(RCC_OscInitStruct->MSICalibrationValue);
 80013c4:	4b2f      	ldr	r3, [pc, #188]	@ (8001484 <HAL_RCC_OscConfig+0x270>)
 80013c6:	685b      	ldr	r3, [r3, #4]
 80013c8:	f423 427f 	bic.w	r2, r3, #65280	@ 0xff00
 80013cc:	687b      	ldr	r3, [r7, #4]
 80013ce:	69db      	ldr	r3, [r3, #28]
 80013d0:	021b      	lsls	r3, r3, #8
 80013d2:	492c      	ldr	r1, [pc, #176]	@ (8001484 <HAL_RCC_OscConfig+0x270>)
 80013d4:	4313      	orrs	r3, r2
 80013d6:	604b      	str	r3, [r1, #4]
 80013d8:	e01a      	b.n	8001410 <HAL_RCC_OscConfig+0x1fc>

      }
      else
      {
        /* Disable the Internal High Speed oscillator (MSI). */
        __HAL_RCC_MSI_DISABLE();
 80013da:	4b2a      	ldr	r3, [pc, #168]	@ (8001484 <HAL_RCC_OscConfig+0x270>)
 80013dc:	681b      	ldr	r3, [r3, #0]
 80013de:	4a29      	ldr	r2, [pc, #164]	@ (8001484 <HAL_RCC_OscConfig+0x270>)
 80013e0:	f023 0301 	bic.w	r3, r3, #1
 80013e4:	6013      	str	r3, [r2, #0]

        /* Get timeout */
        tickstart = HAL_GetTick();
 80013e6:	f7ff fbfd 	bl	8000be4 <HAL_GetTick>
 80013ea:	6138      	str	r0, [r7, #16]

        /* Wait till MSI is ready */
        while(READ_BIT(RCC->CR, RCC_CR_MSIRDY) != 0U)
 80013ec:	e008      	b.n	8001400 <HAL_RCC_OscConfig+0x1ec>
        {
          if((HAL_GetTick() - tickstart) > MSI_TIMEOUT_VALUE)
 80013ee:	f7ff fbf9 	bl	8000be4 <HAL_GetTick>
 80013f2:	4602      	mov	r2, r0
 80013f4:	693b      	ldr	r3, [r7, #16]
 80013f6:	1ad3      	subs	r3, r2, r3
 80013f8:	2b02      	cmp	r3, #2
 80013fa:	d901      	bls.n	8001400 <HAL_RCC_OscConfig+0x1ec>
          {
            return HAL_TIMEOUT;
 80013fc:	2303      	movs	r3, #3
 80013fe:	e2dd      	b.n	80019bc <HAL_RCC_OscConfig+0x7a8>
        while(READ_BIT(RCC->CR, RCC_CR_MSIRDY) != 0U)
 8001400:	4b20      	ldr	r3, [pc, #128]	@ (8001484 <HAL_RCC_OscConfig+0x270>)
 8001402:	681b      	ldr	r3, [r3, #0]
 8001404:	f003 0302 	and.w	r3, r3, #2
 8001408:	2b00      	cmp	r3, #0
 800140a:	d1f0      	bne.n	80013ee <HAL_RCC_OscConfig+0x1da>
 800140c:	e000      	b.n	8001410 <HAL_RCC_OscConfig+0x1fc>
      if((READ_BIT(RCC->CR, RCC_CR_MSIRDY) != 0U) && (RCC_OscInitStruct->MSIState == RCC_MSI_OFF))
 800140e:	bf00      	nop
        }
      }
    }
  }
  /*------------------------------- HSE Configuration ------------------------*/
  if(((RCC_OscInitStruct->OscillatorType) & RCC_OSCILLATORTYPE_HSE) == RCC_OSCILLATORTYPE_HSE)
 8001410:	687b      	ldr	r3, [r7, #4]
 8001412:	681b      	ldr	r3, [r3, #0]
 8001414:	f003 0301 	and.w	r3, r3, #1
 8001418:	2b00      	cmp	r3, #0
 800141a:	d074      	beq.n	8001506 <HAL_RCC_OscConfig+0x2f2>
  {
    /* Check the parameters */
    assert_param(IS_RCC_HSE(RCC_OscInitStruct->HSEState));

    /* When the HSE is used as system clock or clock source for PLL in these cases it is not allowed to be disabled */
    if((sysclk_source == RCC_CFGR_SWS_HSE) ||
 800141c:	69bb      	ldr	r3, [r7, #24]
 800141e:	2b08      	cmp	r3, #8
 8001420:	d005      	beq.n	800142e <HAL_RCC_OscConfig+0x21a>
 8001422:	69bb      	ldr	r3, [r7, #24]
 8001424:	2b0c      	cmp	r3, #12
 8001426:	d10e      	bne.n	8001446 <HAL_RCC_OscConfig+0x232>
       ((sysclk_source == RCC_CFGR_SWS_PLL) && (pll_config == RCC_PLLSOURCE_HSE)))
 8001428:	697b      	ldr	r3, [r7, #20]
 800142a:	2b03      	cmp	r3, #3
 800142c:	d10b      	bne.n	8001446 <HAL_RCC_OscConfig+0x232>
    {
      if((READ_BIT(RCC->CR, RCC_CR_HSERDY) != 0U) && (RCC_OscInitStruct->HSEState == RCC_HSE_OFF))
 800142e:	4b15      	ldr	r3, [pc, #84]	@ (8001484 <HAL_RCC_OscConfig+0x270>)
 8001430:	681b      	ldr	r3, [r3, #0]
 8001432:	f403 3300 	and.w	r3, r3, #131072	@ 0x20000
 8001436:	2b00      	cmp	r3, #0
 8001438:	d064      	beq.n	8001504 <HAL_RCC_OscConfig+0x2f0>
 800143a:	687b      	ldr	r3, [r7, #4]
 800143c:	685b      	ldr	r3, [r3, #4]
 800143e:	2b00      	cmp	r3, #0
 8001440:	d160      	bne.n	8001504 <HAL_RCC_OscConfig+0x2f0>
      {
        return HAL_ERROR;
 8001442:	2301      	movs	r3, #1
 8001444:	e2ba      	b.n	80019bc <HAL_RCC_OscConfig+0x7a8>
      }
    }
    else
    {
      /* Set the new HSE configuration ---------------------------------------*/
      __HAL_RCC_HSE_CONFIG(RCC_OscInitStruct->HSEState);
 8001446:	687b      	ldr	r3, [r7, #4]
 8001448:	685b      	ldr	r3, [r3, #4]
 800144a:	f5b3 3f80 	cmp.w	r3, #65536	@ 0x10000
 800144e:	d106      	bne.n	800145e <HAL_RCC_OscConfig+0x24a>
 8001450:	4b0c      	ldr	r3, [pc, #48]	@ (8001484 <HAL_RCC_OscConfig+0x270>)
 8001452:	681b      	ldr	r3, [r3, #0]
 8001454:	4a0b      	ldr	r2, [pc, #44]	@ (8001484 <HAL_RCC_OscConfig+0x270>)
 8001456:	f443 3380 	orr.w	r3, r3, #65536	@ 0x10000
 800145a:	6013      	str	r3, [r2, #0]
 800145c:	e026      	b.n	80014ac <HAL_RCC_OscConfig+0x298>
 800145e:	687b      	ldr	r3, [r7, #4]
 8001460:	685b      	ldr	r3, [r3, #4]
 8001462:	f5b3 2fa0 	cmp.w	r3, #327680	@ 0x50000
 8001466:	d115      	bne.n	8001494 <HAL_RCC_OscConfig+0x280>
 8001468:	4b06      	ldr	r3, [pc, #24]	@ (8001484 <HAL_RCC_OscConfig+0x270>)
 800146a:	681b      	ldr	r3, [r3, #0]
 800146c:	4a05      	ldr	r2, [pc, #20]	@ (8001484 <HAL_RCC_OscConfig+0x270>)
 800146e:	f443 2380 	orr.w	r3, r3, #262144	@ 0x40000
 8001472:	6013      	str	r3, [r2, #0]
 8001474:	4b03      	ldr	r3, [pc, #12]	@ (8001484 <HAL_RCC_OscConfig+0x270>)
 8001476:	681b      	ldr	r3, [r3, #0]
 8001478:	4a02      	ldr	r2, [pc, #8]	@ (8001484 <HAL_RCC_OscConfig+0x270>)
 800147a:	f443 3380 	orr.w	r3, r3, #65536	@ 0x10000
 800147e:	6013      	str	r3, [r2, #0]
 8001480:	e014      	b.n	80014ac <HAL_RCC_OscConfig+0x298>
 8001482:	bf00      	nop
 8001484:	40021000 	.word	0x40021000
 8001488:	080052dc 	.word	0x080052dc
 800148c:	20000000 	.word	0x20000000
 8001490:	20000004 	.word	0x20000004
 8001494:	4ba0      	ldr	r3, [pc, #640]	@ (8001718 <HAL_RCC_OscConfig+0x504>)
 8001496:	681b      	ldr	r3, [r3, #0]
 8001498:	4a9f      	ldr	r2, [pc, #636]	@ (8001718 <HAL_RCC_OscConfig+0x504>)
 800149a:	f423 3380 	bic.w	r3, r3, #65536	@ 0x10000
 800149e:	6013      	str	r3, [r2, #0]
 80014a0:	4b9d      	ldr	r3, [pc, #628]	@ (8001718 <HAL_RCC_OscConfig+0x504>)
 80014a2:	681b      	ldr	r3, [r3, #0]
 80014a4:	4a9c      	ldr	r2, [pc, #624]	@ (8001718 <HAL_RCC_OscConfig+0x504>)
 80014a6:	f423 2380 	bic.w	r3, r3, #262144	@ 0x40000
 80014aa:	6013      	str	r3, [r2, #0]

      /* Check the HSE State */
      if(RCC_OscInitStruct->HSEState != RCC_HSE_OFF)
 80014ac:	687b      	ldr	r3, [r7, #4]
 80014ae:	685b      	ldr	r3, [r3, #4]
 80014b0:	2b00      	cmp	r3, #0
 80014b2:	d013      	beq.n	80014dc <HAL_RCC_OscConfig+0x2c8>
      {
        /* Get Start Tick*/
        tickstart = HAL_GetTick();
 80014b4:	f7ff fb96 	bl	8000be4 <HAL_GetTick>
 80014b8:	6138      	str	r0, [r7, #16]

        /* Wait till HSE is ready */
        while(READ_BIT(RCC->CR, RCC_CR_HSERDY) == 0U)
 80014ba:	e008      	b.n	80014ce <HAL_RCC_OscConfig+0x2ba>
        {
          if((HAL_GetTick() - tickstart) > HSE_TIMEOUT_VALUE)
 80014bc:	f7ff fb92 	bl	8000be4 <HAL_GetTick>
 80014c0:	4602      	mov	r2, r0
 80014c2:	693b      	ldr	r3, [r7, #16]
 80014c4:	1ad3      	subs	r3, r2, r3
 80014c6:	2b64      	cmp	r3, #100	@ 0x64
 80014c8:	d901      	bls.n	80014ce <HAL_RCC_OscConfig+0x2ba>
          {
            return HAL_TIMEOUT;
 80014ca:	2303      	movs	r3, #3
 80014cc:	e276      	b.n	80019bc <HAL_RCC_OscConfig+0x7a8>
        while(READ_BIT(RCC->CR, RCC_CR_HSERDY) == 0U)
 80014ce:	4b92      	ldr	r3, [pc, #584]	@ (8001718 <HAL_RCC_OscConfig+0x504>)
 80014d0:	681b      	ldr	r3, [r3, #0]
 80014d2:	f403 3300 	and.w	r3, r3, #131072	@ 0x20000
 80014d6:	2b00      	cmp	r3, #0
 80014d8:	d0f0      	beq.n	80014bc <HAL_RCC_OscConfig+0x2a8>
 80014da:	e014      	b.n	8001506 <HAL_RCC_OscConfig+0x2f2>
        }
      }
      else
      {
        /* Get Start Tick*/
        tickstart = HAL_GetTick();
 80014dc:	f7ff fb82 	bl	8000be4 <HAL_GetTick>
 80014e0:	6138      	str	r0, [r7, #16]

        /* Wait till HSE is disabled */
        while(READ_BIT(RCC->CR, RCC_CR_HSERDY) != 0U)
 80014e2:	e008      	b.n	80014f6 <HAL_RCC_OscConfig+0x2e2>
        {
          if((HAL_GetTick() - tickstart) > HSE_TIMEOUT_VALUE)
 80014e4:	f7ff fb7e 	bl	8000be4 <HAL_GetTick>
 80014e8:	4602      	mov	r2, r0
 80014ea:	693b      	ldr	r3, [r7, #16]
 80014ec:	1ad3      	subs	r3, r2, r3
 80014ee:	2b64      	cmp	r3, #100	@ 0x64
 80014f0:	d901      	bls.n	80014f6 <HAL_RCC_OscConfig+0x2e2>
          {
            return HAL_TIMEOUT;
 80014f2:	2303      	movs	r3, #3
 80014f4:	e262      	b.n	80019bc <HAL_RCC_OscConfig+0x7a8>
        while(READ_BIT(RCC->CR, RCC_CR_HSERDY) != 0U)
 80014f6:	4b88      	ldr	r3, [pc, #544]	@ (8001718 <HAL_RCC_OscConfig+0x504>)
 80014f8:	681b      	ldr	r3, [r3, #0]
 80014fa:	f403 3300 	and.w	r3, r3, #131072	@ 0x20000
 80014fe:	2b00      	cmp	r3, #0
 8001500:	d1f0      	bne.n	80014e4 <HAL_RCC_OscConfig+0x2d0>
 8001502:	e000      	b.n	8001506 <HAL_RCC_OscConfig+0x2f2>
      if((READ_BIT(RCC->CR, RCC_CR_HSERDY) != 0U) && (RCC_OscInitStruct->HSEState == RCC_HSE_OFF))
 8001504:	bf00      	nop
        }
      }
    }
  }
  /*----------------------------- HSI Configuration --------------------------*/
  if(((RCC_OscInitStruct->OscillatorType) & RCC_OSCILLATORTYPE_HSI) == RCC_OSCILLATORTYPE_HSI)
 8001506:	687b      	ldr	r3, [r7, #4]
 8001508:	681b      	ldr	r3, [r3, #0]
 800150a:	f003 0302 	and.w	r3, r3, #2
 800150e:	2b00      	cmp	r3, #0
 8001510:	d060      	beq.n	80015d4 <HAL_RCC_OscConfig+0x3c0>
    /* Check the parameters */
    assert_param(IS_RCC_HSI(RCC_OscInitStruct->HSIState));
    assert_param(IS_RCC_HSI_CALIBRATION_VALUE(RCC_OscInitStruct->HSICalibrationValue));

    /* Check if HSI is used as system clock or as PLL source when PLL is selected as system clock */
    if((sysclk_source == RCC_CFGR_SWS_HSI) ||
 8001512:	69bb      	ldr	r3, [r7, #24]
 8001514:	2b04      	cmp	r3, #4
 8001516:	d005      	beq.n	8001524 <HAL_RCC_OscConfig+0x310>
 8001518:	69bb      	ldr	r3, [r7, #24]
 800151a:	2b0c      	cmp	r3, #12
 800151c:	d119      	bne.n	8001552 <HAL_RCC_OscConfig+0x33e>
       ((sysclk_source == RCC_CFGR_SWS_PLL) && (pll_config == RCC_PLLSOURCE_HSI)))
 800151e:	697b      	ldr	r3, [r7, #20]
 8001520:	2b02      	cmp	r3, #2
 8001522:	d116      	bne.n	8001552 <HAL_RCC_OscConfig+0x33e>
    {
      /* When HSI is used as system clock it will not be disabled */
      if((READ_BIT(RCC->CR, RCC_CR_HSIRDY) != 0U) && (RCC_OscInitStruct->HSIState == RCC_HSI_OFF))
 8001524:	4b7c      	ldr	r3, [pc, #496]	@ (8001718 <HAL_RCC_OscConfig+0x504>)
 8001526:	681b      	ldr	r3, [r3, #0]
 8001528:	f403 6380 	and.w	r3, r3, #1024	@ 0x400
 800152c:	2b00      	cmp	r3, #0
 800152e:	d005      	beq.n	800153c <HAL_RCC_OscConfig+0x328>
 8001530:	687b      	ldr	r3, [r7, #4]
 8001532:	68db      	ldr	r3, [r3, #12]
 8001534:	2b00      	cmp	r3, #0
 8001536:	d101      	bne.n	800153c <HAL_RCC_OscConfig+0x328>
      {
        return HAL_ERROR;
 8001538:	2301      	movs	r3, #1
 800153a:	e23f      	b.n	80019bc <HAL_RCC_OscConfig+0x7a8>
      }
      /* Otherwise, just the calibration is allowed */
      else
      {
        /* Adjusts the Internal High Speed oscillator (HSI) calibration value.*/
        __HAL_RCC_HSI_CALIBRATIONVALUE_ADJUST(RCC_OscInitStruct->HSICalibrationValue);
 800153c:	4b76      	ldr	r3, [pc, #472]	@ (8001718 <HAL_RCC_OscConfig+0x504>)
 800153e:	685b      	ldr	r3, [r3, #4]
 8001540:	f023 52f8 	bic.w	r2, r3, #520093696	@ 0x1f000000
 8001544:	687b      	ldr	r3, [r7, #4]
 8001546:	691b      	ldr	r3, [r3, #16]
 8001548:	061b      	lsls	r3, r3, #24
 800154a:	4973      	ldr	r1, [pc, #460]	@ (8001718 <HAL_RCC_OscConfig+0x504>)
 800154c:	4313      	orrs	r3, r2
 800154e:	604b      	str	r3, [r1, #4]
      if((READ_BIT(RCC->CR, RCC_CR_HSIRDY) != 0U) && (RCC_OscInitStruct->HSIState == RCC_HSI_OFF))
 8001550:	e040      	b.n	80015d4 <HAL_RCC_OscConfig+0x3c0>
      }
    }
    else
    {
      /* Check the HSI State */
      if(RCC_OscInitStruct->HSIState != RCC_HSI_OFF)
 8001552:	687b      	ldr	r3, [r7, #4]
 8001554:	68db      	ldr	r3, [r3, #12]
 8001556:	2b00      	cmp	r3, #0
 8001558:	d023      	beq.n	80015a2 <HAL_RCC_OscConfig+0x38e>
      {
        /* Enable the Internal High Speed oscillator (HSI). */
        __HAL_RCC_HSI_ENABLE();
 800155a:	4b6f      	ldr	r3, [pc, #444]	@ (8001718 <HAL_RCC_OscConfig+0x504>)
 800155c:	681b      	ldr	r3, [r3, #0]
 800155e:	4a6e      	ldr	r2, [pc, #440]	@ (8001718 <HAL_RCC_OscConfig+0x504>)
 8001560:	f443 7380 	orr.w	r3, r3, #256	@ 0x100
 8001564:	6013      	str	r3, [r2, #0]

        /* Get Start Tick*/
        tickstart = HAL_GetTick();
 8001566:	f7ff fb3d 	bl	8000be4 <HAL_GetTick>
 800156a:	6138      	str	r0, [r7, #16]

        /* Wait till HSI is ready */
        while(READ_BIT(RCC->CR, RCC_CR_HSIRDY) == 0U)
 800156c:	e008      	b.n	8001580 <HAL_RCC_OscConfig+0x36c>
        {
          if((HAL_GetTick() - tickstart) > HSI_TIMEOUT_VALUE)
 800156e:	f7ff fb39 	bl	8000be4 <HAL_GetTick>
 8001572:	4602      	mov	r2, r0
 8001574:	693b      	ldr	r3, [r7, #16]
 8001576:	1ad3      	subs	r3, r2, r3
 8001578:	2b02      	cmp	r3, #2
 800157a:	d901      	bls.n	8001580 <HAL_RCC_OscConfig+0x36c>
          {
            return HAL_TIMEOUT;
 800157c:	2303      	movs	r3, #3
 800157e:	e21d      	b.n	80019bc <HAL_RCC_OscConfig+0x7a8>
        while(READ_BIT(RCC->CR, RCC_CR_HSIRDY) == 0U)
 8001580:	4b65      	ldr	r3, [pc, #404]	@ (8001718 <HAL_RCC_OscConfig+0x504>)
 8001582:	681b      	ldr	r3, [r3, #0]
 8001584:	f403 6380 	and.w	r3, r3, #1024	@ 0x400
 8001588:	2b00      	cmp	r3, #0
 800158a:	d0f0      	beq.n	800156e <HAL_RCC_OscConfig+0x35a>
          }
        }

        /* Adjusts the Internal High Speed oscillator (HSI) calibration value.*/
        __HAL_RCC_HSI_CALIBRATIONVALUE_ADJUST(RCC_OscInitStruct->HSICalibrationValue);
 800158c:	4b62      	ldr	r3, [pc, #392]	@ (8001718 <HAL_RCC_OscConfig+0x504>)
 800158e:	685b      	ldr	r3, [r3, #4]
 8001590:	f023 52f8 	bic.w	r2, r3, #520093696	@ 0x1f000000
 8001594:	687b      	ldr	r3, [r7, #4]
 8001596:	691b      	ldr	r3, [r3, #16]
 8001598:	061b      	lsls	r3, r3, #24
 800159a:	495f      	ldr	r1, [pc, #380]	@ (8001718 <HAL_RCC_OscConfig+0x504>)
 800159c:	4313      	orrs	r3, r2
 800159e:	604b      	str	r3, [r1, #4]
 80015a0:	e018      	b.n	80015d4 <HAL_RCC_OscConfig+0x3c0>
      }
      else
      {
        /* Disable the Internal High Speed oscillator (HSI). */
        __HAL_RCC_HSI_DISABLE();
 80015a2:	4b5d      	ldr	r3, [pc, #372]	@ (8001718 <HAL_RCC_OscConfig+0x504>)
 80015a4:	681b      	ldr	r3, [r3, #0]
 80015a6:	4a5c      	ldr	r2, [pc, #368]	@ (8001718 <HAL_RCC_OscConfig+0x504>)
 80015a8:	f423 7380 	bic.w	r3, r3, #256	@ 0x100
 80015ac:	6013      	str	r3, [r2, #0]

        /* Get Start Tick*/
        tickstart = HAL_GetTick();
 80015ae:	f7ff fb19 	bl	8000be4 <HAL_GetTick>
 80015b2:	6138      	str	r0, [r7, #16]

        /* Wait till HSI is disabled */
        while(READ_BIT(RCC->CR, RCC_CR_HSIRDY) != 0U)
 80015b4:	e008      	b.n	80015c8 <HAL_RCC_OscConfig+0x3b4>
        {
          if((HAL_GetTick() - tickstart) > HSI_TIMEOUT_VALUE)
 80015b6:	f7ff fb15 	bl	8000be4 <HAL_GetTick>
 80015ba:	4602      	mov	r2, r0
 80015bc:	693b      	ldr	r3, [r7, #16]
 80015be:	1ad3      	subs	r3, r2, r3
 80015c0:	2b02      	cmp	r3, #2
 80015c2:	d901      	bls.n	80015c8 <HAL_RCC_OscConfig+0x3b4>
          {
            return HAL_TIMEOUT;
 80015c4:	2303      	movs	r3, #3
 80015c6:	e1f9      	b.n	80019bc <HAL_RCC_OscConfig+0x7a8>
        while(READ_BIT(RCC->CR, RCC_CR_HSIRDY) != 0U)
 80015c8:	4b53      	ldr	r3, [pc, #332]	@ (8001718 <HAL_RCC_OscConfig+0x504>)
 80015ca:	681b      	ldr	r3, [r3, #0]
 80015cc:	f403 6380 	and.w	r3, r3, #1024	@ 0x400
 80015d0:	2b00      	cmp	r3, #0
 80015d2:	d1f0      	bne.n	80015b6 <HAL_RCC_OscConfig+0x3a2>
        }
      }
    }
  }
  /*------------------------------ LSI Configuration -------------------------*/
  if(((RCC_OscInitStruct->OscillatorType) & RCC_OSCILLATORTYPE_LSI) == RCC_OSCILLATORTYPE_LSI)
 80015d4:	687b      	ldr	r3, [r7, #4]
 80015d6:	681b      	ldr	r3, [r3, #0]
 80015d8:	f003 0308 	and.w	r3, r3, #8
 80015dc:	2b00      	cmp	r3, #0
 80015de:	d03c      	beq.n	800165a <HAL_RCC_OscConfig+0x446>
  {
    /* Check the parameters */
    assert_param(IS_RCC_LSI(RCC_OscInitStruct->LSIState));

    /* Check the LSI State */
    if(RCC_OscInitStruct->LSIState != RCC_LSI_OFF)
 80015e0:	687b      	ldr	r3, [r7, #4]
 80015e2:	695b      	ldr	r3, [r3, #20]
 80015e4:	2b00      	cmp	r3, #0
 80015e6:	d01c      	beq.n	8001622 <HAL_RCC_OscConfig+0x40e>
        MODIFY_REG(RCC->CSR, RCC_CSR_LSIPREDIV, RCC_OscInitStruct->LSIDiv);
      }
#endif /* RCC_CSR_LSIPREDIV */

      /* Enable the Internal Low Speed oscillator (LSI). */
      __HAL_RCC_LSI_ENABLE();
 80015e8:	4b4b      	ldr	r3, [pc, #300]	@ (8001718 <HAL_RCC_OscConfig+0x504>)
 80015ea:	f8d3 3094 	ldr.w	r3, [r3, #148]	@ 0x94
 80015ee:	4a4a      	ldr	r2, [pc, #296]	@ (8001718 <HAL_RCC_OscConfig+0x504>)
 80015f0:	f043 0301 	orr.w	r3, r3, #1
 80015f4:	f8c2 3094 	str.w	r3, [r2, #148]	@ 0x94

      /* Get Start Tick*/
      tickstart = HAL_GetTick();
 80015f8:	f7ff faf4 	bl	8000be4 <HAL_GetTick>
 80015fc:	6138      	str	r0, [r7, #16]

      /* Wait till LSI is ready */
      while(READ_BIT(RCC->CSR, RCC_CSR_LSIRDY) == 0U)
 80015fe:	e008      	b.n	8001612 <HAL_RCC_OscConfig+0x3fe>
      {
        if((HAL_GetTick() - tickstart) > LSI_TIMEOUT_VALUE)
 8001600:	f7ff faf0 	bl	8000be4 <HAL_GetTick>
 8001604:	4602      	mov	r2, r0
 8001606:	693b      	ldr	r3, [r7, #16]
 8001608:	1ad3      	subs	r3, r2, r3
 800160a:	2b02      	cmp	r3, #2
 800160c:	d901      	bls.n	8001612 <HAL_RCC_OscConfig+0x3fe>
        {
          return HAL_TIMEOUT;
 800160e:	2303      	movs	r3, #3
 8001610:	e1d4      	b.n	80019bc <HAL_RCC_OscConfig+0x7a8>
      while(READ_BIT(RCC->CSR, RCC_CSR_LSIRDY) == 0U)
 8001612:	4b41      	ldr	r3, [pc, #260]	@ (8001718 <HAL_RCC_OscConfig+0x504>)
 8001614:	f8d3 3094 	ldr.w	r3, [r3, #148]	@ 0x94
 8001618:	f003 0302 	and.w	r3, r3, #2
 800161c:	2b00      	cmp	r3, #0
 800161e:	d0ef      	beq.n	8001600 <HAL_RCC_OscConfig+0x3ec>
 8001620:	e01b      	b.n	800165a <HAL_RCC_OscConfig+0x446>
      }
    }
    else
    {
      /* Disable the Internal Low Speed oscillator (LSI). */
      __HAL_RCC_LSI_DISABLE();
 8001622:	4b3d      	ldr	r3, [pc, #244]	@ (8001718 <HAL_RCC_OscConfig+0x504>)
 8001624:	f8d3 3094 	ldr.w	r3, [r3, #148]	@ 0x94
 8001628:	4a3b      	ldr	r2, [pc, #236]	@ (8001718 <HAL_RCC_OscConfig+0x504>)
 800162a:	f023 0301 	bic.w	r3, r3, #1
 800162e:	f8c2 3094 	str.w	r3, [r2, #148]	@ 0x94

      /* Get Start Tick*/
      tickstart = HAL_GetTick();
 8001632:	f7ff fad7 	bl	8000be4 <HAL_GetTick>
 8001636:	6138      	str	r0, [r7, #16]

      /* Wait till LSI is disabled */
      while(READ_BIT(RCC->CSR, RCC_CSR_LSIRDY) != 0U)
 8001638:	e008      	b.n	800164c <HAL_RCC_OscConfig+0x438>
      {
        if((HAL_GetTick() - tickstart) > LSI_TIMEOUT_VALUE)
 800163a:	f7ff fad3 	bl	8000be4 <HAL_GetTick>
 800163e:	4602      	mov	r2, r0
 8001640:	693b      	ldr	r3, [r7, #16]
 8001642:	1ad3      	subs	r3, r2, r3
 8001644:	2b02      	cmp	r3, #2
 8001646:	d901      	bls.n	800164c <HAL_RCC_OscConfig+0x438>
        {
          return HAL_TIMEOUT;
 8001648:	2303      	movs	r3, #3
 800164a:	e1b7      	b.n	80019bc <HAL_RCC_OscConfig+0x7a8>
      while(READ_BIT(RCC->CSR, RCC_CSR_LSIRDY) != 0U)
 800164c:	4b32      	ldr	r3, [pc, #200]	@ (8001718 <HAL_RCC_OscConfig+0x504>)
 800164e:	f8d3 3094 	ldr.w	r3, [r3, #148]	@ 0x94
 8001652:	f003 0302 	and.w	r3, r3, #2
 8001656:	2b00      	cmp	r3, #0
 8001658:	d1ef      	bne.n	800163a <HAL_RCC_OscConfig+0x426>
        }
      }
    }
  }
  /*------------------------------ LSE Configuration -------------------------*/
  if(((RCC_OscInitStruct->OscillatorType) & RCC_OSCILLATORTYPE_LSE) == RCC_OSCILLATORTYPE_LSE)
 800165a:	687b      	ldr	r3, [r7, #4]
 800165c:	681b      	ldr	r3, [r3, #0]
 800165e:	f003 0304 	and.w	r3, r3, #4
 8001662:	2b00      	cmp	r3, #0
 8001664:	f000 80a6 	beq.w	80017b4 <HAL_RCC_OscConfig+0x5a0>
  {
    FlagStatus       pwrclkchanged = RESET;
 8001668:	2300      	movs	r3, #0
 800166a:	77fb      	strb	r3, [r7, #31]
    /* Check the parameters */
    assert_param(IS_RCC_LSE(RCC_OscInitStruct->LSEState));

    /* Update LSE configuration in Backup Domain control register    */
    /* Requires to enable write access to Backup Domain of necessary */
    if(HAL_IS_BIT_CLR(RCC->APB1ENR1, RCC_APB1ENR1_PWREN))
 800166c:	4b2a      	ldr	r3, [pc, #168]	@ (8001718 <HAL_RCC_OscConfig+0x504>)
 800166e:	6d9b      	ldr	r3, [r3, #88]	@ 0x58
 8001670:	f003 5380 	and.w	r3, r3, #268435456	@ 0x10000000
 8001674:	2b00      	cmp	r3, #0
 8001676:	d10d      	bne.n	8001694 <HAL_RCC_OscConfig+0x480>
    {
      __HAL_RCC_PWR_CLK_ENABLE();
 8001678:	4b27      	ldr	r3, [pc, #156]	@ (8001718 <HAL_RCC_OscConfig+0x504>)
 800167a:	6d9b      	ldr	r3, [r3, #88]	@ 0x58
 800167c:	4a26      	ldr	r2, [pc, #152]	@ (8001718 <HAL_RCC_OscConfig+0x504>)
 800167e:	f043 5380 	orr.w	r3, r3, #268435456	@ 0x10000000
 8001682:	6593      	str	r3, [r2, #88]	@ 0x58
 8001684:	4b24      	ldr	r3, [pc, #144]	@ (8001718 <HAL_RCC_OscConfig+0x504>)
 8001686:	6d9b      	ldr	r3, [r3, #88]	@ 0x58
 8001688:	f003 5380 	and.w	r3, r3, #268435456	@ 0x10000000
 800168c:	60bb      	str	r3, [r7, #8]
 800168e:	68bb      	ldr	r3, [r7, #8]
      pwrclkchanged = SET;
 8001690:	2301      	movs	r3, #1
 8001692:	77fb      	strb	r3, [r7, #31]
    }

    if(HAL_IS_BIT_CLR(PWR->CR1, PWR_CR1_DBP))
 8001694:	4b21      	ldr	r3, [pc, #132]	@ (800171c <HAL_RCC_OscConfig+0x508>)
 8001696:	681b      	ldr	r3, [r3, #0]
 8001698:	f403 7380 	and.w	r3, r3, #256	@ 0x100
 800169c:	2b00      	cmp	r3, #0
 800169e:	d118      	bne.n	80016d2 <HAL_RCC_OscConfig+0x4be>
    {
      /* Enable write access to Backup domain */
      SET_BIT(PWR->CR1, PWR_CR1_DBP);
 80016a0:	4b1e      	ldr	r3, [pc, #120]	@ (800171c <HAL_RCC_OscConfig+0x508>)
 80016a2:	681b      	ldr	r3, [r3, #0]
 80016a4:	4a1d      	ldr	r2, [pc, #116]	@ (800171c <HAL_RCC_OscConfig+0x508>)
 80016a6:	f443 7380 	orr.w	r3, r3, #256	@ 0x100
 80016aa:	6013      	str	r3, [r2, #0]

      /* Wait for Backup domain Write protection disable */
      tickstart = HAL_GetTick();
 80016ac:	f7ff fa9a 	bl	8000be4 <HAL_GetTick>
 80016b0:	6138      	str	r0, [r7, #16]

      while(HAL_IS_BIT_CLR(PWR->CR1, PWR_CR1_DBP))
 80016b2:	e008      	b.n	80016c6 <HAL_RCC_OscConfig+0x4b2>
      {
        if((HAL_GetTick() - tickstart) > RCC_DBP_TIMEOUT_VALUE)
 80016b4:	f7ff fa96 	bl	8000be4 <HAL_GetTick>
 80016b8:	4602      	mov	r2, r0
 80016ba:	693b      	ldr	r3, [r7, #16]
 80016bc:	1ad3      	subs	r3, r2, r3
 80016be:	2b02      	cmp	r3, #2
 80016c0:	d901      	bls.n	80016c6 <HAL_RCC_OscConfig+0x4b2>
        {
          return HAL_TIMEOUT;
 80016c2:	2303      	movs	r3, #3
 80016c4:	e17a      	b.n	80019bc <HAL_RCC_OscConfig+0x7a8>
      while(HAL_IS_BIT_CLR(PWR->CR1, PWR_CR1_DBP))
 80016c6:	4b15      	ldr	r3, [pc, #84]	@ (800171c <HAL_RCC_OscConfig+0x508>)
 80016c8:	681b      	ldr	r3, [r3, #0]
 80016ca:	f403 7380 	and.w	r3, r3, #256	@ 0x100
 80016ce:	2b00      	cmp	r3, #0
 80016d0:	d0f0      	beq.n	80016b4 <HAL_RCC_OscConfig+0x4a0>
    {
      CLEAR_BIT(RCC->BDCR, RCC_BDCR_LSEON);
      CLEAR_BIT(RCC->BDCR, RCC_BDCR_LSEBYP);
    }
#else
    __HAL_RCC_LSE_CONFIG(RCC_OscInitStruct->LSEState);
 80016d2:	687b      	ldr	r3, [r7, #4]
 80016d4:	689b      	ldr	r3, [r3, #8]
 80016d6:	2b01      	cmp	r3, #1
 80016d8:	d108      	bne.n	80016ec <HAL_RCC_OscConfig+0x4d8>
 80016da:	4b0f      	ldr	r3, [pc, #60]	@ (8001718 <HAL_RCC_OscConfig+0x504>)
 80016dc:	f8d3 3090 	ldr.w	r3, [r3, #144]	@ 0x90
 80016e0:	4a0d      	ldr	r2, [pc, #52]	@ (8001718 <HAL_RCC_OscConfig+0x504>)
 80016e2:	f043 0301 	orr.w	r3, r3, #1
 80016e6:	f8c2 3090 	str.w	r3, [r2, #144]	@ 0x90
 80016ea:	e029      	b.n	8001740 <HAL_RCC_OscConfig+0x52c>
 80016ec:	687b      	ldr	r3, [r7, #4]
 80016ee:	689b      	ldr	r3, [r3, #8]
 80016f0:	2b05      	cmp	r3, #5
 80016f2:	d115      	bne.n	8001720 <HAL_RCC_OscConfig+0x50c>
 80016f4:	4b08      	ldr	r3, [pc, #32]	@ (8001718 <HAL_RCC_OscConfig+0x504>)
 80016f6:	f8d3 3090 	ldr.w	r3, [r3, #144]	@ 0x90
 80016fa:	4a07      	ldr	r2, [pc, #28]	@ (8001718 <HAL_RCC_OscConfig+0x504>)
 80016fc:	f043 0304 	orr.w	r3, r3, #4
 8001700:	f8c2 3090 	str.w	r3, [r2, #144]	@ 0x90
 8001704:	4b04      	ldr	r3, [pc, #16]	@ (8001718 <HAL_RCC_OscConfig+0x504>)
 8001706:	f8d3 3090 	ldr.w	r3, [r3, #144]	@ 0x90
 800170a:	4a03      	ldr	r2, [pc, #12]	@ (8001718 <HAL_RCC_OscConfig+0x504>)
 800170c:	f043 0301 	orr.w	r3, r3, #1
 8001710:	f8c2 3090 	str.w	r3, [r2, #144]	@ 0x90
 8001714:	e014      	b.n	8001740 <HAL_RCC_OscConfig+0x52c>
 8001716:	bf00      	nop
 8001718:	40021000 	.word	0x40021000
 800171c:	40007000 	.word	0x40007000
 8001720:	4b9c      	ldr	r3, [pc, #624]	@ (8001994 <HAL_RCC_OscConfig+0x780>)
 8001722:	f8d3 3090 	ldr.w	r3, [r3, #144]	@ 0x90
 8001726:	4a9b      	ldr	r2, [pc, #620]	@ (8001994 <HAL_RCC_OscConfig+0x780>)
 8001728:	f023 0301 	bic.w	r3, r3, #1
 800172c:	f8c2 3090 	str.w	r3, [r2, #144]	@ 0x90
 8001730:	4b98      	ldr	r3, [pc, #608]	@ (8001994 <HAL_RCC_OscConfig+0x780>)
 8001732:	f8d3 3090 	ldr.w	r3, [r3, #144]	@ 0x90
 8001736:	4a97      	ldr	r2, [pc, #604]	@ (8001994 <HAL_RCC_OscConfig+0x780>)
 8001738:	f023 0304 	bic.w	r3, r3, #4
 800173c:	f8c2 3090 	str.w	r3, [r2, #144]	@ 0x90
#endif /* RCC_BDCR_LSESYSDIS */

    /* Check the LSE State */
    if(RCC_OscInitStruct->LSEState != RCC_LSE_OFF)
 8001740:	687b      	ldr	r3, [r7, #4]
 8001742:	689b      	ldr	r3, [r3, #8]
 8001744:	2b00      	cmp	r3, #0
 8001746:	d016      	beq.n	8001776 <HAL_RCC_OscConfig+0x562>
    {
      /* Get Start Tick*/
      tickstart = HAL_GetTick();
 8001748:	f7ff fa4c 	bl	8000be4 <HAL_GetTick>
 800174c:	6138      	str	r0, [r7, #16]

      /* Wait till LSE is ready */
      while(READ_BIT(RCC->BDCR, RCC_BDCR_LSERDY) == 0U)
 800174e:	e00a      	b.n	8001766 <HAL_RCC_OscConfig+0x552>
      {
        if((HAL_GetTick() - tickstart) > RCC_LSE_TIMEOUT_VALUE)
 8001750:	f7ff fa48 	bl	8000be4 <HAL_GetTick>
 8001754:	4602      	mov	r2, r0
 8001756:	693b      	ldr	r3, [r7, #16]
 8001758:	1ad3      	subs	r3, r2, r3
 800175a:	f241 3288 	movw	r2, #5000	@ 0x1388
 800175e:	4293      	cmp	r3, r2
 8001760:	d901      	bls.n	8001766 <HAL_RCC_OscConfig+0x552>
        {
          return HAL_TIMEOUT;
 8001762:	2303      	movs	r3, #3
 8001764:	e12a      	b.n	80019bc <HAL_RCC_OscConfig+0x7a8>
      while(READ_BIT(RCC->BDCR, RCC_BDCR_LSERDY) == 0U)
 8001766:	4b8b      	ldr	r3, [pc, #556]	@ (8001994 <HAL_RCC_OscConfig+0x780>)
 8001768:	f8d3 3090 	ldr.w	r3, [r3, #144]	@ 0x90
 800176c:	f003 0302 	and.w	r3, r3, #2
 8001770:	2b00      	cmp	r3, #0
 8001772:	d0ed      	beq.n	8001750 <HAL_RCC_OscConfig+0x53c>
 8001774:	e015      	b.n	80017a2 <HAL_RCC_OscConfig+0x58e>
      }
    }
    else
    {
      /* Get Start Tick*/
      tickstart = HAL_GetTick();
 8001776:	f7ff fa35 	bl	8000be4 <HAL_GetTick>
 800177a:	6138      	str	r0, [r7, #16]

      /* Wait till LSE is disabled */
      while(READ_BIT(RCC->BDCR, RCC_BDCR_LSERDY) != 0U)
 800177c:	e00a      	b.n	8001794 <HAL_RCC_OscConfig+0x580>
      {
        if((HAL_GetTick() - tickstart) > RCC_LSE_TIMEOUT_VALUE)
 800177e:	f7ff fa31 	bl	8000be4 <HAL_GetTick>
 8001782:	4602      	mov	r2, r0
 8001784:	693b      	ldr	r3, [r7, #16]
 8001786:	1ad3      	subs	r3, r2, r3
 8001788:	f241 3288 	movw	r2, #5000	@ 0x1388
 800178c:	4293      	cmp	r3, r2
 800178e:	d901      	bls.n	8001794 <HAL_RCC_OscConfig+0x580>
        {
          return HAL_TIMEOUT;
 8001790:	2303      	movs	r3, #3
 8001792:	e113      	b.n	80019bc <HAL_RCC_OscConfig+0x7a8>
      while(READ_BIT(RCC->BDCR, RCC_BDCR_LSERDY) != 0U)
 8001794:	4b7f      	ldr	r3, [pc, #508]	@ (8001994 <HAL_RCC_OscConfig+0x780>)
 8001796:	f8d3 3090 	ldr.w	r3, [r3, #144]	@ 0x90
 800179a:	f003 0302 	and.w	r3, r3, #2
 800179e:	2b00      	cmp	r3, #0
 80017a0:	d1ed      	bne.n	800177e <HAL_RCC_OscConfig+0x56a>
      CLEAR_BIT(RCC->BDCR, RCC_BDCR_LSESYSDIS);
#endif /* RCC_BDCR_LSESYSDIS */
    }

    /* Restore clock configuration if changed */
    if(pwrclkchanged == SET)
 80017a2:	7ffb      	ldrb	r3, [r7, #31]
 80017a4:	2b01      	cmp	r3, #1
 80017a6:	d105      	bne.n	80017b4 <HAL_RCC_OscConfig+0x5a0>
    {
      __HAL_RCC_PWR_CLK_DISABLE();
 80017a8:	4b7a      	ldr	r3, [pc, #488]	@ (8001994 <HAL_RCC_OscConfig+0x780>)
 80017aa:	6d9b      	ldr	r3, [r3, #88]	@ 0x58
 80017ac:	4a79      	ldr	r2, [pc, #484]	@ (8001994 <HAL_RCC_OscConfig+0x780>)
 80017ae:	f023 5380 	bic.w	r3, r3, #268435456	@ 0x10000000
 80017b2:	6593      	str	r3, [r2, #88]	@ 0x58
#endif /* RCC_HSI48_SUPPORT */
  /*-------------------------------- PLL Configuration -----------------------*/
  /* Check the parameters */
  assert_param(IS_RCC_PLL(RCC_OscInitStruct->PLL.PLLState));

  if(RCC_OscInitStruct->PLL.PLLState != RCC_PLL_NONE)
 80017b4:	687b      	ldr	r3, [r7, #4]
 80017b6:	6a9b      	ldr	r3, [r3, #40]	@ 0x28
 80017b8:	2b00      	cmp	r3, #0
 80017ba:	f000 80fe 	beq.w	80019ba <HAL_RCC_OscConfig+0x7a6>
  {
    /* PLL On ? */
    if(RCC_OscInitStruct->PLL.PLLState == RCC_PLL_ON)
 80017be:	687b      	ldr	r3, [r7, #4]
 80017c0:	6a9b      	ldr	r3, [r3, #40]	@ 0x28
 80017c2:	2b02      	cmp	r3, #2
 80017c4:	f040 80d0 	bne.w	8001968 <HAL_RCC_OscConfig+0x754>
#endif /* RCC_PLLP_SUPPORT */
      assert_param(IS_RCC_PLLQ_VALUE(RCC_OscInitStruct->PLL.PLLQ));
      assert_param(IS_RCC_PLLR_VALUE(RCC_OscInitStruct->PLL.PLLR));

      /* Do nothing if PLL configuration is the unchanged */
      pll_config = RCC->PLLCFGR;
 80017c8:	4b72      	ldr	r3, [pc, #456]	@ (8001994 <HAL_RCC_OscConfig+0x780>)
 80017ca:	68db      	ldr	r3, [r3, #12]
 80017cc:	617b      	str	r3, [r7, #20]
      if((READ_BIT(pll_config, RCC_PLLCFGR_PLLSRC)  != RCC_OscInitStruct->PLL.PLLSource) ||
 80017ce:	697b      	ldr	r3, [r7, #20]
 80017d0:	f003 0203 	and.w	r2, r3, #3
 80017d4:	687b      	ldr	r3, [r7, #4]
 80017d6:	6adb      	ldr	r3, [r3, #44]	@ 0x2c
 80017d8:	429a      	cmp	r2, r3
 80017da:	d130      	bne.n	800183e <HAL_RCC_OscConfig+0x62a>
         (READ_BIT(pll_config, RCC_PLLCFGR_PLLM)    != ((RCC_OscInitStruct->PLL.PLLM - 1U) << RCC_PLLCFGR_PLLM_Pos)) ||
 80017dc:	697b      	ldr	r3, [r7, #20]
 80017de:	f003 0270 	and.w	r2, r3, #112	@ 0x70
 80017e2:	687b      	ldr	r3, [r7, #4]
 80017e4:	6b1b      	ldr	r3, [r3, #48]	@ 0x30
 80017e6:	3b01      	subs	r3, #1
 80017e8:	011b      	lsls	r3, r3, #4
      if((READ_BIT(pll_config, RCC_PLLCFGR_PLLSRC)  != RCC_OscInitStruct->PLL.PLLSource) ||
 80017ea:	429a      	cmp	r2, r3
 80017ec:	d127      	bne.n	800183e <HAL_RCC_OscConfig+0x62a>
         (READ_BIT(pll_config, RCC_PLLCFGR_PLLN)    != (RCC_OscInitStruct->PLL.PLLN << RCC_PLLCFGR_PLLN_Pos)) ||
 80017ee:	697b      	ldr	r3, [r7, #20]
 80017f0:	f403 42fe 	and.w	r2, r3, #32512	@ 0x7f00
 80017f4:	687b      	ldr	r3, [r7, #4]
 80017f6:	6b5b      	ldr	r3, [r3, #52]	@ 0x34
 80017f8:	021b      	lsls	r3, r3, #8
         (READ_BIT(pll_config, RCC_PLLCFGR_PLLM)    != ((RCC_OscInitStruct->PLL.PLLM - 1U) << RCC_PLLCFGR_PLLM_Pos)) ||
 80017fa:	429a      	cmp	r2, r3
 80017fc:	d11f      	bne.n	800183e <HAL_RCC_OscConfig+0x62a>
#if defined(RCC_PLLP_SUPPORT)
#if defined(RCC_PLLP_DIV_2_31_SUPPORT)
         (READ_BIT(pll_config, RCC_PLLCFGR_PLLPDIV) != (RCC_OscInitStruct->PLL.PLLP << RCC_PLLCFGR_PLLPDIV_Pos)) ||
#else
         (READ_BIT(pll_config, RCC_PLLCFGR_PLLP)    != ((RCC_OscInitStruct->PLL.PLLP == RCC_PLLP_DIV7) ? 0U : 1U)) ||
 80017fe:	697b      	ldr	r3, [r7, #20]
 8001800:	f403 3300 	and.w	r3, r3, #131072	@ 0x20000
 8001804:	687a      	ldr	r2, [r7, #4]
 8001806:	6b92      	ldr	r2, [r2, #56]	@ 0x38
 8001808:	2a07      	cmp	r2, #7
 800180a:	bf14      	ite	ne
 800180c:	2201      	movne	r2, #1
 800180e:	2200      	moveq	r2, #0
 8001810:	b2d2      	uxtb	r2, r2
         (READ_BIT(pll_config, RCC_PLLCFGR_PLLN)    != (RCC_OscInitStruct->PLL.PLLN << RCC_PLLCFGR_PLLN_Pos)) ||
 8001812:	4293      	cmp	r3, r2
 8001814:	d113      	bne.n	800183e <HAL_RCC_OscConfig+0x62a>
#endif
#endif
         (READ_BIT(pll_config, RCC_PLLCFGR_PLLQ)    != ((((RCC_OscInitStruct->PLL.PLLQ) >> 1U) - 1U) << RCC_PLLCFGR_PLLQ_Pos)) ||
 8001816:	697b      	ldr	r3, [r7, #20]
 8001818:	f403 02c0 	and.w	r2, r3, #6291456	@ 0x600000
 800181c:	687b      	ldr	r3, [r7, #4]
 800181e:	6bdb      	ldr	r3, [r3, #60]	@ 0x3c
 8001820:	085b      	lsrs	r3, r3, #1
 8001822:	3b01      	subs	r3, #1
 8001824:	055b      	lsls	r3, r3, #21
         (READ_BIT(pll_config, RCC_PLLCFGR_PLLP)    != ((RCC_OscInitStruct->PLL.PLLP == RCC_PLLP_DIV7) ? 0U : 1U)) ||
 8001826:	429a      	cmp	r2, r3
 8001828:	d109      	bne.n	800183e <HAL_RCC_OscConfig+0x62a>
         (READ_BIT(pll_config, RCC_PLLCFGR_PLLR)    != ((((RCC_OscInitStruct->PLL.PLLR) >> 1U) - 1U) << RCC_PLLCFGR_PLLR_Pos)))
 800182a:	697b      	ldr	r3, [r7, #20]
 800182c:	f003 62c0 	and.w	r2, r3, #100663296	@ 0x6000000
 8001830:	687b      	ldr	r3, [r7, #4]
 8001832:	6c1b      	ldr	r3, [r3, #64]	@ 0x40
 8001834:	085b      	lsrs	r3, r3, #1
 8001836:	3b01      	subs	r3, #1
 8001838:	065b      	lsls	r3, r3, #25
         (READ_BIT(pll_config, RCC_PLLCFGR_PLLQ)    != ((((RCC_OscInitStruct->PLL.PLLQ) >> 1U) - 1U) << RCC_PLLCFGR_PLLQ_Pos)) ||
 800183a:	429a      	cmp	r2, r3
 800183c:	d06e      	beq.n	800191c <HAL_RCC_OscConfig+0x708>
      {
        /* Check if the PLL is used as system clock or not */
        if(sysclk_source != RCC_CFGR_SWS_PLL)
 800183e:	69bb      	ldr	r3, [r7, #24]
 8001840:	2b0c      	cmp	r3, #12
 8001842:	d069      	beq.n	8001918 <HAL_RCC_OscConfig+0x704>
        {
#if defined(RCC_PLLSAI1_SUPPORT) || defined(RCC_PLLSAI2_SUPPORT)
          /* Check if main PLL can be updated */
          /* Not possible if the source is shared by other enabled PLLSAIx */
          if((READ_BIT(RCC->CR, RCC_CR_PLLSAI1ON) != 0U)
 8001844:	4b53      	ldr	r3, [pc, #332]	@ (8001994 <HAL_RCC_OscConfig+0x780>)
 8001846:	681b      	ldr	r3, [r3, #0]
 8001848:	f003 6380 	and.w	r3, r3, #67108864	@ 0x4000000
 800184c:	2b00      	cmp	r3, #0
 800184e:	d105      	bne.n	800185c <HAL_RCC_OscConfig+0x648>
#if defined(RCC_PLLSAI2_SUPPORT)
             || (READ_BIT(RCC->CR, RCC_CR_PLLSAI2ON) != 0U)
 8001850:	4b50      	ldr	r3, [pc, #320]	@ (8001994 <HAL_RCC_OscConfig+0x780>)
 8001852:	681b      	ldr	r3, [r3, #0]
 8001854:	f003 5380 	and.w	r3, r3, #268435456	@ 0x10000000
 8001858:	2b00      	cmp	r3, #0
 800185a:	d001      	beq.n	8001860 <HAL_RCC_OscConfig+0x64c>
#endif
            )
          {
            return HAL_ERROR;
 800185c:	2301      	movs	r3, #1
 800185e:	e0ad      	b.n	80019bc <HAL_RCC_OscConfig+0x7a8>
          }
          else
#endif /* RCC_PLLSAI1_SUPPORT || RCC_PLLSAI2_SUPPORT */
          {
            /* Disable the main PLL. */
            __HAL_RCC_PLL_DISABLE();
 8001860:	4b4c      	ldr	r3, [pc, #304]	@ (8001994 <HAL_RCC_OscConfig+0x780>)
 8001862:	681b      	ldr	r3, [r3, #0]
 8001864:	4a4b      	ldr	r2, [pc, #300]	@ (8001994 <HAL_RCC_OscConfig+0x780>)
 8001866:	f023 7380 	bic.w	r3, r3, #16777216	@ 0x1000000
 800186a:	6013      	str	r3, [r2, #0]

            /* Get Start Tick*/
            tickstart = HAL_GetTick();
 800186c:	f7ff f9ba 	bl	8000be4 <HAL_GetTick>
 8001870:	6138      	str	r0, [r7, #16]

            /* Wait till PLL is ready */
            while(READ_BIT(RCC->CR, RCC_CR_PLLRDY) != 0U)
 8001872:	e008      	b.n	8001886 <HAL_RCC_OscConfig+0x672>
            {
              if((HAL_GetTick() - tickstart) > PLL_TIMEOUT_VALUE)
 8001874:	f7ff f9b6 	bl	8000be4 <HAL_GetTick>
 8001878:	4602      	mov	r2, r0
 800187a:	693b      	ldr	r3, [r7, #16]
 800187c:	1ad3      	subs	r3, r2, r3
 800187e:	2b02      	cmp	r3, #2
 8001880:	d901      	bls.n	8001886 <HAL_RCC_OscConfig+0x672>
              {
                return HAL_TIMEOUT;
 8001882:	2303      	movs	r3, #3
 8001884:	e09a      	b.n	80019bc <HAL_RCC_OscConfig+0x7a8>
            while(READ_BIT(RCC->CR, RCC_CR_PLLRDY) != 0U)
 8001886:	4b43      	ldr	r3, [pc, #268]	@ (8001994 <HAL_RCC_OscConfig+0x780>)
 8001888:	681b      	ldr	r3, [r3, #0]
 800188a:	f003 7300 	and.w	r3, r3, #33554432	@ 0x2000000
 800188e:	2b00      	cmp	r3, #0
 8001890:	d1f0      	bne.n	8001874 <HAL_RCC_OscConfig+0x660>
              }
            }

            /* Configure the main PLL clock source, multiplication and division factors. */
#if defined(RCC_PLLP_SUPPORT)
            __HAL_RCC_PLL_CONFIG(RCC_OscInitStruct->PLL.PLLSource,
 8001892:	4b40      	ldr	r3, [pc, #256]	@ (8001994 <HAL_RCC_OscConfig+0x780>)
 8001894:	68da      	ldr	r2, [r3, #12]
 8001896:	4b40      	ldr	r3, [pc, #256]	@ (8001998 <HAL_RCC_OscConfig+0x784>)
 8001898:	4013      	ands	r3, r2
 800189a:	687a      	ldr	r2, [r7, #4]
 800189c:	6ad1      	ldr	r1, [r2, #44]	@ 0x2c
 800189e:	687a      	ldr	r2, [r7, #4]
 80018a0:	6b12      	ldr	r2, [r2, #48]	@ 0x30
 80018a2:	3a01      	subs	r2, #1
 80018a4:	0112      	lsls	r2, r2, #4
 80018a6:	4311      	orrs	r1, r2
 80018a8:	687a      	ldr	r2, [r7, #4]
 80018aa:	6b52      	ldr	r2, [r2, #52]	@ 0x34
 80018ac:	0212      	lsls	r2, r2, #8
 80018ae:	4311      	orrs	r1, r2
 80018b0:	687a      	ldr	r2, [r7, #4]
 80018b2:	6bd2      	ldr	r2, [r2, #60]	@ 0x3c
 80018b4:	0852      	lsrs	r2, r2, #1
 80018b6:	3a01      	subs	r2, #1
 80018b8:	0552      	lsls	r2, r2, #21
 80018ba:	4311      	orrs	r1, r2
 80018bc:	687a      	ldr	r2, [r7, #4]
 80018be:	6c12      	ldr	r2, [r2, #64]	@ 0x40
 80018c0:	0852      	lsrs	r2, r2, #1
 80018c2:	3a01      	subs	r2, #1
 80018c4:	0652      	lsls	r2, r2, #25
 80018c6:	4311      	orrs	r1, r2
 80018c8:	687a      	ldr	r2, [r7, #4]
 80018ca:	6b92      	ldr	r2, [r2, #56]	@ 0x38
 80018cc:	0912      	lsrs	r2, r2, #4
 80018ce:	0452      	lsls	r2, r2, #17
 80018d0:	430a      	orrs	r2, r1
 80018d2:	4930      	ldr	r1, [pc, #192]	@ (8001994 <HAL_RCC_OscConfig+0x780>)
 80018d4:	4313      	orrs	r3, r2
 80018d6:	60cb      	str	r3, [r1, #12]
                                 RCC_OscInitStruct->PLL.PLLQ,
                                 RCC_OscInitStruct->PLL.PLLR);
#endif

            /* Enable the main PLL. */
            __HAL_RCC_PLL_ENABLE();
 80018d8:	4b2e      	ldr	r3, [pc, #184]	@ (8001994 <HAL_RCC_OscConfig+0x780>)
 80018da:	681b      	ldr	r3, [r3, #0]
 80018dc:	4a2d      	ldr	r2, [pc, #180]	@ (8001994 <HAL_RCC_OscConfig+0x780>)
 80018de:	f043 7380 	orr.w	r3, r3, #16777216	@ 0x1000000
 80018e2:	6013      	str	r3, [r2, #0]

            /* Enable PLL System Clock output. */
            __HAL_RCC_PLLCLKOUT_ENABLE(RCC_PLL_SYSCLK);
 80018e4:	4b2b      	ldr	r3, [pc, #172]	@ (8001994 <HAL_RCC_OscConfig+0x780>)
 80018e6:	68db      	ldr	r3, [r3, #12]
 80018e8:	4a2a      	ldr	r2, [pc, #168]	@ (8001994 <HAL_RCC_OscConfig+0x780>)
 80018ea:	f043 7380 	orr.w	r3, r3, #16777216	@ 0x1000000
 80018ee:	60d3      	str	r3, [r2, #12]

            /* Get Start Tick*/
            tickstart = HAL_GetTick();
 80018f0:	f7ff f978 	bl	8000be4 <HAL_GetTick>
 80018f4:	6138      	str	r0, [r7, #16]

            /* Wait till PLL is ready */
            while(READ_BIT(RCC->CR, RCC_CR_PLLRDY) == 0U)
 80018f6:	e008      	b.n	800190a <HAL_RCC_OscConfig+0x6f6>
            {
              if((HAL_GetTick() - tickstart) > PLL_TIMEOUT_VALUE)
 80018f8:	f7ff f974 	bl	8000be4 <HAL_GetTick>
 80018fc:	4602      	mov	r2, r0
 80018fe:	693b      	ldr	r3, [r7, #16]
 8001900:	1ad3      	subs	r3, r2, r3
 8001902:	2b02      	cmp	r3, #2
 8001904:	d901      	bls.n	800190a <HAL_RCC_OscConfig+0x6f6>
              {
                return HAL_TIMEOUT;
 8001906:	2303      	movs	r3, #3
 8001908:	e058      	b.n	80019bc <HAL_RCC_OscConfig+0x7a8>
            while(READ_BIT(RCC->CR, RCC_CR_PLLRDY) == 0U)
 800190a:	4b22      	ldr	r3, [pc, #136]	@ (8001994 <HAL_RCC_OscConfig+0x780>)
 800190c:	681b      	ldr	r3, [r3, #0]
 800190e:	f003 7300 	and.w	r3, r3, #33554432	@ 0x2000000
 8001912:	2b00      	cmp	r3, #0
 8001914:	d0f0      	beq.n	80018f8 <HAL_RCC_OscConfig+0x6e4>
        if(sysclk_source != RCC_CFGR_SWS_PLL)
 8001916:	e050      	b.n	80019ba <HAL_RCC_OscConfig+0x7a6>
          }
        }
        else
        {
          /* PLL is already used as System core clock */
          return HAL_ERROR;
 8001918:	2301      	movs	r3, #1
 800191a:	e04f      	b.n	80019bc <HAL_RCC_OscConfig+0x7a8>
      }
      else
      {
        /* PLL configuration is unchanged */
        /* Re-enable PLL if it was disabled (ie. low power mode) */
        if(READ_BIT(RCC->CR, RCC_CR_PLLRDY) == 0U)
 800191c:	4b1d      	ldr	r3, [pc, #116]	@ (8001994 <HAL_RCC_OscConfig+0x780>)
 800191e:	681b      	ldr	r3, [r3, #0]
 8001920:	f003 7300 	and.w	r3, r3, #33554432	@ 0x2000000
 8001924:	2b00      	cmp	r3, #0
 8001926:	d148      	bne.n	80019ba <HAL_RCC_OscConfig+0x7a6>
        {
          /* Enable the main PLL. */
          __HAL_RCC_PLL_ENABLE();
 8001928:	4b1a      	ldr	r3, [pc, #104]	@ (8001994 <HAL_RCC_OscConfig+0x780>)
 800192a:	681b      	ldr	r3, [r3, #0]
 800192c:	4a19      	ldr	r2, [pc, #100]	@ (8001994 <HAL_RCC_OscConfig+0x780>)
 800192e:	f043 7380 	orr.w	r3, r3, #16777216	@ 0x1000000
 8001932:	6013      	str	r3, [r2, #0]

          /* Enable PLL System Clock output. */
          __HAL_RCC_PLLCLKOUT_ENABLE(RCC_PLL_SYSCLK);
 8001934:	4b17      	ldr	r3, [pc, #92]	@ (8001994 <HAL_RCC_OscConfig+0x780>)
 8001936:	68db      	ldr	r3, [r3, #12]
 8001938:	4a16      	ldr	r2, [pc, #88]	@ (8001994 <HAL_RCC_OscConfig+0x780>)
 800193a:	f043 7380 	orr.w	r3, r3, #16777216	@ 0x1000000
 800193e:	60d3      	str	r3, [r2, #12]

          /* Get Start Tick*/
          tickstart = HAL_GetTick();
 8001940:	f7ff f950 	bl	8000be4 <HAL_GetTick>
 8001944:	6138      	str	r0, [r7, #16]

          /* Wait till PLL is ready */
          while(READ_BIT(RCC->CR, RCC_CR_PLLRDY) == 0U)
 8001946:	e008      	b.n	800195a <HAL_RCC_OscConfig+0x746>
          {
            if((HAL_GetTick() - tickstart) > PLL_TIMEOUT_VALUE)
 8001948:	f7ff f94c 	bl	8000be4 <HAL_GetTick>
 800194c:	4602      	mov	r2, r0
 800194e:	693b      	ldr	r3, [r7, #16]
 8001950:	1ad3      	subs	r3, r2, r3
 8001952:	2b02      	cmp	r3, #2
 8001954:	d901      	bls.n	800195a <HAL_RCC_OscConfig+0x746>
            {
              return HAL_TIMEOUT;
 8001956:	2303      	movs	r3, #3
 8001958:	e030      	b.n	80019bc <HAL_RCC_OscConfig+0x7a8>
          while(READ_BIT(RCC->CR, RCC_CR_PLLRDY) == 0U)
 800195a:	4b0e      	ldr	r3, [pc, #56]	@ (8001994 <HAL_RCC_OscConfig+0x780>)
 800195c:	681b      	ldr	r3, [r3, #0]
 800195e:	f003 7300 	and.w	r3, r3, #33554432	@ 0x2000000
 8001962:	2b00      	cmp	r3, #0
 8001964:	d0f0      	beq.n	8001948 <HAL_RCC_OscConfig+0x734>
 8001966:	e028      	b.n	80019ba <HAL_RCC_OscConfig+0x7a6>
      }
    }
    else
    {
      /* Check that PLL is not used as system clock or not */
      if(sysclk_source != RCC_CFGR_SWS_PLL)
 8001968:	69bb      	ldr	r3, [r7, #24]
 800196a:	2b0c      	cmp	r3, #12
 800196c:	d023      	beq.n	80019b6 <HAL_RCC_OscConfig+0x7a2>
      {
        /* Disable the main PLL. */
        __HAL_RCC_PLL_DISABLE();
 800196e:	4b09      	ldr	r3, [pc, #36]	@ (8001994 <HAL_RCC_OscConfig+0x780>)
 8001970:	681b      	ldr	r3, [r3, #0]
 8001972:	4a08      	ldr	r2, [pc, #32]	@ (8001994 <HAL_RCC_OscConfig+0x780>)
 8001974:	f023 7380 	bic.w	r3, r3, #16777216	@ 0x1000000
 8001978:	6013      	str	r3, [r2, #0]

        /* Get Start Tick*/
        tickstart = HAL_GetTick();
 800197a:	f7ff f933 	bl	8000be4 <HAL_GetTick>
 800197e:	6138      	str	r0, [r7, #16]

        /* Wait till PLL is disabled */
        while(READ_BIT(RCC->CR, RCC_CR_PLLRDY) != 0U)
 8001980:	e00c      	b.n	800199c <HAL_RCC_OscConfig+0x788>
        {
          if((HAL_GetTick() - tickstart) > PLL_TIMEOUT_VALUE)
 8001982:	f7ff f92f 	bl	8000be4 <HAL_GetTick>
 8001986:	4602      	mov	r2, r0
 8001988:	693b      	ldr	r3, [r7, #16]
 800198a:	1ad3      	subs	r3, r2, r3
 800198c:	2b02      	cmp	r3, #2
 800198e:	d905      	bls.n	800199c <HAL_RCC_OscConfig+0x788>
          {
            return HAL_TIMEOUT;
 8001990:	2303      	movs	r3, #3
 8001992:	e013      	b.n	80019bc <HAL_RCC_OscConfig+0x7a8>
 8001994:	40021000 	.word	0x40021000
 8001998:	f99d808c 	.word	0xf99d808c
        while(READ_BIT(RCC->CR, RCC_CR_PLLRDY) != 0U)
 800199c:	4b09      	ldr	r3, [pc, #36]	@ (80019c4 <HAL_RCC_OscConfig+0x7b0>)
 800199e:	681b      	ldr	r3, [r3, #0]
 80019a0:	f003 7300 	and.w	r3, r3, #33554432	@ 0x2000000
 80019a4:	2b00      	cmp	r3, #0
 80019a6:	d1ec      	bne.n	8001982 <HAL_RCC_OscConfig+0x76e>
          }
        }
        /* Unselect main PLL clock source and disable main PLL outputs to save power */
#if defined(RCC_PLLSAI2_SUPPORT)
        RCC->PLLCFGR &= ~(RCC_PLLCFGR_PLLSRC | RCC_PLL_SYSCLK | RCC_PLL_48M1CLK | RCC_PLL_SAI3CLK);
 80019a8:	4b06      	ldr	r3, [pc, #24]	@ (80019c4 <HAL_RCC_OscConfig+0x7b0>)
 80019aa:	68da      	ldr	r2, [r3, #12]
 80019ac:	4905      	ldr	r1, [pc, #20]	@ (80019c4 <HAL_RCC_OscConfig+0x7b0>)
 80019ae:	4b06      	ldr	r3, [pc, #24]	@ (80019c8 <HAL_RCC_OscConfig+0x7b4>)
 80019b0:	4013      	ands	r3, r2
 80019b2:	60cb      	str	r3, [r1, #12]
 80019b4:	e001      	b.n	80019ba <HAL_RCC_OscConfig+0x7a6>
#endif /* RCC_PLLSAI2_SUPPORT */
      }
      else
      {
        /* PLL is already used as System core clock */
        return HAL_ERROR;
 80019b6:	2301      	movs	r3, #1
 80019b8:	e000      	b.n	80019bc <HAL_RCC_OscConfig+0x7a8>
      }
    }
  }
  return HAL_OK;
 80019ba:	2300      	movs	r3, #0
}
 80019bc:	4618      	mov	r0, r3
 80019be:	3720      	adds	r7, #32
 80019c0:	46bd      	mov	sp, r7
 80019c2:	bd80      	pop	{r7, pc}
 80019c4:	40021000 	.word	0x40021000
 80019c8:	feeefffc 	.word	0xfeeefffc

080019cc <HAL_RCC_ClockConfig>:
  *         HPRE[3:0] bits to ensure that HCLK not exceed the maximum allowed frequency
  *         (for more details refer to section above "Initialization/de-initialization functions")
  * @retval None
  */
HAL_StatusTypeDef HAL_RCC_ClockConfig(RCC_ClkInitTypeDef  *RCC_ClkInitStruct, uint32_t FLatency)
{
 80019cc:	b580      	push	{r7, lr}
 80019ce:	b084      	sub	sp, #16
 80019d0:	af00      	add	r7, sp, #0
 80019d2:	6078      	str	r0, [r7, #4]
 80019d4:	6039      	str	r1, [r7, #0]
  uint32_t hpre = RCC_SYSCLK_DIV1;
#endif
  HAL_StatusTypeDef status;

  /* Check Null pointer */
  if(RCC_ClkInitStruct == NULL)
 80019d6:	687b      	ldr	r3, [r7, #4]
 80019d8:	2b00      	cmp	r3, #0
 80019da:	d101      	bne.n	80019e0 <HAL_RCC_ClockConfig+0x14>
  {
    return HAL_ERROR;
 80019dc:	2301      	movs	r3, #1
 80019de:	e0e7      	b.n	8001bb0 <HAL_RCC_ClockConfig+0x1e4>
  /* To correctly read data from FLASH memory, the number of wait states (LATENCY)
    must be correctly programmed according to the frequency of the CPU clock
    (HCLK) and the supply voltage of the device. */

  /* Increasing the number of wait states because of higher CPU frequency */
  if(FLatency > __HAL_FLASH_GET_LATENCY())
 80019e0:	4b75      	ldr	r3, [pc, #468]	@ (8001bb8 <HAL_RCC_ClockConfig+0x1ec>)
 80019e2:	681b      	ldr	r3, [r3, #0]
 80019e4:	f003 0307 	and.w	r3, r3, #7
 80019e8:	683a      	ldr	r2, [r7, #0]
 80019ea:	429a      	cmp	r2, r3
 80019ec:	d910      	bls.n	8001a10 <HAL_RCC_ClockConfig+0x44>
  {
    /* Program the new number of wait states to the LATENCY bits in the FLASH_ACR register */
    __HAL_FLASH_SET_LATENCY(FLatency);
 80019ee:	4b72      	ldr	r3, [pc, #456]	@ (8001bb8 <HAL_RCC_ClockConfig+0x1ec>)
 80019f0:	681b      	ldr	r3, [r3, #0]
 80019f2:	f023 0207 	bic.w	r2, r3, #7
 80019f6:	4970      	ldr	r1, [pc, #448]	@ (8001bb8 <HAL_RCC_ClockConfig+0x1ec>)
 80019f8:	683b      	ldr	r3, [r7, #0]
 80019fa:	4313      	orrs	r3, r2
 80019fc:	600b      	str	r3, [r1, #0]

    /* Check that the new number of wait states is taken into account to access the Flash
    memory by reading the FLASH_ACR register */
    if(__HAL_FLASH_GET_LATENCY() != FLatency)
 80019fe:	4b6e      	ldr	r3, [pc, #440]	@ (8001bb8 <HAL_RCC_ClockConfig+0x1ec>)
 8001a00:	681b      	ldr	r3, [r3, #0]
 8001a02:	f003 0307 	and.w	r3, r3, #7
 8001a06:	683a      	ldr	r2, [r7, #0]
 8001a08:	429a      	cmp	r2, r3
 8001a0a:	d001      	beq.n	8001a10 <HAL_RCC_ClockConfig+0x44>
    {
      return HAL_ERROR;
 8001a0c:	2301      	movs	r3, #1
 8001a0e:	e0cf      	b.n	8001bb0 <HAL_RCC_ClockConfig+0x1e4>
    }
  }

  /*----------------- HCLK Configuration prior to SYSCLK----------------------*/
  /* Apply higher HCLK prescaler request here to ensure CPU clock is not of of spec when SYSCLK is increased */
  if(((RCC_ClkInitStruct->ClockType) & RCC_CLOCKTYPE_HCLK) == RCC_CLOCKTYPE_HCLK)
 8001a10:	687b      	ldr	r3, [r7, #4]
 8001a12:	681b      	ldr	r3, [r3, #0]
 8001a14:	f003 0302 	and.w	r3, r3, #2
 8001a18:	2b00      	cmp	r3, #0
 8001a1a:	d010      	beq.n	8001a3e <HAL_RCC_ClockConfig+0x72>
  {
    assert_param(IS_RCC_HCLK(RCC_ClkInitStruct->AHBCLKDivider));

    if(RCC_ClkInitStruct->AHBCLKDivider > READ_BIT(RCC->CFGR, RCC_CFGR_HPRE))
 8001a1c:	687b      	ldr	r3, [r7, #4]
 8001a1e:	689a      	ldr	r2, [r3, #8]
 8001a20:	4b66      	ldr	r3, [pc, #408]	@ (8001bbc <HAL_RCC_ClockConfig+0x1f0>)
 8001a22:	689b      	ldr	r3, [r3, #8]
 8001a24:	f003 03f0 	and.w	r3, r3, #240	@ 0xf0
 8001a28:	429a      	cmp	r2, r3
 8001a2a:	d908      	bls.n	8001a3e <HAL_RCC_ClockConfig+0x72>
    {
      MODIFY_REG(RCC->CFGR, RCC_CFGR_HPRE, RCC_ClkInitStruct->AHBCLKDivider);
 8001a2c:	4b63      	ldr	r3, [pc, #396]	@ (8001bbc <HAL_RCC_ClockConfig+0x1f0>)
 8001a2e:	689b      	ldr	r3, [r3, #8]
 8001a30:	f023 02f0 	bic.w	r2, r3, #240	@ 0xf0
 8001a34:	687b      	ldr	r3, [r7, #4]
 8001a36:	689b      	ldr	r3, [r3, #8]
 8001a38:	4960      	ldr	r1, [pc, #384]	@ (8001bbc <HAL_RCC_ClockConfig+0x1f0>)
 8001a3a:	4313      	orrs	r3, r2
 8001a3c:	608b      	str	r3, [r1, #8]
    }
  }

  /*------------------------- SYSCLK Configuration ---------------------------*/
  if(((RCC_ClkInitStruct->ClockType) & RCC_CLOCKTYPE_SYSCLK) == RCC_CLOCKTYPE_SYSCLK)
 8001a3e:	687b      	ldr	r3, [r7, #4]
 8001a40:	681b      	ldr	r3, [r3, #0]
 8001a42:	f003 0301 	and.w	r3, r3, #1
 8001a46:	2b00      	cmp	r3, #0
 8001a48:	d04c      	beq.n	8001ae4 <HAL_RCC_ClockConfig+0x118>
  {
    assert_param(IS_RCC_SYSCLKSOURCE(RCC_ClkInitStruct->SYSCLKSource));

    /* PLL is selected as System Clock Source */
    if(RCC_ClkInitStruct->SYSCLKSource == RCC_SYSCLKSOURCE_PLLCLK)
 8001a4a:	687b      	ldr	r3, [r7, #4]
 8001a4c:	685b      	ldr	r3, [r3, #4]
 8001a4e:	2b03      	cmp	r3, #3
 8001a50:	d107      	bne.n	8001a62 <HAL_RCC_ClockConfig+0x96>
    {
      /* Check the PLL ready flag */
      if(READ_BIT(RCC->CR, RCC_CR_PLLRDY) == 0U)
 8001a52:	4b5a      	ldr	r3, [pc, #360]	@ (8001bbc <HAL_RCC_ClockConfig+0x1f0>)
 8001a54:	681b      	ldr	r3, [r3, #0]
 8001a56:	f003 7300 	and.w	r3, r3, #33554432	@ 0x2000000
 8001a5a:	2b00      	cmp	r3, #0
 8001a5c:	d121      	bne.n	8001aa2 <HAL_RCC_ClockConfig+0xd6>
      {
        return HAL_ERROR;
 8001a5e:	2301      	movs	r3, #1
 8001a60:	e0a6      	b.n	8001bb0 <HAL_RCC_ClockConfig+0x1e4>
#endif
    }
    else
    {
      /* HSE is selected as System Clock Source */
      if(RCC_ClkInitStruct->SYSCLKSource == RCC_SYSCLKSOURCE_HSE)
 8001a62:	687b      	ldr	r3, [r7, #4]
 8001a64:	685b      	ldr	r3, [r3, #4]
 8001a66:	2b02      	cmp	r3, #2
 8001a68:	d107      	bne.n	8001a7a <HAL_RCC_ClockConfig+0xae>
      {
        /* Check the HSE ready flag */
        if(READ_BIT(RCC->CR, RCC_CR_HSERDY) == 0U)
 8001a6a:	4b54      	ldr	r3, [pc, #336]	@ (8001bbc <HAL_RCC_ClockConfig+0x1f0>)
 8001a6c:	681b      	ldr	r3, [r3, #0]
 8001a6e:	f403 3300 	and.w	r3, r3, #131072	@ 0x20000
 8001a72:	2b00      	cmp	r3, #0
 8001a74:	d115      	bne.n	8001aa2 <HAL_RCC_ClockConfig+0xd6>
        {
          return HAL_ERROR;
 8001a76:	2301      	movs	r3, #1
 8001a78:	e09a      	b.n	8001bb0 <HAL_RCC_ClockConfig+0x1e4>
        }
      }
      /* MSI is selected as System Clock Source */
      else if(RCC_ClkInitStruct->SYSCLKSource == RCC_SYSCLKSOURCE_MSI)
 8001a7a:	687b      	ldr	r3, [r7, #4]
 8001a7c:	685b      	ldr	r3, [r3, #4]
 8001a7e:	2b00      	cmp	r3, #0
 8001a80:	d107      	bne.n	8001a92 <HAL_RCC_ClockConfig+0xc6>
      {
        /* Check the MSI ready flag */
        if(READ_BIT(RCC->CR, RCC_CR_MSIRDY) == 0U)
 8001a82:	4b4e      	ldr	r3, [pc, #312]	@ (8001bbc <HAL_RCC_ClockConfig+0x1f0>)
 8001a84:	681b      	ldr	r3, [r3, #0]
 8001a86:	f003 0302 	and.w	r3, r3, #2
 8001a8a:	2b00      	cmp	r3, #0
 8001a8c:	d109      	bne.n	8001aa2 <HAL_RCC_ClockConfig+0xd6>
        {
          return HAL_ERROR;
 8001a8e:	2301      	movs	r3, #1
 8001a90:	e08e      	b.n	8001bb0 <HAL_RCC_ClockConfig+0x1e4>
      }
      /* HSI is selected as System Clock Source */
      else
      {
        /* Check the HSI ready flag */
        if(READ_BIT(RCC->CR, RCC_CR_HSIRDY) == 0U)
 8001a92:	4b4a      	ldr	r3, [pc, #296]	@ (8001bbc <HAL_RCC_ClockConfig+0x1f0>)
 8001a94:	681b      	ldr	r3, [r3, #0]
 8001a96:	f403 6380 	and.w	r3, r3, #1024	@ 0x400
 8001a9a:	2b00      	cmp	r3, #0
 8001a9c:	d101      	bne.n	8001aa2 <HAL_RCC_ClockConfig+0xd6>
        {
          return HAL_ERROR;
 8001a9e:	2301      	movs	r3, #1
 8001aa0:	e086      	b.n	8001bb0 <HAL_RCC_ClockConfig+0x1e4>
      }
#endif

    }

    MODIFY_REG(RCC->CFGR, RCC_CFGR_SW, RCC_ClkInitStruct->SYSCLKSource);
 8001aa2:	4b46      	ldr	r3, [pc, #280]	@ (8001bbc <HAL_RCC_ClockConfig+0x1f0>)
 8001aa4:	689b      	ldr	r3, [r3, #8]
 8001aa6:	f023 0203 	bic.w	r2, r3, #3
 8001aaa:	687b      	ldr	r3, [r7, #4]
 8001aac:	685b      	ldr	r3, [r3, #4]
 8001aae:	4943      	ldr	r1, [pc, #268]	@ (8001bbc <HAL_RCC_ClockConfig+0x1f0>)
 8001ab0:	4313      	orrs	r3, r2
 8001ab2:	608b      	str	r3, [r1, #8]

    /* Get Start Tick*/
    tickstart = HAL_GetTick();
 8001ab4:	f7ff f896 	bl	8000be4 <HAL_GetTick>
 8001ab8:	60f8      	str	r0, [r7, #12]

    while(__HAL_RCC_GET_SYSCLK_SOURCE() != (RCC_ClkInitStruct->SYSCLKSource << RCC_CFGR_SWS_Pos))
 8001aba:	e00a      	b.n	8001ad2 <HAL_RCC_ClockConfig+0x106>
    {
      if((HAL_GetTick() - tickstart) > CLOCKSWITCH_TIMEOUT_VALUE)
 8001abc:	f7ff f892 	bl	8000be4 <HAL_GetTick>
 8001ac0:	4602      	mov	r2, r0
 8001ac2:	68fb      	ldr	r3, [r7, #12]
 8001ac4:	1ad3      	subs	r3, r2, r3
 8001ac6:	f241 3288 	movw	r2, #5000	@ 0x1388
 8001aca:	4293      	cmp	r3, r2
 8001acc:	d901      	bls.n	8001ad2 <HAL_RCC_ClockConfig+0x106>
      {
        return HAL_TIMEOUT;
 8001ace:	2303      	movs	r3, #3
 8001ad0:	e06e      	b.n	8001bb0 <HAL_RCC_ClockConfig+0x1e4>
    while(__HAL_RCC_GET_SYSCLK_SOURCE() != (RCC_ClkInitStruct->SYSCLKSource << RCC_CFGR_SWS_Pos))
 8001ad2:	4b3a      	ldr	r3, [pc, #232]	@ (8001bbc <HAL_RCC_ClockConfig+0x1f0>)
 8001ad4:	689b      	ldr	r3, [r3, #8]
 8001ad6:	f003 020c 	and.w	r2, r3, #12
 8001ada:	687b      	ldr	r3, [r7, #4]
 8001adc:	685b      	ldr	r3, [r3, #4]
 8001ade:	009b      	lsls	r3, r3, #2
 8001ae0:	429a      	cmp	r2, r3
 8001ae2:	d1eb      	bne.n	8001abc <HAL_RCC_ClockConfig+0xf0>
  }
#endif

  /*----------------- HCLK Configuration after SYSCLK-------------------------*/
  /* Apply lower HCLK prescaler request here to ensure CPU clock is not of of spec when SYSCLK is set */
  if(((RCC_ClkInitStruct->ClockType) & RCC_CLOCKTYPE_HCLK) == RCC_CLOCKTYPE_HCLK)
 8001ae4:	687b      	ldr	r3, [r7, #4]
 8001ae6:	681b      	ldr	r3, [r3, #0]
 8001ae8:	f003 0302 	and.w	r3, r3, #2
 8001aec:	2b00      	cmp	r3, #0
 8001aee:	d010      	beq.n	8001b12 <HAL_RCC_ClockConfig+0x146>
  {
    if(RCC_ClkInitStruct->AHBCLKDivider < READ_BIT(RCC->CFGR, RCC_CFGR_HPRE))
 8001af0:	687b      	ldr	r3, [r7, #4]
 8001af2:	689a      	ldr	r2, [r3, #8]
 8001af4:	4b31      	ldr	r3, [pc, #196]	@ (8001bbc <HAL_RCC_ClockConfig+0x1f0>)
 8001af6:	689b      	ldr	r3, [r3, #8]
 8001af8:	f003 03f0 	and.w	r3, r3, #240	@ 0xf0
 8001afc:	429a      	cmp	r2, r3
 8001afe:	d208      	bcs.n	8001b12 <HAL_RCC_ClockConfig+0x146>
    {
      MODIFY_REG(RCC->CFGR, RCC_CFGR_HPRE, RCC_ClkInitStruct->AHBCLKDivider);
 8001b00:	4b2e      	ldr	r3, [pc, #184]	@ (8001bbc <HAL_RCC_ClockConfig+0x1f0>)
 8001b02:	689b      	ldr	r3, [r3, #8]
 8001b04:	f023 02f0 	bic.w	r2, r3, #240	@ 0xf0
 8001b08:	687b      	ldr	r3, [r7, #4]
 8001b0a:	689b      	ldr	r3, [r3, #8]
 8001b0c:	492b      	ldr	r1, [pc, #172]	@ (8001bbc <HAL_RCC_ClockConfig+0x1f0>)
 8001b0e:	4313      	orrs	r3, r2
 8001b10:	608b      	str	r3, [r1, #8]
    }
  }

  /* Allow decreasing of the number of wait states (because of lower CPU frequency expected) */
  if(FLatency < __HAL_FLASH_GET_LATENCY())
 8001b12:	4b29      	ldr	r3, [pc, #164]	@ (8001bb8 <HAL_RCC_ClockConfig+0x1ec>)
 8001b14:	681b      	ldr	r3, [r3, #0]
 8001b16:	f003 0307 	and.w	r3, r3, #7
 8001b1a:	683a      	ldr	r2, [r7, #0]
 8001b1c:	429a      	cmp	r2, r3
 8001b1e:	d210      	bcs.n	8001b42 <HAL_RCC_ClockConfig+0x176>
  {
    /* Program the new number of wait states to the LATENCY bits in the FLASH_ACR register */
    __HAL_FLASH_SET_LATENCY(FLatency);
 8001b20:	4b25      	ldr	r3, [pc, #148]	@ (8001bb8 <HAL_RCC_ClockConfig+0x1ec>)
 8001b22:	681b      	ldr	r3, [r3, #0]
 8001b24:	f023 0207 	bic.w	r2, r3, #7
 8001b28:	4923      	ldr	r1, [pc, #140]	@ (8001bb8 <HAL_RCC_ClockConfig+0x1ec>)
 8001b2a:	683b      	ldr	r3, [r7, #0]
 8001b2c:	4313      	orrs	r3, r2
 8001b2e:	600b      	str	r3, [r1, #0]

    /* Check that the new number of wait states is taken into account to access the Flash
    memory by reading the FLASH_ACR register */
    if(__HAL_FLASH_GET_LATENCY() != FLatency)
 8001b30:	4b21      	ldr	r3, [pc, #132]	@ (8001bb8 <HAL_RCC_ClockConfig+0x1ec>)
 8001b32:	681b      	ldr	r3, [r3, #0]
 8001b34:	f003 0307 	and.w	r3, r3, #7
 8001b38:	683a      	ldr	r2, [r7, #0]
 8001b3a:	429a      	cmp	r2, r3
 8001b3c:	d001      	beq.n	8001b42 <HAL_RCC_ClockConfig+0x176>
    {
      return HAL_ERROR;
 8001b3e:	2301      	movs	r3, #1
 8001b40:	e036      	b.n	8001bb0 <HAL_RCC_ClockConfig+0x1e4>
    }
  }

  /*-------------------------- PCLK1 Configuration ---------------------------*/
  if(((RCC_ClkInitStruct->ClockType) & RCC_CLOCKTYPE_PCLK1) == RCC_CLOCKTYPE_PCLK1)
 8001b42:	687b      	ldr	r3, [r7, #4]
 8001b44:	681b      	ldr	r3, [r3, #0]
 8001b46:	f003 0304 	and.w	r3, r3, #4
 8001b4a:	2b00      	cmp	r3, #0
 8001b4c:	d008      	beq.n	8001b60 <HAL_RCC_ClockConfig+0x194>
  {
    assert_param(IS_RCC_PCLK(RCC_ClkInitStruct->APB1CLKDivider));
    MODIFY_REG(RCC->CFGR, RCC_CFGR_PPRE1, RCC_ClkInitStruct->APB1CLKDivider);
 8001b4e:	4b1b      	ldr	r3, [pc, #108]	@ (8001bbc <HAL_RCC_ClockConfig+0x1f0>)
 8001b50:	689b      	ldr	r3, [r3, #8]
 8001b52:	f423 62e0 	bic.w	r2, r3, #1792	@ 0x700
 8001b56:	687b      	ldr	r3, [r7, #4]
 8001b58:	68db      	ldr	r3, [r3, #12]
 8001b5a:	4918      	ldr	r1, [pc, #96]	@ (8001bbc <HAL_RCC_ClockConfig+0x1f0>)
 8001b5c:	4313      	orrs	r3, r2
 8001b5e:	608b      	str	r3, [r1, #8]
  }

  /*-------------------------- PCLK2 Configuration ---------------------------*/
  if(((RCC_ClkInitStruct->ClockType) & RCC_CLOCKTYPE_PCLK2) == RCC_CLOCKTYPE_PCLK2)
 8001b60:	687b      	ldr	r3, [r7, #4]
 8001b62:	681b      	ldr	r3, [r3, #0]
 8001b64:	f003 0308 	and.w	r3, r3, #8
 8001b68:	2b00      	cmp	r3, #0
 8001b6a:	d009      	beq.n	8001b80 <HAL_RCC_ClockConfig+0x1b4>
  {
    assert_param(IS_RCC_PCLK(RCC_ClkInitStruct->APB2CLKDivider));
    MODIFY_REG(RCC->CFGR, RCC_CFGR_PPRE2, ((RCC_ClkInitStruct->APB2CLKDivider) << 3U));
 8001b6c:	4b13      	ldr	r3, [pc, #76]	@ (8001bbc <HAL_RCC_ClockConfig+0x1f0>)
 8001b6e:	689b      	ldr	r3, [r3, #8]
 8001b70:	f423 5260 	bic.w	r2, r3, #14336	@ 0x3800
 8001b74:	687b      	ldr	r3, [r7, #4]
 8001b76:	691b      	ldr	r3, [r3, #16]
 8001b78:	00db      	lsls	r3, r3, #3
 8001b7a:	4910      	ldr	r1, [pc, #64]	@ (8001bbc <HAL_RCC_ClockConfig+0x1f0>)
 8001b7c:	4313      	orrs	r3, r2
 8001b7e:	608b      	str	r3, [r1, #8]
  }

  /* Update the SystemCoreClock global variable */
  SystemCoreClock = HAL_RCC_GetSysClockFreq() >> (AHBPrescTable[READ_BIT(RCC->CFGR, RCC_CFGR_HPRE) >> RCC_CFGR_HPRE_Pos] & 0x1FU);
 8001b80:	f000 f824 	bl	8001bcc <HAL_RCC_GetSysClockFreq>
 8001b84:	4602      	mov	r2, r0
 8001b86:	4b0d      	ldr	r3, [pc, #52]	@ (8001bbc <HAL_RCC_ClockConfig+0x1f0>)
 8001b88:	689b      	ldr	r3, [r3, #8]
 8001b8a:	091b      	lsrs	r3, r3, #4
 8001b8c:	f003 030f 	and.w	r3, r3, #15
 8001b90:	490b      	ldr	r1, [pc, #44]	@ (8001bc0 <HAL_RCC_ClockConfig+0x1f4>)
 8001b92:	5ccb      	ldrb	r3, [r1, r3]
 8001b94:	f003 031f 	and.w	r3, r3, #31
 8001b98:	fa22 f303 	lsr.w	r3, r2, r3
 8001b9c:	4a09      	ldr	r2, [pc, #36]	@ (8001bc4 <HAL_RCC_ClockConfig+0x1f8>)
 8001b9e:	6013      	str	r3, [r2, #0]

  /* Configure the source of time base considering new system clocks settings*/
  status = HAL_InitTick(uwTickPrio);
 8001ba0:	4b09      	ldr	r3, [pc, #36]	@ (8001bc8 <HAL_RCC_ClockConfig+0x1fc>)
 8001ba2:	681b      	ldr	r3, [r3, #0]
 8001ba4:	4618      	mov	r0, r3
 8001ba6:	f7fe ffcd 	bl	8000b44 <HAL_InitTick>
 8001baa:	4603      	mov	r3, r0
 8001bac:	72fb      	strb	r3, [r7, #11]

  return status;
 8001bae:	7afb      	ldrb	r3, [r7, #11]
}
 8001bb0:	4618      	mov	r0, r3
 8001bb2:	3710      	adds	r7, #16
 8001bb4:	46bd      	mov	sp, r7
 8001bb6:	bd80      	pop	{r7, pc}
 8001bb8:	40022000 	.word	0x40022000
 8001bbc:	40021000 	.word	0x40021000
 8001bc0:	080052dc 	.word	0x080052dc
 8001bc4:	20000000 	.word	0x20000000
 8001bc8:	20000004 	.word	0x20000004

08001bcc <HAL_RCC_GetSysClockFreq>:
  *
  *
  * @retval SYSCLK frequency
  */
uint32_t HAL_RCC_GetSysClockFreq(void)
{
 8001bcc:	b480      	push	{r7}
 8001bce:	b089      	sub	sp, #36	@ 0x24
 8001bd0:	af00      	add	r7, sp, #0
  uint32_t msirange = 0U, sysclockfreq = 0U;
 8001bd2:	2300      	movs	r3, #0
 8001bd4:	61fb      	str	r3, [r7, #28]
 8001bd6:	2300      	movs	r3, #0
 8001bd8:	61bb      	str	r3, [r7, #24]
  uint32_t pllvco, pllsource, pllr, pllm;    /* no init needed */
  uint32_t sysclk_source, pll_oscsource;

  sysclk_source = __HAL_RCC_GET_SYSCLK_SOURCE();
 8001bda:	4b3e      	ldr	r3, [pc, #248]	@ (8001cd4 <HAL_RCC_GetSysClockFreq+0x108>)
 8001bdc:	689b      	ldr	r3, [r3, #8]
 8001bde:	f003 030c 	and.w	r3, r3, #12
 8001be2:	613b      	str	r3, [r7, #16]
  pll_oscsource = __HAL_RCC_GET_PLL_OSCSOURCE();
 8001be4:	4b3b      	ldr	r3, [pc, #236]	@ (8001cd4 <HAL_RCC_GetSysClockFreq+0x108>)
 8001be6:	68db      	ldr	r3, [r3, #12]
 8001be8:	f003 0303 	and.w	r3, r3, #3
 8001bec:	60fb      	str	r3, [r7, #12]

  if((sysclk_source == RCC_CFGR_SWS_MSI) ||
 8001bee:	693b      	ldr	r3, [r7, #16]
 8001bf0:	2b00      	cmp	r3, #0
 8001bf2:	d005      	beq.n	8001c00 <HAL_RCC_GetSysClockFreq+0x34>
 8001bf4:	693b      	ldr	r3, [r7, #16]
 8001bf6:	2b0c      	cmp	r3, #12
 8001bf8:	d121      	bne.n	8001c3e <HAL_RCC_GetSysClockFreq+0x72>
     ((sysclk_source == RCC_CFGR_SWS_PLL) && (pll_oscsource == RCC_PLLSOURCE_MSI)))
 8001bfa:	68fb      	ldr	r3, [r7, #12]
 8001bfc:	2b01      	cmp	r3, #1
 8001bfe:	d11e      	bne.n	8001c3e <HAL_RCC_GetSysClockFreq+0x72>
  {
    /* MSI or PLL with MSI source used as system clock source */

    /* Get SYSCLK source */
    if(READ_BIT(RCC->CR, RCC_CR_MSIRGSEL) == 0U)
 8001c00:	4b34      	ldr	r3, [pc, #208]	@ (8001cd4 <HAL_RCC_GetSysClockFreq+0x108>)
 8001c02:	681b      	ldr	r3, [r3, #0]
 8001c04:	f003 0308 	and.w	r3, r3, #8
 8001c08:	2b00      	cmp	r3, #0
 8001c0a:	d107      	bne.n	8001c1c <HAL_RCC_GetSysClockFreq+0x50>
    { /* MSISRANGE from RCC_CSR applies */
      msirange = READ_BIT(RCC->CSR, RCC_CSR_MSISRANGE) >> RCC_CSR_MSISRANGE_Pos;
 8001c0c:	4b31      	ldr	r3, [pc, #196]	@ (8001cd4 <HAL_RCC_GetSysClockFreq+0x108>)
 8001c0e:	f8d3 3094 	ldr.w	r3, [r3, #148]	@ 0x94
 8001c12:	0a1b      	lsrs	r3, r3, #8
 8001c14:	f003 030f 	and.w	r3, r3, #15
 8001c18:	61fb      	str	r3, [r7, #28]
 8001c1a:	e005      	b.n	8001c28 <HAL_RCC_GetSysClockFreq+0x5c>
    }
    else
    { /* MSIRANGE from RCC_CR applies */
      msirange = READ_BIT(RCC->CR, RCC_CR_MSIRANGE) >> RCC_CR_MSIRANGE_Pos;
 8001c1c:	4b2d      	ldr	r3, [pc, #180]	@ (8001cd4 <HAL_RCC_GetSysClockFreq+0x108>)
 8001c1e:	681b      	ldr	r3, [r3, #0]
 8001c20:	091b      	lsrs	r3, r3, #4
 8001c22:	f003 030f 	and.w	r3, r3, #15
 8001c26:	61fb      	str	r3, [r7, #28]
    }
    /*MSI frequency range in HZ*/
    msirange = MSIRangeTable[msirange];
 8001c28:	4a2b      	ldr	r2, [pc, #172]	@ (8001cd8 <HAL_RCC_GetSysClockFreq+0x10c>)
 8001c2a:	69fb      	ldr	r3, [r7, #28]
 8001c2c:	f852 3023 	ldr.w	r3, [r2, r3, lsl #2]
 8001c30:	61fb      	str	r3, [r7, #28]

    if(sysclk_source == RCC_CFGR_SWS_MSI)
 8001c32:	693b      	ldr	r3, [r7, #16]
 8001c34:	2b00      	cmp	r3, #0
 8001c36:	d10d      	bne.n	8001c54 <HAL_RCC_GetSysClockFreq+0x88>
    {
      /* MSI used as system clock source */
      sysclockfreq = msirange;
 8001c38:	69fb      	ldr	r3, [r7, #28]
 8001c3a:	61bb      	str	r3, [r7, #24]
    if(sysclk_source == RCC_CFGR_SWS_MSI)
 8001c3c:	e00a      	b.n	8001c54 <HAL_RCC_GetSysClockFreq+0x88>
    }
  }
  else if(sysclk_source == RCC_CFGR_SWS_HSI)
 8001c3e:	693b      	ldr	r3, [r7, #16]
 8001c40:	2b04      	cmp	r3, #4
 8001c42:	d102      	bne.n	8001c4a <HAL_RCC_GetSysClockFreq+0x7e>
  {
    /* HSI used as system clock source */
    sysclockfreq = HSI_VALUE;
 8001c44:	4b25      	ldr	r3, [pc, #148]	@ (8001cdc <HAL_RCC_GetSysClockFreq+0x110>)
 8001c46:	61bb      	str	r3, [r7, #24]
 8001c48:	e004      	b.n	8001c54 <HAL_RCC_GetSysClockFreq+0x88>
  }
  else if(sysclk_source == RCC_CFGR_SWS_HSE)
 8001c4a:	693b      	ldr	r3, [r7, #16]
 8001c4c:	2b08      	cmp	r3, #8
 8001c4e:	d101      	bne.n	8001c54 <HAL_RCC_GetSysClockFreq+0x88>
  {
    /* HSE used as system clock source */
    sysclockfreq = HSE_VALUE;
 8001c50:	4b23      	ldr	r3, [pc, #140]	@ (8001ce0 <HAL_RCC_GetSysClockFreq+0x114>)
 8001c52:	61bb      	str	r3, [r7, #24]
  else
  {
    /* unexpected case: sysclockfreq at 0 */
  }

  if(sysclk_source == RCC_CFGR_SWS_PLL)
 8001c54:	693b      	ldr	r3, [r7, #16]
 8001c56:	2b0c      	cmp	r3, #12
 8001c58:	d134      	bne.n	8001cc4 <HAL_RCC_GetSysClockFreq+0xf8>
    /* PLL used as system clock  source */

    /* PLL_VCO = (HSE_VALUE or HSI_VALUE or MSI_VALUE) * PLLN / PLLM
    SYSCLK = PLL_VCO / PLLR
    */
    pllsource = READ_BIT(RCC->PLLCFGR, RCC_PLLCFGR_PLLSRC);
 8001c5a:	4b1e      	ldr	r3, [pc, #120]	@ (8001cd4 <HAL_RCC_GetSysClockFreq+0x108>)
 8001c5c:	68db      	ldr	r3, [r3, #12]
 8001c5e:	f003 0303 	and.w	r3, r3, #3
 8001c62:	60bb      	str	r3, [r7, #8]

    switch (pllsource)
 8001c64:	68bb      	ldr	r3, [r7, #8]
 8001c66:	2b02      	cmp	r3, #2
 8001c68:	d003      	beq.n	8001c72 <HAL_RCC_GetSysClockFreq+0xa6>
 8001c6a:	68bb      	ldr	r3, [r7, #8]
 8001c6c:	2b03      	cmp	r3, #3
 8001c6e:	d003      	beq.n	8001c78 <HAL_RCC_GetSysClockFreq+0xac>
 8001c70:	e005      	b.n	8001c7e <HAL_RCC_GetSysClockFreq+0xb2>
    {
    case RCC_PLLSOURCE_HSI:  /* HSI used as PLL clock source */
      pllvco = HSI_VALUE;
 8001c72:	4b1a      	ldr	r3, [pc, #104]	@ (8001cdc <HAL_RCC_GetSysClockFreq+0x110>)
 8001c74:	617b      	str	r3, [r7, #20]
      break;
 8001c76:	e005      	b.n	8001c84 <HAL_RCC_GetSysClockFreq+0xb8>

    case RCC_PLLSOURCE_HSE:  /* HSE used as PLL clock source */
      pllvco = HSE_VALUE;
 8001c78:	4b19      	ldr	r3, [pc, #100]	@ (8001ce0 <HAL_RCC_GetSysClockFreq+0x114>)
 8001c7a:	617b      	str	r3, [r7, #20]
      break;
 8001c7c:	e002      	b.n	8001c84 <HAL_RCC_GetSysClockFreq+0xb8>

    case RCC_PLLSOURCE_MSI:  /* MSI used as PLL clock source */
    default:
      pllvco = msirange;
 8001c7e:	69fb      	ldr	r3, [r7, #28]
 8001c80:	617b      	str	r3, [r7, #20]
      break;
 8001c82:	bf00      	nop
    }
    pllm = (READ_BIT(RCC->PLLCFGR, RCC_PLLCFGR_PLLM) >> RCC_PLLCFGR_PLLM_Pos) + 1U ;
 8001c84:	4b13      	ldr	r3, [pc, #76]	@ (8001cd4 <HAL_RCC_GetSysClockFreq+0x108>)
 8001c86:	68db      	ldr	r3, [r3, #12]
 8001c88:	091b      	lsrs	r3, r3, #4
 8001c8a:	f003 0307 	and.w	r3, r3, #7
 8001c8e:	3301      	adds	r3, #1
 8001c90:	607b      	str	r3, [r7, #4]
    pllvco = (pllvco * (READ_BIT(RCC->PLLCFGR, RCC_PLLCFGR_PLLN) >> RCC_PLLCFGR_PLLN_Pos)) / pllm;
 8001c92:	4b10      	ldr	r3, [pc, #64]	@ (8001cd4 <HAL_RCC_GetSysClockFreq+0x108>)
 8001c94:	68db      	ldr	r3, [r3, #12]
 8001c96:	0a1b      	lsrs	r3, r3, #8
 8001c98:	f003 037f 	and.w	r3, r3, #127	@ 0x7f
 8001c9c:	697a      	ldr	r2, [r7, #20]
 8001c9e:	fb03 f202 	mul.w	r2, r3, r2
 8001ca2:	687b      	ldr	r3, [r7, #4]
 8001ca4:	fbb2 f3f3 	udiv	r3, r2, r3
 8001ca8:	617b      	str	r3, [r7, #20]
    pllr = ((READ_BIT(RCC->PLLCFGR, RCC_PLLCFGR_PLLR) >> RCC_PLLCFGR_PLLR_Pos) + 1U ) * 2U;
 8001caa:	4b0a      	ldr	r3, [pc, #40]	@ (8001cd4 <HAL_RCC_GetSysClockFreq+0x108>)
 8001cac:	68db      	ldr	r3, [r3, #12]
 8001cae:	0e5b      	lsrs	r3, r3, #25
 8001cb0:	f003 0303 	and.w	r3, r3, #3
 8001cb4:	3301      	adds	r3, #1
 8001cb6:	005b      	lsls	r3, r3, #1
 8001cb8:	603b      	str	r3, [r7, #0]
    sysclockfreq = pllvco / pllr;
 8001cba:	697a      	ldr	r2, [r7, #20]
 8001cbc:	683b      	ldr	r3, [r7, #0]
 8001cbe:	fbb2 f3f3 	udiv	r3, r2, r3
 8001cc2:	61bb      	str	r3, [r7, #24]
  }

  return sysclockfreq;
 8001cc4:	69bb      	ldr	r3, [r7, #24]
}
 8001cc6:	4618      	mov	r0, r3
 8001cc8:	3724      	adds	r7, #36	@ 0x24
 8001cca:	46bd      	mov	sp, r7
 8001ccc:	f85d 7b04 	ldr.w	r7, [sp], #4
 8001cd0:	4770      	bx	lr
 8001cd2:	bf00      	nop
 8001cd4:	40021000 	.word	0x40021000
 8001cd8:	080052f4 	.word	0x080052f4
 8001cdc:	00f42400 	.word	0x00f42400
 8001ce0:	007a1200 	.word	0x007a1200

08001ce4 <HAL_RCC_GetHCLKFreq>:
  *
  * @note   The SystemCoreClock CMSIS variable is used to store System Clock Frequency.
  * @retval HCLK frequency in Hz
  */
uint32_t HAL_RCC_GetHCLKFreq(void)
{
 8001ce4:	b480      	push	{r7}
 8001ce6:	af00      	add	r7, sp, #0
  return SystemCoreClock;
 8001ce8:	4b03      	ldr	r3, [pc, #12]	@ (8001cf8 <HAL_RCC_GetHCLKFreq+0x14>)
 8001cea:	681b      	ldr	r3, [r3, #0]
}
 8001cec:	4618      	mov	r0, r3
 8001cee:	46bd      	mov	sp, r7
 8001cf0:	f85d 7b04 	ldr.w	r7, [sp], #4
 8001cf4:	4770      	bx	lr
 8001cf6:	bf00      	nop
 8001cf8:	20000000 	.word	0x20000000

08001cfc <HAL_RCC_GetPCLK1Freq>:
  * @note   Each time PCLK1 changes, this function must be called to update the
  *         right PCLK1 value. Otherwise, any configuration based on this function will be incorrect.
  * @retval PCLK1 frequency in Hz
  */
uint32_t HAL_RCC_GetPCLK1Freq(void)
{
 8001cfc:	b580      	push	{r7, lr}
 8001cfe:	af00      	add	r7, sp, #0
  /* Get HCLK source and Compute PCLK1 frequency ---------------------------*/
  return (HAL_RCC_GetHCLKFreq() >> (APBPrescTable[READ_BIT(RCC->CFGR, RCC_CFGR_PPRE1) >> RCC_CFGR_PPRE1_Pos] & 0x1FU));
 8001d00:	f7ff fff0 	bl	8001ce4 <HAL_RCC_GetHCLKFreq>
 8001d04:	4602      	mov	r2, r0
 8001d06:	4b06      	ldr	r3, [pc, #24]	@ (8001d20 <HAL_RCC_GetPCLK1Freq+0x24>)
 8001d08:	689b      	ldr	r3, [r3, #8]
 8001d0a:	0a1b      	lsrs	r3, r3, #8
 8001d0c:	f003 0307 	and.w	r3, r3, #7
 8001d10:	4904      	ldr	r1, [pc, #16]	@ (8001d24 <HAL_RCC_GetPCLK1Freq+0x28>)
 8001d12:	5ccb      	ldrb	r3, [r1, r3]
 8001d14:	f003 031f 	and.w	r3, r3, #31
 8001d18:	fa22 f303 	lsr.w	r3, r2, r3
}
 8001d1c:	4618      	mov	r0, r3
 8001d1e:	bd80      	pop	{r7, pc}
 8001d20:	40021000 	.word	0x40021000
 8001d24:	080052ec 	.word	0x080052ec

08001d28 <HAL_RCC_GetPCLK2Freq>:
  * @note   Each time PCLK2 changes, this function must be called to update the
  *         right PCLK2 value. Otherwise, any configuration based on this function will be incorrect.
  * @retval PCLK2 frequency in Hz
  */
uint32_t HAL_RCC_GetPCLK2Freq(void)
{
 8001d28:	b580      	push	{r7, lr}
 8001d2a:	af00      	add	r7, sp, #0
  /* Get HCLK source and Compute PCLK2 frequency ---------------------------*/
  return (HAL_RCC_GetHCLKFreq()>> (APBPrescTable[READ_BIT(RCC->CFGR, RCC_CFGR_PPRE2) >> RCC_CFGR_PPRE2_Pos] & 0x1FU));
 8001d2c:	f7ff ffda 	bl	8001ce4 <HAL_RCC_GetHCLKFreq>
 8001d30:	4602      	mov	r2, r0
 8001d32:	4b06      	ldr	r3, [pc, #24]	@ (8001d4c <HAL_RCC_GetPCLK2Freq+0x24>)
 8001d34:	689b      	ldr	r3, [r3, #8]
 8001d36:	0adb      	lsrs	r3, r3, #11
 8001d38:	f003 0307 	and.w	r3, r3, #7
 8001d3c:	4904      	ldr	r1, [pc, #16]	@ (8001d50 <HAL_RCC_GetPCLK2Freq+0x28>)
 8001d3e:	5ccb      	ldrb	r3, [r1, r3]
 8001d40:	f003 031f 	and.w	r3, r3, #31
 8001d44:	fa22 f303 	lsr.w	r3, r2, r3
}
 8001d48:	4618      	mov	r0, r3
 8001d4a:	bd80      	pop	{r7, pc}
 8001d4c:	40021000 	.word	0x40021000
 8001d50:	080052ec 	.word	0x080052ec

08001d54 <RCC_SetFlashLatencyFromMSIRange>:
            voltage range.
  * @param  msirange  MSI range value from RCC_MSIRANGE_0 to RCC_MSIRANGE_11
  * @retval HAL status
  */
static HAL_StatusTypeDef RCC_SetFlashLatencyFromMSIRange(uint32_t msirange)
{
 8001d54:	b580      	push	{r7, lr}
 8001d56:	b086      	sub	sp, #24
 8001d58:	af00      	add	r7, sp, #0
 8001d5a:	6078      	str	r0, [r7, #4]
  uint32_t vos;
  uint32_t latency = FLASH_LATENCY_0;  /* default value 0WS */
 8001d5c:	2300      	movs	r3, #0
 8001d5e:	613b      	str	r3, [r7, #16]

  if(__HAL_RCC_PWR_IS_CLK_ENABLED())
 8001d60:	4b2a      	ldr	r3, [pc, #168]	@ (8001e0c <RCC_SetFlashLatencyFromMSIRange+0xb8>)
 8001d62:	6d9b      	ldr	r3, [r3, #88]	@ 0x58
 8001d64:	f003 5380 	and.w	r3, r3, #268435456	@ 0x10000000
 8001d68:	2b00      	cmp	r3, #0
 8001d6a:	d003      	beq.n	8001d74 <RCC_SetFlashLatencyFromMSIRange+0x20>
  {
    vos = HAL_PWREx_GetVoltageRange();
 8001d6c:	f7ff f9ee 	bl	800114c <HAL_PWREx_GetVoltageRange>
 8001d70:	6178      	str	r0, [r7, #20]
 8001d72:	e014      	b.n	8001d9e <RCC_SetFlashLatencyFromMSIRange+0x4a>
  }
  else
  {
    __HAL_RCC_PWR_CLK_ENABLE();
 8001d74:	4b25      	ldr	r3, [pc, #148]	@ (8001e0c <RCC_SetFlashLatencyFromMSIRange+0xb8>)
 8001d76:	6d9b      	ldr	r3, [r3, #88]	@ 0x58
 8001d78:	4a24      	ldr	r2, [pc, #144]	@ (8001e0c <RCC_SetFlashLatencyFromMSIRange+0xb8>)
 8001d7a:	f043 5380 	orr.w	r3, r3, #268435456	@ 0x10000000
 8001d7e:	6593      	str	r3, [r2, #88]	@ 0x58
 8001d80:	4b22      	ldr	r3, [pc, #136]	@ (8001e0c <RCC_SetFlashLatencyFromMSIRange+0xb8>)
 8001d82:	6d9b      	ldr	r3, [r3, #88]	@ 0x58
 8001d84:	f003 5380 	and.w	r3, r3, #268435456	@ 0x10000000
 8001d88:	60fb      	str	r3, [r7, #12]
 8001d8a:	68fb      	ldr	r3, [r7, #12]
    vos = HAL_PWREx_GetVoltageRange();
 8001d8c:	f7ff f9de 	bl	800114c <HAL_PWREx_GetVoltageRange>
 8001d90:	6178      	str	r0, [r7, #20]
    __HAL_RCC_PWR_CLK_DISABLE();
 8001d92:	4b1e      	ldr	r3, [pc, #120]	@ (8001e0c <RCC_SetFlashLatencyFromMSIRange+0xb8>)
 8001d94:	6d9b      	ldr	r3, [r3, #88]	@ 0x58
 8001d96:	4a1d      	ldr	r2, [pc, #116]	@ (8001e0c <RCC_SetFlashLatencyFromMSIRange+0xb8>)
 8001d98:	f023 5380 	bic.w	r3, r3, #268435456	@ 0x10000000
 8001d9c:	6593      	str	r3, [r2, #88]	@ 0x58
  }

  if(vos == PWR_REGULATOR_VOLTAGE_SCALE1)
 8001d9e:	697b      	ldr	r3, [r7, #20]
 8001da0:	f5b3 7f00 	cmp.w	r3, #512	@ 0x200
 8001da4:	d10b      	bne.n	8001dbe <RCC_SetFlashLatencyFromMSIRange+0x6a>
  {
    if(msirange > RCC_MSIRANGE_8)
 8001da6:	687b      	ldr	r3, [r7, #4]
 8001da8:	2b80      	cmp	r3, #128	@ 0x80
 8001daa:	d919      	bls.n	8001de0 <RCC_SetFlashLatencyFromMSIRange+0x8c>
    {
      /* MSI > 16Mhz */
      if(msirange > RCC_MSIRANGE_10)
 8001dac:	687b      	ldr	r3, [r7, #4]
 8001dae:	2ba0      	cmp	r3, #160	@ 0xa0
 8001db0:	d902      	bls.n	8001db8 <RCC_SetFlashLatencyFromMSIRange+0x64>
      {
        /* MSI 48Mhz */
        latency = FLASH_LATENCY_2; /* 2WS */
 8001db2:	2302      	movs	r3, #2
 8001db4:	613b      	str	r3, [r7, #16]
 8001db6:	e013      	b.n	8001de0 <RCC_SetFlashLatencyFromMSIRange+0x8c>
      }
      else
      {
        /* MSI 24Mhz or 32Mhz */
        latency = FLASH_LATENCY_1; /* 1WS */
 8001db8:	2301      	movs	r3, #1
 8001dba:	613b      	str	r3, [r7, #16]
 8001dbc:	e010      	b.n	8001de0 <RCC_SetFlashLatencyFromMSIRange+0x8c>
        latency = FLASH_LATENCY_1; /* 1WS */
      }
      /* else MSI < 8Mhz default FLASH_LATENCY_0 0WS */
    }
#else
    if(msirange > RCC_MSIRANGE_8)
 8001dbe:	687b      	ldr	r3, [r7, #4]
 8001dc0:	2b80      	cmp	r3, #128	@ 0x80
 8001dc2:	d902      	bls.n	8001dca <RCC_SetFlashLatencyFromMSIRange+0x76>
    {
      /* MSI > 16Mhz */
      latency = FLASH_LATENCY_3; /* 3WS */
 8001dc4:	2303      	movs	r3, #3
 8001dc6:	613b      	str	r3, [r7, #16]
 8001dc8:	e00a      	b.n	8001de0 <RCC_SetFlashLatencyFromMSIRange+0x8c>
    }
    else
    {
      if(msirange == RCC_MSIRANGE_8)
 8001dca:	687b      	ldr	r3, [r7, #4]
 8001dcc:	2b80      	cmp	r3, #128	@ 0x80
 8001dce:	d102      	bne.n	8001dd6 <RCC_SetFlashLatencyFromMSIRange+0x82>
      {
        /* MSI 16Mhz */
        latency = FLASH_LATENCY_2; /* 2WS */
 8001dd0:	2302      	movs	r3, #2
 8001dd2:	613b      	str	r3, [r7, #16]
 8001dd4:	e004      	b.n	8001de0 <RCC_SetFlashLatencyFromMSIRange+0x8c>
      }
      else if(msirange == RCC_MSIRANGE_7)
 8001dd6:	687b      	ldr	r3, [r7, #4]
 8001dd8:	2b70      	cmp	r3, #112	@ 0x70
 8001dda:	d101      	bne.n	8001de0 <RCC_SetFlashLatencyFromMSIRange+0x8c>
      {
        /* MSI 8Mhz */
        latency = FLASH_LATENCY_1; /* 1WS */
 8001ddc:	2301      	movs	r3, #1
 8001dde:	613b      	str	r3, [r7, #16]
      }
    }
#endif
  }

  __HAL_FLASH_SET_LATENCY(latency);
 8001de0:	4b0b      	ldr	r3, [pc, #44]	@ (8001e10 <RCC_SetFlashLatencyFromMSIRange+0xbc>)
 8001de2:	681b      	ldr	r3, [r3, #0]
 8001de4:	f023 0207 	bic.w	r2, r3, #7
 8001de8:	4909      	ldr	r1, [pc, #36]	@ (8001e10 <RCC_SetFlashLatencyFromMSIRange+0xbc>)
 8001dea:	693b      	ldr	r3, [r7, #16]
 8001dec:	4313      	orrs	r3, r2
 8001dee:	600b      	str	r3, [r1, #0]

  /* Check that the new number of wait states is taken into account to access the Flash
     memory by reading the FLASH_ACR register */
  if(__HAL_FLASH_GET_LATENCY() != latency)
 8001df0:	4b07      	ldr	r3, [pc, #28]	@ (8001e10 <RCC_SetFlashLatencyFromMSIRange+0xbc>)
 8001df2:	681b      	ldr	r3, [r3, #0]
 8001df4:	f003 0307 	and.w	r3, r3, #7
 8001df8:	693a      	ldr	r2, [r7, #16]
 8001dfa:	429a      	cmp	r2, r3
 8001dfc:	d001      	beq.n	8001e02 <RCC_SetFlashLatencyFromMSIRange+0xae>
  {
    return HAL_ERROR;
 8001dfe:	2301      	movs	r3, #1
 8001e00:	e000      	b.n	8001e04 <RCC_SetFlashLatencyFromMSIRange+0xb0>
  }

  return HAL_OK;
 8001e02:	2300      	movs	r3, #0
}
 8001e04:	4618      	mov	r0, r3
 8001e06:	3718      	adds	r7, #24
 8001e08:	46bd      	mov	sp, r7
 8001e0a:	bd80      	pop	{r7, pc}
 8001e0c:	40021000 	.word	0x40021000
 8001e10:	40022000 	.word	0x40022000

08001e14 <HAL_RCCEx_PeriphCLKConfig>:
  *         the RTC clock source: in this case the access to Backup domain is enabled.
  *
  * @retval HAL status
  */
HAL_StatusTypeDef HAL_RCCEx_PeriphCLKConfig(RCC_PeriphCLKInitTypeDef  *PeriphClkInit)
{
 8001e14:	b580      	push	{r7, lr}
 8001e16:	b086      	sub	sp, #24
 8001e18:	af00      	add	r7, sp, #0
 8001e1a:	6078      	str	r0, [r7, #4]
  uint32_t tmpregister, tickstart;     /* no init needed */
  HAL_StatusTypeDef ret = HAL_OK;      /* Intermediate status */
 8001e1c:	2300      	movs	r3, #0
 8001e1e:	74fb      	strb	r3, [r7, #19]
  HAL_StatusTypeDef status = HAL_OK;   /* Final status */
 8001e20:	2300      	movs	r3, #0
 8001e22:	74bb      	strb	r3, [r7, #18]
  assert_param(IS_RCC_PERIPHCLOCK(PeriphClkInit->PeriphClockSelection));

#if defined(SAI1)

  /*-------------------------- SAI1 clock source configuration ---------------------*/
  if((((PeriphClkInit->PeriphClockSelection) & RCC_PERIPHCLK_SAI1) == RCC_PERIPHCLK_SAI1))
 8001e24:	687b      	ldr	r3, [r7, #4]
 8001e26:	681b      	ldr	r3, [r3, #0]
 8001e28:	f403 6300 	and.w	r3, r3, #2048	@ 0x800
 8001e2c:	2b00      	cmp	r3, #0
 8001e2e:	d041      	beq.n	8001eb4 <HAL_RCCEx_PeriphCLKConfig+0xa0>
  {
    /* Check the parameters */
    assert_param(IS_RCC_SAI1CLK(PeriphClkInit->Sai1ClockSelection));

    switch(PeriphClkInit->Sai1ClockSelection)
 8001e30:	687b      	ldr	r3, [r7, #4]
 8001e32:	6e5b      	ldr	r3, [r3, #100]	@ 0x64
 8001e34:	f5b3 0f40 	cmp.w	r3, #12582912	@ 0xc00000
 8001e38:	d02a      	beq.n	8001e90 <HAL_RCCEx_PeriphCLKConfig+0x7c>
 8001e3a:	f5b3 0f40 	cmp.w	r3, #12582912	@ 0xc00000
 8001e3e:	d824      	bhi.n	8001e8a <HAL_RCCEx_PeriphCLKConfig+0x76>
 8001e40:	f5b3 0f00 	cmp.w	r3, #8388608	@ 0x800000
 8001e44:	d008      	beq.n	8001e58 <HAL_RCCEx_PeriphCLKConfig+0x44>
 8001e46:	f5b3 0f00 	cmp.w	r3, #8388608	@ 0x800000
 8001e4a:	d81e      	bhi.n	8001e8a <HAL_RCCEx_PeriphCLKConfig+0x76>
 8001e4c:	2b00      	cmp	r3, #0
 8001e4e:	d00a      	beq.n	8001e66 <HAL_RCCEx_PeriphCLKConfig+0x52>
 8001e50:	f5b3 0f80 	cmp.w	r3, #4194304	@ 0x400000
 8001e54:	d010      	beq.n	8001e78 <HAL_RCCEx_PeriphCLKConfig+0x64>
 8001e56:	e018      	b.n	8001e8a <HAL_RCCEx_PeriphCLKConfig+0x76>
    {
    case RCC_SAI1CLKSOURCE_PLL:      /* PLL is used as clock source for SAI1*/
      /* Enable SAI Clock output generated from System PLL . */
#if defined(RCC_PLLSAI2_SUPPORT)
      __HAL_RCC_PLLCLKOUT_ENABLE(RCC_PLL_SAI3CLK);
 8001e58:	4b86      	ldr	r3, [pc, #536]	@ (8002074 <HAL_RCCEx_PeriphCLKConfig+0x260>)
 8001e5a:	68db      	ldr	r3, [r3, #12]
 8001e5c:	4a85      	ldr	r2, [pc, #532]	@ (8002074 <HAL_RCCEx_PeriphCLKConfig+0x260>)
 8001e5e:	f443 3380 	orr.w	r3, r3, #65536	@ 0x10000
 8001e62:	60d3      	str	r3, [r2, #12]
#else
      __HAL_RCC_PLLCLKOUT_ENABLE(RCC_PLL_SAI2CLK);
#endif /* RCC_PLLSAI2_SUPPORT */
      /* SAI1 clock source config set later after clock selection check */
      break;
 8001e64:	e015      	b.n	8001e92 <HAL_RCCEx_PeriphCLKConfig+0x7e>

    case RCC_SAI1CLKSOURCE_PLLSAI1:  /* PLLSAI1 is used as clock source for SAI1*/
      /* PLLSAI1 input clock, parameters M, N & P configuration and clock output (PLLSAI1ClockOut) */
      ret = RCCEx_PLLSAI1_Config(&(PeriphClkInit->PLLSAI1), DIVIDER_P_UPDATE);
 8001e66:	687b      	ldr	r3, [r7, #4]
 8001e68:	3304      	adds	r3, #4
 8001e6a:	2100      	movs	r1, #0
 8001e6c:	4618      	mov	r0, r3
 8001e6e:	f000 fabb 	bl	80023e8 <RCCEx_PLLSAI1_Config>
 8001e72:	4603      	mov	r3, r0
 8001e74:	74fb      	strb	r3, [r7, #19]
      /* SAI1 clock source config set later after clock selection check */
      break;
 8001e76:	e00c      	b.n	8001e92 <HAL_RCCEx_PeriphCLKConfig+0x7e>

#if defined(RCC_PLLSAI2_SUPPORT)

    case RCC_SAI1CLKSOURCE_PLLSAI2:  /* PLLSAI2 is used as clock source for SAI1*/
      /* PLLSAI2 input clock, parameters M, N & P configuration clock output (PLLSAI2ClockOut) */
      ret = RCCEx_PLLSAI2_Config(&(PeriphClkInit->PLLSAI2), DIVIDER_P_UPDATE);
 8001e78:	687b      	ldr	r3, [r7, #4]
 8001e7a:	3320      	adds	r3, #32
 8001e7c:	2100      	movs	r1, #0
 8001e7e:	4618      	mov	r0, r3
 8001e80:	f000 fba6 	bl	80025d0 <RCCEx_PLLSAI2_Config>
 8001e84:	4603      	mov	r3, r0
 8001e86:	74fb      	strb	r3, [r7, #19]
      /* SAI1 clock source config set later after clock selection check */
      break;
 8001e88:	e003      	b.n	8001e92 <HAL_RCCEx_PeriphCLKConfig+0x7e>
#endif /* STM32L4P5xx || STM32L4Q5xx || STM32L4R5xx || STM32L4R7xx || STM32L4R9xx || STM32L4S5xx || STM32L4S7xx || STM32L4S9xx */
      /* SAI1 clock source config set later after clock selection check */
      break;

    default:
      ret = HAL_ERROR;
 8001e8a:	2301      	movs	r3, #1
 8001e8c:	74fb      	strb	r3, [r7, #19]
      break;
 8001e8e:	e000      	b.n	8001e92 <HAL_RCCEx_PeriphCLKConfig+0x7e>
      break;
 8001e90:	bf00      	nop
    }

    if(ret == HAL_OK)
 8001e92:	7cfb      	ldrb	r3, [r7, #19]
 8001e94:	2b00      	cmp	r3, #0
 8001e96:	d10b      	bne.n	8001eb0 <HAL_RCCEx_PeriphCLKConfig+0x9c>
    {
      /* Set the source of SAI1 clock*/
      __HAL_RCC_SAI1_CONFIG(PeriphClkInit->Sai1ClockSelection);
 8001e98:	4b76      	ldr	r3, [pc, #472]	@ (8002074 <HAL_RCCEx_PeriphCLKConfig+0x260>)
 8001e9a:	f8d3 3088 	ldr.w	r3, [r3, #136]	@ 0x88
 8001e9e:	f423 0240 	bic.w	r2, r3, #12582912	@ 0xc00000
 8001ea2:	687b      	ldr	r3, [r7, #4]
 8001ea4:	6e5b      	ldr	r3, [r3, #100]	@ 0x64
 8001ea6:	4973      	ldr	r1, [pc, #460]	@ (8002074 <HAL_RCCEx_PeriphCLKConfig+0x260>)
 8001ea8:	4313      	orrs	r3, r2
 8001eaa:	f8c1 3088 	str.w	r3, [r1, #136]	@ 0x88
 8001eae:	e001      	b.n	8001eb4 <HAL_RCCEx_PeriphCLKConfig+0xa0>
    }
    else
    {
      /* set overall return value */
      status = ret;
 8001eb0:	7cfb      	ldrb	r3, [r7, #19]
 8001eb2:	74bb      	strb	r3, [r7, #18]
#endif /* SAI1 */

#if defined(SAI2)

  /*-------------------------- SAI2 clock source configuration ---------------------*/
  if((((PeriphClkInit->PeriphClockSelection) & RCC_PERIPHCLK_SAI2) == RCC_PERIPHCLK_SAI2))
 8001eb4:	687b      	ldr	r3, [r7, #4]
 8001eb6:	681b      	ldr	r3, [r3, #0]
 8001eb8:	f403 5380 	and.w	r3, r3, #4096	@ 0x1000
 8001ebc:	2b00      	cmp	r3, #0
 8001ebe:	d041      	beq.n	8001f44 <HAL_RCCEx_PeriphCLKConfig+0x130>
  {
    /* Check the parameters */
    assert_param(IS_RCC_SAI2CLK(PeriphClkInit->Sai2ClockSelection));

    switch(PeriphClkInit->Sai2ClockSelection)
 8001ec0:	687b      	ldr	r3, [r7, #4]
 8001ec2:	6e9b      	ldr	r3, [r3, #104]	@ 0x68
 8001ec4:	f1b3 7f40 	cmp.w	r3, #50331648	@ 0x3000000
 8001ec8:	d02a      	beq.n	8001f20 <HAL_RCCEx_PeriphCLKConfig+0x10c>
 8001eca:	f1b3 7f40 	cmp.w	r3, #50331648	@ 0x3000000
 8001ece:	d824      	bhi.n	8001f1a <HAL_RCCEx_PeriphCLKConfig+0x106>
 8001ed0:	f1b3 7f00 	cmp.w	r3, #33554432	@ 0x2000000
 8001ed4:	d008      	beq.n	8001ee8 <HAL_RCCEx_PeriphCLKConfig+0xd4>
 8001ed6:	f1b3 7f00 	cmp.w	r3, #33554432	@ 0x2000000
 8001eda:	d81e      	bhi.n	8001f1a <HAL_RCCEx_PeriphCLKConfig+0x106>
 8001edc:	2b00      	cmp	r3, #0
 8001ede:	d00a      	beq.n	8001ef6 <HAL_RCCEx_PeriphCLKConfig+0xe2>
 8001ee0:	f1b3 7f80 	cmp.w	r3, #16777216	@ 0x1000000
 8001ee4:	d010      	beq.n	8001f08 <HAL_RCCEx_PeriphCLKConfig+0xf4>
 8001ee6:	e018      	b.n	8001f1a <HAL_RCCEx_PeriphCLKConfig+0x106>
    {
    case RCC_SAI2CLKSOURCE_PLL:      /* PLL is used as clock source for SAI2*/
      /* Enable SAI Clock output generated from System PLL . */
      __HAL_RCC_PLLCLKOUT_ENABLE(RCC_PLL_SAI3CLK);
 8001ee8:	4b62      	ldr	r3, [pc, #392]	@ (8002074 <HAL_RCCEx_PeriphCLKConfig+0x260>)
 8001eea:	68db      	ldr	r3, [r3, #12]
 8001eec:	4a61      	ldr	r2, [pc, #388]	@ (8002074 <HAL_RCCEx_PeriphCLKConfig+0x260>)
 8001eee:	f443 3380 	orr.w	r3, r3, #65536	@ 0x10000
 8001ef2:	60d3      	str	r3, [r2, #12]
      /* SAI2 clock source config set later after clock selection check */
      break;
 8001ef4:	e015      	b.n	8001f22 <HAL_RCCEx_PeriphCLKConfig+0x10e>

    case RCC_SAI2CLKSOURCE_PLLSAI1: /* PLLSAI1 is used as clock source for SAI2*/
      /* PLLSAI1 input clock, parameters M, N & P configuration and clock output (PLLSAI1ClockOut) */
      ret = RCCEx_PLLSAI1_Config(&(PeriphClkInit->PLLSAI1), DIVIDER_P_UPDATE);
 8001ef6:	687b      	ldr	r3, [r7, #4]
 8001ef8:	3304      	adds	r3, #4
 8001efa:	2100      	movs	r1, #0
 8001efc:	4618      	mov	r0, r3
 8001efe:	f000 fa73 	bl	80023e8 <RCCEx_PLLSAI1_Config>
 8001f02:	4603      	mov	r3, r0
 8001f04:	74fb      	strb	r3, [r7, #19]
      /* SAI2 clock source config set later after clock selection check */
      break;
 8001f06:	e00c      	b.n	8001f22 <HAL_RCCEx_PeriphCLKConfig+0x10e>

    case RCC_SAI2CLKSOURCE_PLLSAI2:  /* PLLSAI2 is used as clock source for SAI2*/
      /* PLLSAI2 input clock, parameters M, N & P configuration and clock output (PLLSAI2ClockOut) */
      ret = RCCEx_PLLSAI2_Config(&(PeriphClkInit->PLLSAI2), DIVIDER_P_UPDATE);
 8001f08:	687b      	ldr	r3, [r7, #4]
 8001f0a:	3320      	adds	r3, #32
 8001f0c:	2100      	movs	r1, #0
 8001f0e:	4618      	mov	r0, r3
 8001f10:	f000 fb5e 	bl	80025d0 <RCCEx_PLLSAI2_Config>
 8001f14:	4603      	mov	r3, r0
 8001f16:	74fb      	strb	r3, [r7, #19]
      /* SAI2 clock source config set later after clock selection check */
      break;
 8001f18:	e003      	b.n	8001f22 <HAL_RCCEx_PeriphCLKConfig+0x10e>
#endif /* STM32L4P5xx || STM32L4Q5xx || STM32L4R5xx || STM32L4R7xx || STM32L4R9xx || STM32L4S5xx || STM32L4S7xx || STM32L4S9xx */
      /* SAI2 clock source config set later after clock selection check */
      break;

    default:
      ret = HAL_ERROR;
 8001f1a:	2301      	movs	r3, #1
 8001f1c:	74fb      	strb	r3, [r7, #19]
      break;
 8001f1e:	e000      	b.n	8001f22 <HAL_RCCEx_PeriphCLKConfig+0x10e>
      break;
 8001f20:	bf00      	nop
    }

    if(ret == HAL_OK)
 8001f22:	7cfb      	ldrb	r3, [r7, #19]
 8001f24:	2b00      	cmp	r3, #0
 8001f26:	d10b      	bne.n	8001f40 <HAL_RCCEx_PeriphCLKConfig+0x12c>
    {
      /* Set the source of SAI2 clock*/
      __HAL_RCC_SAI2_CONFIG(PeriphClkInit->Sai2ClockSelection);
 8001f28:	4b52      	ldr	r3, [pc, #328]	@ (8002074 <HAL_RCCEx_PeriphCLKConfig+0x260>)
 8001f2a:	f8d3 3088 	ldr.w	r3, [r3, #136]	@ 0x88
 8001f2e:	f023 7240 	bic.w	r2, r3, #50331648	@ 0x3000000
 8001f32:	687b      	ldr	r3, [r7, #4]
 8001f34:	6e9b      	ldr	r3, [r3, #104]	@ 0x68
 8001f36:	494f      	ldr	r1, [pc, #316]	@ (8002074 <HAL_RCCEx_PeriphCLKConfig+0x260>)
 8001f38:	4313      	orrs	r3, r2
 8001f3a:	f8c1 3088 	str.w	r3, [r1, #136]	@ 0x88
 8001f3e:	e001      	b.n	8001f44 <HAL_RCCEx_PeriphCLKConfig+0x130>
    }
    else
    {
      /* set overall return value */
      status = ret;
 8001f40:	7cfb      	ldrb	r3, [r7, #19]
 8001f42:	74bb      	strb	r3, [r7, #18]
    }
  }
#endif /* SAI2 */

  /*-------------------------- RTC clock source configuration ----------------------*/
  if((PeriphClkInit->PeriphClockSelection & RCC_PERIPHCLK_RTC) == RCC_PERIPHCLK_RTC)
 8001f44:	687b      	ldr	r3, [r7, #4]
 8001f46:	681b      	ldr	r3, [r3, #0]
 8001f48:	f403 3300 	and.w	r3, r3, #131072	@ 0x20000
 8001f4c:	2b00      	cmp	r3, #0
 8001f4e:	f000 80a0 	beq.w	8002092 <HAL_RCCEx_PeriphCLKConfig+0x27e>
  {
    FlagStatus       pwrclkchanged = RESET;
 8001f52:	2300      	movs	r3, #0
 8001f54:	747b      	strb	r3, [r7, #17]

    /* Check for RTC Parameters used to output RTCCLK */
    assert_param(IS_RCC_RTCCLKSOURCE(PeriphClkInit->RTCClockSelection));

    /* Enable Power Clock */
    if(__HAL_RCC_PWR_IS_CLK_DISABLED() != 0U)
 8001f56:	4b47      	ldr	r3, [pc, #284]	@ (8002074 <HAL_RCCEx_PeriphCLKConfig+0x260>)
 8001f58:	6d9b      	ldr	r3, [r3, #88]	@ 0x58
 8001f5a:	f003 5380 	and.w	r3, r3, #268435456	@ 0x10000000
 8001f5e:	2b00      	cmp	r3, #0
 8001f60:	d101      	bne.n	8001f66 <HAL_RCCEx_PeriphCLKConfig+0x152>
 8001f62:	2301      	movs	r3, #1
 8001f64:	e000      	b.n	8001f68 <HAL_RCCEx_PeriphCLKConfig+0x154>
 8001f66:	2300      	movs	r3, #0
 8001f68:	2b00      	cmp	r3, #0
 8001f6a:	d00d      	beq.n	8001f88 <HAL_RCCEx_PeriphCLKConfig+0x174>
    {
      __HAL_RCC_PWR_CLK_ENABLE();
 8001f6c:	4b41      	ldr	r3, [pc, #260]	@ (8002074 <HAL_RCCEx_PeriphCLKConfig+0x260>)
 8001f6e:	6d9b      	ldr	r3, [r3, #88]	@ 0x58
 8001f70:	4a40      	ldr	r2, [pc, #256]	@ (8002074 <HAL_RCCEx_PeriphCLKConfig+0x260>)
 8001f72:	f043 5380 	orr.w	r3, r3, #268435456	@ 0x10000000
 8001f76:	6593      	str	r3, [r2, #88]	@ 0x58
 8001f78:	4b3e      	ldr	r3, [pc, #248]	@ (8002074 <HAL_RCCEx_PeriphCLKConfig+0x260>)
 8001f7a:	6d9b      	ldr	r3, [r3, #88]	@ 0x58
 8001f7c:	f003 5380 	and.w	r3, r3, #268435456	@ 0x10000000
 8001f80:	60bb      	str	r3, [r7, #8]
 8001f82:	68bb      	ldr	r3, [r7, #8]
      pwrclkchanged = SET;
 8001f84:	2301      	movs	r3, #1
 8001f86:	747b      	strb	r3, [r7, #17]
    }

    /* Enable write access to Backup domain */
    SET_BIT(PWR->CR1, PWR_CR1_DBP);
 8001f88:	4b3b      	ldr	r3, [pc, #236]	@ (8002078 <HAL_RCCEx_PeriphCLKConfig+0x264>)
 8001f8a:	681b      	ldr	r3, [r3, #0]
 8001f8c:	4a3a      	ldr	r2, [pc, #232]	@ (8002078 <HAL_RCCEx_PeriphCLKConfig+0x264>)
 8001f8e:	f443 7380 	orr.w	r3, r3, #256	@ 0x100
 8001f92:	6013      	str	r3, [r2, #0]

    /* Wait for Backup domain Write protection disable */
    tickstart = HAL_GetTick();
 8001f94:	f7fe fe26 	bl	8000be4 <HAL_GetTick>
 8001f98:	60f8      	str	r0, [r7, #12]

    while(READ_BIT(PWR->CR1, PWR_CR1_DBP) == 0U)
 8001f9a:	e009      	b.n	8001fb0 <HAL_RCCEx_PeriphCLKConfig+0x19c>
    {
      if((HAL_GetTick() - tickstart) > RCC_DBP_TIMEOUT_VALUE)
 8001f9c:	f7fe fe22 	bl	8000be4 <HAL_GetTick>
 8001fa0:	4602      	mov	r2, r0
 8001fa2:	68fb      	ldr	r3, [r7, #12]
 8001fa4:	1ad3      	subs	r3, r2, r3
 8001fa6:	2b02      	cmp	r3, #2
 8001fa8:	d902      	bls.n	8001fb0 <HAL_RCCEx_PeriphCLKConfig+0x19c>
      {
        ret = HAL_TIMEOUT;
 8001faa:	2303      	movs	r3, #3
 8001fac:	74fb      	strb	r3, [r7, #19]
        break;
 8001fae:	e005      	b.n	8001fbc <HAL_RCCEx_PeriphCLKConfig+0x1a8>
    while(READ_BIT(PWR->CR1, PWR_CR1_DBP) == 0U)
 8001fb0:	4b31      	ldr	r3, [pc, #196]	@ (8002078 <HAL_RCCEx_PeriphCLKConfig+0x264>)
 8001fb2:	681b      	ldr	r3, [r3, #0]
 8001fb4:	f403 7380 	and.w	r3, r3, #256	@ 0x100
 8001fb8:	2b00      	cmp	r3, #0
 8001fba:	d0ef      	beq.n	8001f9c <HAL_RCCEx_PeriphCLKConfig+0x188>
      }
    }

    if(ret == HAL_OK)
 8001fbc:	7cfb      	ldrb	r3, [r7, #19]
 8001fbe:	2b00      	cmp	r3, #0
 8001fc0:	d15c      	bne.n	800207c <HAL_RCCEx_PeriphCLKConfig+0x268>
    {
      /* Reset the Backup domain only if the RTC Clock source selection is modified from default */
      tmpregister = READ_BIT(RCC->BDCR, RCC_BDCR_RTCSEL);
 8001fc2:	4b2c      	ldr	r3, [pc, #176]	@ (8002074 <HAL_RCCEx_PeriphCLKConfig+0x260>)
 8001fc4:	f8d3 3090 	ldr.w	r3, [r3, #144]	@ 0x90
 8001fc8:	f403 7340 	and.w	r3, r3, #768	@ 0x300
 8001fcc:	617b      	str	r3, [r7, #20]

      if((tmpregister != RCC_RTCCLKSOURCE_NONE) && (tmpregister != PeriphClkInit->RTCClockSelection))
 8001fce:	697b      	ldr	r3, [r7, #20]
 8001fd0:	2b00      	cmp	r3, #0
 8001fd2:	d01f      	beq.n	8002014 <HAL_RCCEx_PeriphCLKConfig+0x200>
 8001fd4:	687b      	ldr	r3, [r7, #4]
 8001fd6:	f8d3 3084 	ldr.w	r3, [r3, #132]	@ 0x84
 8001fda:	697a      	ldr	r2, [r7, #20]
 8001fdc:	429a      	cmp	r2, r3
 8001fde:	d019      	beq.n	8002014 <HAL_RCCEx_PeriphCLKConfig+0x200>
      {
        /* Store the content of BDCR register before the reset of Backup Domain */
        tmpregister = READ_BIT(RCC->BDCR, ~(RCC_BDCR_RTCSEL));
 8001fe0:	4b24      	ldr	r3, [pc, #144]	@ (8002074 <HAL_RCCEx_PeriphCLKConfig+0x260>)
 8001fe2:	f8d3 3090 	ldr.w	r3, [r3, #144]	@ 0x90
 8001fe6:	f423 7340 	bic.w	r3, r3, #768	@ 0x300
 8001fea:	617b      	str	r3, [r7, #20]
        /* RTC Clock selection can be changed only if the Backup Domain is reset */
        __HAL_RCC_BACKUPRESET_FORCE();
 8001fec:	4b21      	ldr	r3, [pc, #132]	@ (8002074 <HAL_RCCEx_PeriphCLKConfig+0x260>)
 8001fee:	f8d3 3090 	ldr.w	r3, [r3, #144]	@ 0x90
 8001ff2:	4a20      	ldr	r2, [pc, #128]	@ (8002074 <HAL_RCCEx_PeriphCLKConfig+0x260>)
 8001ff4:	f443 3380 	orr.w	r3, r3, #65536	@ 0x10000
 8001ff8:	f8c2 3090 	str.w	r3, [r2, #144]	@ 0x90
        __HAL_RCC_BACKUPRESET_RELEASE();
 8001ffc:	4b1d      	ldr	r3, [pc, #116]	@ (8002074 <HAL_RCCEx_PeriphCLKConfig+0x260>)
 8001ffe:	f8d3 3090 	ldr.w	r3, [r3, #144]	@ 0x90
 8002002:	4a1c      	ldr	r2, [pc, #112]	@ (8002074 <HAL_RCCEx_PeriphCLKConfig+0x260>)
 8002004:	f423 3380 	bic.w	r3, r3, #65536	@ 0x10000
 8002008:	f8c2 3090 	str.w	r3, [r2, #144]	@ 0x90
        /* Restore the Content of BDCR register */
        RCC->BDCR = tmpregister;
 800200c:	4a19      	ldr	r2, [pc, #100]	@ (8002074 <HAL_RCCEx_PeriphCLKConfig+0x260>)
 800200e:	697b      	ldr	r3, [r7, #20]
 8002010:	f8c2 3090 	str.w	r3, [r2, #144]	@ 0x90
      }

      /* Wait for LSE reactivation if LSE was enable prior to Backup Domain reset */
      if (HAL_IS_BIT_SET(tmpregister, RCC_BDCR_LSEON))
 8002014:	697b      	ldr	r3, [r7, #20]
 8002016:	f003 0301 	and.w	r3, r3, #1
 800201a:	2b00      	cmp	r3, #0
 800201c:	d016      	beq.n	800204c <HAL_RCCEx_PeriphCLKConfig+0x238>
      {
        /* Get Start Tick*/
        tickstart = HAL_GetTick();
 800201e:	f7fe fde1 	bl	8000be4 <HAL_GetTick>
 8002022:	60f8      	str	r0, [r7, #12]

        /* Wait till LSE is ready */
        while(READ_BIT(RCC->BDCR, RCC_BDCR_LSERDY) == 0U)
 8002024:	e00b      	b.n	800203e <HAL_RCCEx_PeriphCLKConfig+0x22a>
        {
          if((HAL_GetTick() - tickstart) > RCC_LSE_TIMEOUT_VALUE)
 8002026:	f7fe fddd 	bl	8000be4 <HAL_GetTick>
 800202a:	4602      	mov	r2, r0
 800202c:	68fb      	ldr	r3, [r7, #12]
 800202e:	1ad3      	subs	r3, r2, r3
 8002030:	f241 3288 	movw	r2, #5000	@ 0x1388
 8002034:	4293      	cmp	r3, r2
 8002036:	d902      	bls.n	800203e <HAL_RCCEx_PeriphCLKConfig+0x22a>
          {
            ret = HAL_TIMEOUT;
 8002038:	2303      	movs	r3, #3
 800203a:	74fb      	strb	r3, [r7, #19]
            break;
 800203c:	e006      	b.n	800204c <HAL_RCCEx_PeriphCLKConfig+0x238>
        while(READ_BIT(RCC->BDCR, RCC_BDCR_LSERDY) == 0U)
 800203e:	4b0d      	ldr	r3, [pc, #52]	@ (8002074 <HAL_RCCEx_PeriphCLKConfig+0x260>)
 8002040:	f8d3 3090 	ldr.w	r3, [r3, #144]	@ 0x90
 8002044:	f003 0302 	and.w	r3, r3, #2
 8002048:	2b00      	cmp	r3, #0
 800204a:	d0ec      	beq.n	8002026 <HAL_RCCEx_PeriphCLKConfig+0x212>
          }
        }
      }

      if(ret == HAL_OK)
 800204c:	7cfb      	ldrb	r3, [r7, #19]
 800204e:	2b00      	cmp	r3, #0
 8002050:	d10c      	bne.n	800206c <HAL_RCCEx_PeriphCLKConfig+0x258>
      {
        /* Apply new RTC clock source selection */
        __HAL_RCC_RTC_CONFIG(PeriphClkInit->RTCClockSelection);
 8002052:	4b08      	ldr	r3, [pc, #32]	@ (8002074 <HAL_RCCEx_PeriphCLKConfig+0x260>)
 8002054:	f8d3 3090 	ldr.w	r3, [r3, #144]	@ 0x90
 8002058:	f423 7240 	bic.w	r2, r3, #768	@ 0x300
 800205c:	687b      	ldr	r3, [r7, #4]
 800205e:	f8d3 3084 	ldr.w	r3, [r3, #132]	@ 0x84
 8002062:	4904      	ldr	r1, [pc, #16]	@ (8002074 <HAL_RCCEx_PeriphCLKConfig+0x260>)
 8002064:	4313      	orrs	r3, r2
 8002066:	f8c1 3090 	str.w	r3, [r1, #144]	@ 0x90
 800206a:	e009      	b.n	8002080 <HAL_RCCEx_PeriphCLKConfig+0x26c>
      }
      else
      {
        /* set overall return value */
        status = ret;
 800206c:	7cfb      	ldrb	r3, [r7, #19]
 800206e:	74bb      	strb	r3, [r7, #18]
 8002070:	e006      	b.n	8002080 <HAL_RCCEx_PeriphCLKConfig+0x26c>
 8002072:	bf00      	nop
 8002074:	40021000 	.word	0x40021000
 8002078:	40007000 	.word	0x40007000
      }
    }
    else
    {
      /* set overall return value */
      status = ret;
 800207c:	7cfb      	ldrb	r3, [r7, #19]
 800207e:	74bb      	strb	r3, [r7, #18]
    }

    /* Restore clock configuration if changed */
    if(pwrclkchanged == SET)
 8002080:	7c7b      	ldrb	r3, [r7, #17]
 8002082:	2b01      	cmp	r3, #1
 8002084:	d105      	bne.n	8002092 <HAL_RCCEx_PeriphCLKConfig+0x27e>
    {
      __HAL_RCC_PWR_CLK_DISABLE();
 8002086:	4b9e      	ldr	r3, [pc, #632]	@ (8002300 <HAL_RCCEx_PeriphCLKConfig+0x4ec>)
 8002088:	6d9b      	ldr	r3, [r3, #88]	@ 0x58
 800208a:	4a9d      	ldr	r2, [pc, #628]	@ (8002300 <HAL_RCCEx_PeriphCLKConfig+0x4ec>)
 800208c:	f023 5380 	bic.w	r3, r3, #268435456	@ 0x10000000
 8002090:	6593      	str	r3, [r2, #88]	@ 0x58
    }
  }

  /*-------------------------- USART1 clock source configuration -------------------*/
  if(((PeriphClkInit->PeriphClockSelection) & RCC_PERIPHCLK_USART1) == RCC_PERIPHCLK_USART1)
 8002092:	687b      	ldr	r3, [r7, #4]
 8002094:	681b      	ldr	r3, [r3, #0]
 8002096:	f003 0301 	and.w	r3, r3, #1
 800209a:	2b00      	cmp	r3, #0
 800209c:	d00a      	beq.n	80020b4 <HAL_RCCEx_PeriphCLKConfig+0x2a0>
  {
    /* Check the parameters */
    assert_param(IS_RCC_USART1CLKSOURCE(PeriphClkInit->Usart1ClockSelection));

    /* Configure the USART1 clock source */
    __HAL_RCC_USART1_CONFIG(PeriphClkInit->Usart1ClockSelection);
 800209e:	4b98      	ldr	r3, [pc, #608]	@ (8002300 <HAL_RCCEx_PeriphCLKConfig+0x4ec>)
 80020a0:	f8d3 3088 	ldr.w	r3, [r3, #136]	@ 0x88
 80020a4:	f023 0203 	bic.w	r2, r3, #3
 80020a8:	687b      	ldr	r3, [r7, #4]
 80020aa:	6b9b      	ldr	r3, [r3, #56]	@ 0x38
 80020ac:	4994      	ldr	r1, [pc, #592]	@ (8002300 <HAL_RCCEx_PeriphCLKConfig+0x4ec>)
 80020ae:	4313      	orrs	r3, r2
 80020b0:	f8c1 3088 	str.w	r3, [r1, #136]	@ 0x88
  }

  /*-------------------------- USART2 clock source configuration -------------------*/
  if(((PeriphClkInit->PeriphClockSelection) & RCC_PERIPHCLK_USART2) == RCC_PERIPHCLK_USART2)
 80020b4:	687b      	ldr	r3, [r7, #4]
 80020b6:	681b      	ldr	r3, [r3, #0]
 80020b8:	f003 0302 	and.w	r3, r3, #2
 80020bc:	2b00      	cmp	r3, #0
 80020be:	d00a      	beq.n	80020d6 <HAL_RCCEx_PeriphCLKConfig+0x2c2>
  {
    /* Check the parameters */
    assert_param(IS_RCC_USART2CLKSOURCE(PeriphClkInit->Usart2ClockSelection));

    /* Configure the USART2 clock source */
    __HAL_RCC_USART2_CONFIG(PeriphClkInit->Usart2ClockSelection);
 80020c0:	4b8f      	ldr	r3, [pc, #572]	@ (8002300 <HAL_RCCEx_PeriphCLKConfig+0x4ec>)
 80020c2:	f8d3 3088 	ldr.w	r3, [r3, #136]	@ 0x88
 80020c6:	f023 020c 	bic.w	r2, r3, #12
 80020ca:	687b      	ldr	r3, [r7, #4]
 80020cc:	6bdb      	ldr	r3, [r3, #60]	@ 0x3c
 80020ce:	498c      	ldr	r1, [pc, #560]	@ (8002300 <HAL_RCCEx_PeriphCLKConfig+0x4ec>)
 80020d0:	4313      	orrs	r3, r2
 80020d2:	f8c1 3088 	str.w	r3, [r1, #136]	@ 0x88
  }

#if defined(USART3)

  /*-------------------------- USART3 clock source configuration -------------------*/
  if(((PeriphClkInit->PeriphClockSelection) & RCC_PERIPHCLK_USART3) == RCC_PERIPHCLK_USART3)
 80020d6:	687b      	ldr	r3, [r7, #4]
 80020d8:	681b      	ldr	r3, [r3, #0]
 80020da:	f003 0304 	and.w	r3, r3, #4
 80020de:	2b00      	cmp	r3, #0
 80020e0:	d00a      	beq.n	80020f8 <HAL_RCCEx_PeriphCLKConfig+0x2e4>
  {
    /* Check the parameters */
    assert_param(IS_RCC_USART3CLKSOURCE(PeriphClkInit->Usart3ClockSelection));

    /* Configure the USART3 clock source */
    __HAL_RCC_USART3_CONFIG(PeriphClkInit->Usart3ClockSelection);
 80020e2:	4b87      	ldr	r3, [pc, #540]	@ (8002300 <HAL_RCCEx_PeriphCLKConfig+0x4ec>)
 80020e4:	f8d3 3088 	ldr.w	r3, [r3, #136]	@ 0x88
 80020e8:	f023 0230 	bic.w	r2, r3, #48	@ 0x30
 80020ec:	687b      	ldr	r3, [r7, #4]
 80020ee:	6c1b      	ldr	r3, [r3, #64]	@ 0x40
 80020f0:	4983      	ldr	r1, [pc, #524]	@ (8002300 <HAL_RCCEx_PeriphCLKConfig+0x4ec>)
 80020f2:	4313      	orrs	r3, r2
 80020f4:	f8c1 3088 	str.w	r3, [r1, #136]	@ 0x88
#endif /* USART3 */

#if defined(UART4)

  /*-------------------------- UART4 clock source configuration --------------------*/
  if(((PeriphClkInit->PeriphClockSelection) & RCC_PERIPHCLK_UART4) == RCC_PERIPHCLK_UART4)
 80020f8:	687b      	ldr	r3, [r7, #4]
 80020fa:	681b      	ldr	r3, [r3, #0]
 80020fc:	f003 0308 	and.w	r3, r3, #8
 8002100:	2b00      	cmp	r3, #0
 8002102:	d00a      	beq.n	800211a <HAL_RCCEx_PeriphCLKConfig+0x306>
  {
    /* Check the parameters */
    assert_param(IS_RCC_UART4CLKSOURCE(PeriphClkInit->Uart4ClockSelection));

    /* Configure the UART4 clock source */
    __HAL_RCC_UART4_CONFIG(PeriphClkInit->Uart4ClockSelection);
 8002104:	4b7e      	ldr	r3, [pc, #504]	@ (8002300 <HAL_RCCEx_PeriphCLKConfig+0x4ec>)
 8002106:	f8d3 3088 	ldr.w	r3, [r3, #136]	@ 0x88
 800210a:	f023 02c0 	bic.w	r2, r3, #192	@ 0xc0
 800210e:	687b      	ldr	r3, [r7, #4]
 8002110:	6c5b      	ldr	r3, [r3, #68]	@ 0x44
 8002112:	497b      	ldr	r1, [pc, #492]	@ (8002300 <HAL_RCCEx_PeriphCLKConfig+0x4ec>)
 8002114:	4313      	orrs	r3, r2
 8002116:	f8c1 3088 	str.w	r3, [r1, #136]	@ 0x88
#endif /* UART4 */

#if defined(UART5)

  /*-------------------------- UART5 clock source configuration --------------------*/
  if(((PeriphClkInit->PeriphClockSelection) & RCC_PERIPHCLK_UART5) == RCC_PERIPHCLK_UART5)
 800211a:	687b      	ldr	r3, [r7, #4]
 800211c:	681b      	ldr	r3, [r3, #0]
 800211e:	f003 0310 	and.w	r3, r3, #16
 8002122:	2b00      	cmp	r3, #0
 8002124:	d00a      	beq.n	800213c <HAL_RCCEx_PeriphCLKConfig+0x328>
  {
    /* Check the parameters */
    assert_param(IS_RCC_UART5CLKSOURCE(PeriphClkInit->Uart5ClockSelection));

    /* Configure the UART5 clock source */
    __HAL_RCC_UART5_CONFIG(PeriphClkInit->Uart5ClockSelection);
 8002126:	4b76      	ldr	r3, [pc, #472]	@ (8002300 <HAL_RCCEx_PeriphCLKConfig+0x4ec>)
 8002128:	f8d3 3088 	ldr.w	r3, [r3, #136]	@ 0x88
 800212c:	f423 7240 	bic.w	r2, r3, #768	@ 0x300
 8002130:	687b      	ldr	r3, [r7, #4]
 8002132:	6c9b      	ldr	r3, [r3, #72]	@ 0x48
 8002134:	4972      	ldr	r1, [pc, #456]	@ (8002300 <HAL_RCCEx_PeriphCLKConfig+0x4ec>)
 8002136:	4313      	orrs	r3, r2
 8002138:	f8c1 3088 	str.w	r3, [r1, #136]	@ 0x88
  }

#endif /* UART5 */

  /*-------------------------- LPUART1 clock source configuration ------------------*/
  if(((PeriphClkInit->PeriphClockSelection) & RCC_PERIPHCLK_LPUART1) == RCC_PERIPHCLK_LPUART1)
 800213c:	687b      	ldr	r3, [r7, #4]
 800213e:	681b      	ldr	r3, [r3, #0]
 8002140:	f003 0320 	and.w	r3, r3, #32
 8002144:	2b00      	cmp	r3, #0
 8002146:	d00a      	beq.n	800215e <HAL_RCCEx_PeriphCLKConfig+0x34a>
  {
    /* Check the parameters */
    assert_param(IS_RCC_LPUART1CLKSOURCE(PeriphClkInit->Lpuart1ClockSelection));

    /* Configure the LPUART1 clock source */
    __HAL_RCC_LPUART1_CONFIG(PeriphClkInit->Lpuart1ClockSelection);
 8002148:	4b6d      	ldr	r3, [pc, #436]	@ (8002300 <HAL_RCCEx_PeriphCLKConfig+0x4ec>)
 800214a:	f8d3 3088 	ldr.w	r3, [r3, #136]	@ 0x88
 800214e:	f423 6240 	bic.w	r2, r3, #3072	@ 0xc00
 8002152:	687b      	ldr	r3, [r7, #4]
 8002154:	6cdb      	ldr	r3, [r3, #76]	@ 0x4c
 8002156:	496a      	ldr	r1, [pc, #424]	@ (8002300 <HAL_RCCEx_PeriphCLKConfig+0x4ec>)
 8002158:	4313      	orrs	r3, r2
 800215a:	f8c1 3088 	str.w	r3, [r1, #136]	@ 0x88
  }

  /*-------------------------- LPTIM1 clock source configuration -------------------*/
  if(((PeriphClkInit->PeriphClockSelection) & RCC_PERIPHCLK_LPTIM1) == (RCC_PERIPHCLK_LPTIM1))
 800215e:	687b      	ldr	r3, [r7, #4]
 8002160:	681b      	ldr	r3, [r3, #0]
 8002162:	f403 7300 	and.w	r3, r3, #512	@ 0x200
 8002166:	2b00      	cmp	r3, #0
 8002168:	d00a      	beq.n	8002180 <HAL_RCCEx_PeriphCLKConfig+0x36c>
  {
    assert_param(IS_RCC_LPTIM1CLK(PeriphClkInit->Lptim1ClockSelection));
    __HAL_RCC_LPTIM1_CONFIG(PeriphClkInit->Lptim1ClockSelection);
 800216a:	4b65      	ldr	r3, [pc, #404]	@ (8002300 <HAL_RCCEx_PeriphCLKConfig+0x4ec>)
 800216c:	f8d3 3088 	ldr.w	r3, [r3, #136]	@ 0x88
 8002170:	f423 2240 	bic.w	r2, r3, #786432	@ 0xc0000
 8002174:	687b      	ldr	r3, [r7, #4]
 8002176:	6ddb      	ldr	r3, [r3, #92]	@ 0x5c
 8002178:	4961      	ldr	r1, [pc, #388]	@ (8002300 <HAL_RCCEx_PeriphCLKConfig+0x4ec>)
 800217a:	4313      	orrs	r3, r2
 800217c:	f8c1 3088 	str.w	r3, [r1, #136]	@ 0x88
  }

  /*-------------------------- LPTIM2 clock source configuration -------------------*/
  if(((PeriphClkInit->PeriphClockSelection) & RCC_PERIPHCLK_LPTIM2) == (RCC_PERIPHCLK_LPTIM2))
 8002180:	687b      	ldr	r3, [r7, #4]
 8002182:	681b      	ldr	r3, [r3, #0]
 8002184:	f403 6380 	and.w	r3, r3, #1024	@ 0x400
 8002188:	2b00      	cmp	r3, #0
 800218a:	d00a      	beq.n	80021a2 <HAL_RCCEx_PeriphCLKConfig+0x38e>
  {
    assert_param(IS_RCC_LPTIM2CLK(PeriphClkInit->Lptim2ClockSelection));
    __HAL_RCC_LPTIM2_CONFIG(PeriphClkInit->Lptim2ClockSelection);
 800218c:	4b5c      	ldr	r3, [pc, #368]	@ (8002300 <HAL_RCCEx_PeriphCLKConfig+0x4ec>)
 800218e:	f8d3 3088 	ldr.w	r3, [r3, #136]	@ 0x88
 8002192:	f423 1240 	bic.w	r2, r3, #3145728	@ 0x300000
 8002196:	687b      	ldr	r3, [r7, #4]
 8002198:	6e1b      	ldr	r3, [r3, #96]	@ 0x60
 800219a:	4959      	ldr	r1, [pc, #356]	@ (8002300 <HAL_RCCEx_PeriphCLKConfig+0x4ec>)
 800219c:	4313      	orrs	r3, r2
 800219e:	f8c1 3088 	str.w	r3, [r1, #136]	@ 0x88
  }

  /*-------------------------- I2C1 clock source configuration ---------------------*/
  if(((PeriphClkInit->PeriphClockSelection) & RCC_PERIPHCLK_I2C1) == RCC_PERIPHCLK_I2C1)
 80021a2:	687b      	ldr	r3, [r7, #4]
 80021a4:	681b      	ldr	r3, [r3, #0]
 80021a6:	f003 0340 	and.w	r3, r3, #64	@ 0x40
 80021aa:	2b00      	cmp	r3, #0
 80021ac:	d00a      	beq.n	80021c4 <HAL_RCCEx_PeriphCLKConfig+0x3b0>
  {
    /* Check the parameters */
    assert_param(IS_RCC_I2C1CLKSOURCE(PeriphClkInit->I2c1ClockSelection));

    /* Configure the I2C1 clock source */
    __HAL_RCC_I2C1_CONFIG(PeriphClkInit->I2c1ClockSelection);
 80021ae:	4b54      	ldr	r3, [pc, #336]	@ (8002300 <HAL_RCCEx_PeriphCLKConfig+0x4ec>)
 80021b0:	f8d3 3088 	ldr.w	r3, [r3, #136]	@ 0x88
 80021b4:	f423 5240 	bic.w	r2, r3, #12288	@ 0x3000
 80021b8:	687b      	ldr	r3, [r7, #4]
 80021ba:	6d1b      	ldr	r3, [r3, #80]	@ 0x50
 80021bc:	4950      	ldr	r1, [pc, #320]	@ (8002300 <HAL_RCCEx_PeriphCLKConfig+0x4ec>)
 80021be:	4313      	orrs	r3, r2
 80021c0:	f8c1 3088 	str.w	r3, [r1, #136]	@ 0x88
  }

#if defined(I2C2)

  /*-------------------------- I2C2 clock source configuration ---------------------*/
  if(((PeriphClkInit->PeriphClockSelection) & RCC_PERIPHCLK_I2C2) == RCC_PERIPHCLK_I2C2)
 80021c4:	687b      	ldr	r3, [r7, #4]
 80021c6:	681b      	ldr	r3, [r3, #0]
 80021c8:	f003 0380 	and.w	r3, r3, #128	@ 0x80
 80021cc:	2b00      	cmp	r3, #0
 80021ce:	d00a      	beq.n	80021e6 <HAL_RCCEx_PeriphCLKConfig+0x3d2>
  {
    /* Check the parameters */
    assert_param(IS_RCC_I2C2CLKSOURCE(PeriphClkInit->I2c2ClockSelection));

    /* Configure the I2C2 clock source */
    __HAL_RCC_I2C2_CONFIG(PeriphClkInit->I2c2ClockSelection);
 80021d0:	4b4b      	ldr	r3, [pc, #300]	@ (8002300 <HAL_RCCEx_PeriphCLKConfig+0x4ec>)
 80021d2:	f8d3 3088 	ldr.w	r3, [r3, #136]	@ 0x88
 80021d6:	f423 4240 	bic.w	r2, r3, #49152	@ 0xc000
 80021da:	687b      	ldr	r3, [r7, #4]
 80021dc:	6d5b      	ldr	r3, [r3, #84]	@ 0x54
 80021de:	4948      	ldr	r1, [pc, #288]	@ (8002300 <HAL_RCCEx_PeriphCLKConfig+0x4ec>)
 80021e0:	4313      	orrs	r3, r2
 80021e2:	f8c1 3088 	str.w	r3, [r1, #136]	@ 0x88
  }

#endif /* I2C2 */

  /*-------------------------- I2C3 clock source configuration ---------------------*/
  if(((PeriphClkInit->PeriphClockSelection) & RCC_PERIPHCLK_I2C3) == RCC_PERIPHCLK_I2C3)
 80021e6:	687b      	ldr	r3, [r7, #4]
 80021e8:	681b      	ldr	r3, [r3, #0]
 80021ea:	f403 7380 	and.w	r3, r3, #256	@ 0x100
 80021ee:	2b00      	cmp	r3, #0
 80021f0:	d00a      	beq.n	8002208 <HAL_RCCEx_PeriphCLKConfig+0x3f4>
  {
    /* Check the parameters */
    assert_param(IS_RCC_I2C3CLKSOURCE(PeriphClkInit->I2c3ClockSelection));

    /* Configure the I2C3 clock source */
    __HAL_RCC_I2C3_CONFIG(PeriphClkInit->I2c3ClockSelection);
 80021f2:	4b43      	ldr	r3, [pc, #268]	@ (8002300 <HAL_RCCEx_PeriphCLKConfig+0x4ec>)
 80021f4:	f8d3 3088 	ldr.w	r3, [r3, #136]	@ 0x88
 80021f8:	f423 3240 	bic.w	r2, r3, #196608	@ 0x30000
 80021fc:	687b      	ldr	r3, [r7, #4]
 80021fe:	6d9b      	ldr	r3, [r3, #88]	@ 0x58
 8002200:	493f      	ldr	r1, [pc, #252]	@ (8002300 <HAL_RCCEx_PeriphCLKConfig+0x4ec>)
 8002202:	4313      	orrs	r3, r2
 8002204:	f8c1 3088 	str.w	r3, [r1, #136]	@ 0x88
#endif /* I2C4 */

#if defined(USB_OTG_FS) || defined(USB)

  /*-------------------------- USB clock source configuration ----------------------*/
  if(((PeriphClkInit->PeriphClockSelection) & RCC_PERIPHCLK_USB) == (RCC_PERIPHCLK_USB))
 8002208:	687b      	ldr	r3, [r7, #4]
 800220a:	681b      	ldr	r3, [r3, #0]
 800220c:	f403 5300 	and.w	r3, r3, #8192	@ 0x2000
 8002210:	2b00      	cmp	r3, #0
 8002212:	d028      	beq.n	8002266 <HAL_RCCEx_PeriphCLKConfig+0x452>
  {
    assert_param(IS_RCC_USBCLKSOURCE(PeriphClkInit->UsbClockSelection));
    __HAL_RCC_USB_CONFIG(PeriphClkInit->UsbClockSelection);
 8002214:	4b3a      	ldr	r3, [pc, #232]	@ (8002300 <HAL_RCCEx_PeriphCLKConfig+0x4ec>)
 8002216:	f8d3 3088 	ldr.w	r3, [r3, #136]	@ 0x88
 800221a:	f023 6240 	bic.w	r2, r3, #201326592	@ 0xc000000
 800221e:	687b      	ldr	r3, [r7, #4]
 8002220:	6edb      	ldr	r3, [r3, #108]	@ 0x6c
 8002222:	4937      	ldr	r1, [pc, #220]	@ (8002300 <HAL_RCCEx_PeriphCLKConfig+0x4ec>)
 8002224:	4313      	orrs	r3, r2
 8002226:	f8c1 3088 	str.w	r3, [r1, #136]	@ 0x88

    if(PeriphClkInit->UsbClockSelection == RCC_USBCLKSOURCE_PLL)
 800222a:	687b      	ldr	r3, [r7, #4]
 800222c:	6edb      	ldr	r3, [r3, #108]	@ 0x6c
 800222e:	f1b3 6f00 	cmp.w	r3, #134217728	@ 0x8000000
 8002232:	d106      	bne.n	8002242 <HAL_RCCEx_PeriphCLKConfig+0x42e>
    {
      /* Enable PLL48M1CLK output clock */
      __HAL_RCC_PLLCLKOUT_ENABLE(RCC_PLL_48M1CLK);
 8002234:	4b32      	ldr	r3, [pc, #200]	@ (8002300 <HAL_RCCEx_PeriphCLKConfig+0x4ec>)
 8002236:	68db      	ldr	r3, [r3, #12]
 8002238:	4a31      	ldr	r2, [pc, #196]	@ (8002300 <HAL_RCCEx_PeriphCLKConfig+0x4ec>)
 800223a:	f443 1380 	orr.w	r3, r3, #1048576	@ 0x100000
 800223e:	60d3      	str	r3, [r2, #12]
 8002240:	e011      	b.n	8002266 <HAL_RCCEx_PeriphCLKConfig+0x452>
    }
    else
    {
#if defined(RCC_PLLSAI1_SUPPORT)
      if(PeriphClkInit->UsbClockSelection == RCC_USBCLKSOURCE_PLLSAI1)
 8002242:	687b      	ldr	r3, [r7, #4]
 8002244:	6edb      	ldr	r3, [r3, #108]	@ 0x6c
 8002246:	f1b3 6f80 	cmp.w	r3, #67108864	@ 0x4000000
 800224a:	d10c      	bne.n	8002266 <HAL_RCCEx_PeriphCLKConfig+0x452>
      {
        /* PLLSAI1 input clock, parameters M, N & Q configuration and clock output (PLLSAI1ClockOut) */
        ret = RCCEx_PLLSAI1_Config(&(PeriphClkInit->PLLSAI1), DIVIDER_Q_UPDATE);
 800224c:	687b      	ldr	r3, [r7, #4]
 800224e:	3304      	adds	r3, #4
 8002250:	2101      	movs	r1, #1
 8002252:	4618      	mov	r0, r3
 8002254:	f000 f8c8 	bl	80023e8 <RCCEx_PLLSAI1_Config>
 8002258:	4603      	mov	r3, r0
 800225a:	74fb      	strb	r3, [r7, #19]

        if(ret != HAL_OK)
 800225c:	7cfb      	ldrb	r3, [r7, #19]
 800225e:	2b00      	cmp	r3, #0
 8002260:	d001      	beq.n	8002266 <HAL_RCCEx_PeriphCLKConfig+0x452>
        {
          /* set overall return value */
          status = ret;
 8002262:	7cfb      	ldrb	r3, [r7, #19]
 8002264:	74bb      	strb	r3, [r7, #18]
#endif /* USB_OTG_FS || USB */

#if defined(SDMMC1)

  /*-------------------------- SDMMC1 clock source configuration -------------------*/
  if(((PeriphClkInit->PeriphClockSelection) & RCC_PERIPHCLK_SDMMC1) == (RCC_PERIPHCLK_SDMMC1))
 8002266:	687b      	ldr	r3, [r7, #4]
 8002268:	681b      	ldr	r3, [r3, #0]
 800226a:	f403 2300 	and.w	r3, r3, #524288	@ 0x80000
 800226e:	2b00      	cmp	r3, #0
 8002270:	d028      	beq.n	80022c4 <HAL_RCCEx_PeriphCLKConfig+0x4b0>
  {
    assert_param(IS_RCC_SDMMC1CLKSOURCE(PeriphClkInit->Sdmmc1ClockSelection));
    __HAL_RCC_SDMMC1_CONFIG(PeriphClkInit->Sdmmc1ClockSelection);
 8002272:	4b23      	ldr	r3, [pc, #140]	@ (8002300 <HAL_RCCEx_PeriphCLKConfig+0x4ec>)
 8002274:	f8d3 3088 	ldr.w	r3, [r3, #136]	@ 0x88
 8002278:	f023 6240 	bic.w	r2, r3, #201326592	@ 0xc000000
 800227c:	687b      	ldr	r3, [r7, #4]
 800227e:	6f1b      	ldr	r3, [r3, #112]	@ 0x70
 8002280:	491f      	ldr	r1, [pc, #124]	@ (8002300 <HAL_RCCEx_PeriphCLKConfig+0x4ec>)
 8002282:	4313      	orrs	r3, r2
 8002284:	f8c1 3088 	str.w	r3, [r1, #136]	@ 0x88

    if(PeriphClkInit->Sdmmc1ClockSelection == RCC_SDMMC1CLKSOURCE_PLL)   /* PLL "Q" ? */
 8002288:	687b      	ldr	r3, [r7, #4]
 800228a:	6f1b      	ldr	r3, [r3, #112]	@ 0x70
 800228c:	f1b3 6f00 	cmp.w	r3, #134217728	@ 0x8000000
 8002290:	d106      	bne.n	80022a0 <HAL_RCCEx_PeriphCLKConfig+0x48c>
    {
      /* Enable PLL48M1CLK output clock */
      __HAL_RCC_PLLCLKOUT_ENABLE(RCC_PLL_48M1CLK);
 8002292:	4b1b      	ldr	r3, [pc, #108]	@ (8002300 <HAL_RCCEx_PeriphCLKConfig+0x4ec>)
 8002294:	68db      	ldr	r3, [r3, #12]
 8002296:	4a1a      	ldr	r2, [pc, #104]	@ (8002300 <HAL_RCCEx_PeriphCLKConfig+0x4ec>)
 8002298:	f443 1380 	orr.w	r3, r3, #1048576	@ 0x100000
 800229c:	60d3      	str	r3, [r2, #12]
 800229e:	e011      	b.n	80022c4 <HAL_RCCEx_PeriphCLKConfig+0x4b0>
    {
      /* Enable PLLSAI3CLK output */
      __HAL_RCC_PLLCLKOUT_ENABLE(RCC_PLL_SAI3CLK);
    }
#endif
    else if(PeriphClkInit->Sdmmc1ClockSelection == RCC_SDMMC1CLKSOURCE_PLLSAI1)
 80022a0:	687b      	ldr	r3, [r7, #4]
 80022a2:	6f1b      	ldr	r3, [r3, #112]	@ 0x70
 80022a4:	f1b3 6f80 	cmp.w	r3, #67108864	@ 0x4000000
 80022a8:	d10c      	bne.n	80022c4 <HAL_RCCEx_PeriphCLKConfig+0x4b0>
    {
      /* PLLSAI1 input clock, parameters M, N & Q configuration and clock output (PLLSAI1ClockOut) */
      ret = RCCEx_PLLSAI1_Config(&(PeriphClkInit->PLLSAI1), DIVIDER_Q_UPDATE);
 80022aa:	687b      	ldr	r3, [r7, #4]
 80022ac:	3304      	adds	r3, #4
 80022ae:	2101      	movs	r1, #1
 80022b0:	4618      	mov	r0, r3
 80022b2:	f000 f899 	bl	80023e8 <RCCEx_PLLSAI1_Config>
 80022b6:	4603      	mov	r3, r0
 80022b8:	74fb      	strb	r3, [r7, #19]

      if(ret != HAL_OK)
 80022ba:	7cfb      	ldrb	r3, [r7, #19]
 80022bc:	2b00      	cmp	r3, #0
 80022be:	d001      	beq.n	80022c4 <HAL_RCCEx_PeriphCLKConfig+0x4b0>
      {
        /* set overall return value */
        status = ret;
 80022c0:	7cfb      	ldrb	r3, [r7, #19]
 80022c2:	74bb      	strb	r3, [r7, #18]
  }

#endif /* SDMMC1 */

  /*-------------------------- RNG clock source configuration ----------------------*/
  if(((PeriphClkInit->PeriphClockSelection) & RCC_PERIPHCLK_RNG) == (RCC_PERIPHCLK_RNG))
 80022c4:	687b      	ldr	r3, [r7, #4]
 80022c6:	681b      	ldr	r3, [r3, #0]
 80022c8:	f403 2380 	and.w	r3, r3, #262144	@ 0x40000
 80022cc:	2b00      	cmp	r3, #0
 80022ce:	d02b      	beq.n	8002328 <HAL_RCCEx_PeriphCLKConfig+0x514>
  {
    assert_param(IS_RCC_RNGCLKSOURCE(PeriphClkInit->RngClockSelection));
    __HAL_RCC_RNG_CONFIG(PeriphClkInit->RngClockSelection);
 80022d0:	4b0b      	ldr	r3, [pc, #44]	@ (8002300 <HAL_RCCEx_PeriphCLKConfig+0x4ec>)
 80022d2:	f8d3 3088 	ldr.w	r3, [r3, #136]	@ 0x88
 80022d6:	f023 6240 	bic.w	r2, r3, #201326592	@ 0xc000000
 80022da:	687b      	ldr	r3, [r7, #4]
 80022dc:	6f5b      	ldr	r3, [r3, #116]	@ 0x74
 80022de:	4908      	ldr	r1, [pc, #32]	@ (8002300 <HAL_RCCEx_PeriphCLKConfig+0x4ec>)
 80022e0:	4313      	orrs	r3, r2
 80022e2:	f8c1 3088 	str.w	r3, [r1, #136]	@ 0x88

    if(PeriphClkInit->RngClockSelection == RCC_RNGCLKSOURCE_PLL)
 80022e6:	687b      	ldr	r3, [r7, #4]
 80022e8:	6f5b      	ldr	r3, [r3, #116]	@ 0x74
 80022ea:	f1b3 6f00 	cmp.w	r3, #134217728	@ 0x8000000
 80022ee:	d109      	bne.n	8002304 <HAL_RCCEx_PeriphCLKConfig+0x4f0>
    {
      /* Enable PLL48M1CLK output clock */
      __HAL_RCC_PLLCLKOUT_ENABLE(RCC_PLL_48M1CLK);
 80022f0:	4b03      	ldr	r3, [pc, #12]	@ (8002300 <HAL_RCCEx_PeriphCLKConfig+0x4ec>)
 80022f2:	68db      	ldr	r3, [r3, #12]
 80022f4:	4a02      	ldr	r2, [pc, #8]	@ (8002300 <HAL_RCCEx_PeriphCLKConfig+0x4ec>)
 80022f6:	f443 1380 	orr.w	r3, r3, #1048576	@ 0x100000
 80022fa:	60d3      	str	r3, [r2, #12]
 80022fc:	e014      	b.n	8002328 <HAL_RCCEx_PeriphCLKConfig+0x514>
 80022fe:	bf00      	nop
 8002300:	40021000 	.word	0x40021000
    }
#if defined(RCC_PLLSAI1_SUPPORT)
    else if(PeriphClkInit->RngClockSelection == RCC_RNGCLKSOURCE_PLLSAI1)
 8002304:	687b      	ldr	r3, [r7, #4]
 8002306:	6f5b      	ldr	r3, [r3, #116]	@ 0x74
 8002308:	f1b3 6f80 	cmp.w	r3, #67108864	@ 0x4000000
 800230c:	d10c      	bne.n	8002328 <HAL_RCCEx_PeriphCLKConfig+0x514>
    {
      /* PLLSAI1 input clock, parameters M, N & Q configuration and clock output (PLLSAI1ClockOut) */
      ret = RCCEx_PLLSAI1_Config(&(PeriphClkInit->PLLSAI1), DIVIDER_Q_UPDATE);
 800230e:	687b      	ldr	r3, [r7, #4]
 8002310:	3304      	adds	r3, #4
 8002312:	2101      	movs	r1, #1
 8002314:	4618      	mov	r0, r3
 8002316:	f000 f867 	bl	80023e8 <RCCEx_PLLSAI1_Config>
 800231a:	4603      	mov	r3, r0
 800231c:	74fb      	strb	r3, [r7, #19]

      if(ret != HAL_OK)
 800231e:	7cfb      	ldrb	r3, [r7, #19]
 8002320:	2b00      	cmp	r3, #0
 8002322:	d001      	beq.n	8002328 <HAL_RCCEx_PeriphCLKConfig+0x514>
      {
        /* set overall return value */
        status = ret;
 8002324:	7cfb      	ldrb	r3, [r7, #19]
 8002326:	74bb      	strb	r3, [r7, #18]
    }
  }

  /*-------------------------- ADC clock source configuration ----------------------*/
#if !defined(STM32L412xx) && !defined(STM32L422xx)
  if(((PeriphClkInit->PeriphClockSelection) & RCC_PERIPHCLK_ADC) == RCC_PERIPHCLK_ADC)
 8002328:	687b      	ldr	r3, [r7, #4]
 800232a:	681b      	ldr	r3, [r3, #0]
 800232c:	f403 4380 	and.w	r3, r3, #16384	@ 0x4000
 8002330:	2b00      	cmp	r3, #0
 8002332:	d02f      	beq.n	8002394 <HAL_RCCEx_PeriphCLKConfig+0x580>
  {
    /* Check the parameters */
    assert_param(IS_RCC_ADCCLKSOURCE(PeriphClkInit->AdcClockSelection));

    /* Configure the ADC interface clock source */
    __HAL_RCC_ADC_CONFIG(PeriphClkInit->AdcClockSelection);
 8002334:	4b2b      	ldr	r3, [pc, #172]	@ (80023e4 <HAL_RCCEx_PeriphCLKConfig+0x5d0>)
 8002336:	f8d3 3088 	ldr.w	r3, [r3, #136]	@ 0x88
 800233a:	f023 5240 	bic.w	r2, r3, #805306368	@ 0x30000000
 800233e:	687b      	ldr	r3, [r7, #4]
 8002340:	6f9b      	ldr	r3, [r3, #120]	@ 0x78
 8002342:	4928      	ldr	r1, [pc, #160]	@ (80023e4 <HAL_RCCEx_PeriphCLKConfig+0x5d0>)
 8002344:	4313      	orrs	r3, r2
 8002346:	f8c1 3088 	str.w	r3, [r1, #136]	@ 0x88

#if defined(RCC_PLLSAI1_SUPPORT)
    if(PeriphClkInit->AdcClockSelection == RCC_ADCCLKSOURCE_PLLSAI1)
 800234a:	687b      	ldr	r3, [r7, #4]
 800234c:	6f9b      	ldr	r3, [r3, #120]	@ 0x78
 800234e:	f1b3 5f80 	cmp.w	r3, #268435456	@ 0x10000000
 8002352:	d10d      	bne.n	8002370 <HAL_RCCEx_PeriphCLKConfig+0x55c>
    {
      /* PLLSAI1 input clock, parameters M, N & R configuration and clock output (PLLSAI1ClockOut) */
      ret = RCCEx_PLLSAI1_Config(&(PeriphClkInit->PLLSAI1), DIVIDER_R_UPDATE);
 8002354:	687b      	ldr	r3, [r7, #4]
 8002356:	3304      	adds	r3, #4
 8002358:	2102      	movs	r1, #2
 800235a:	4618      	mov	r0, r3
 800235c:	f000 f844 	bl	80023e8 <RCCEx_PLLSAI1_Config>
 8002360:	4603      	mov	r3, r0
 8002362:	74fb      	strb	r3, [r7, #19]

      if(ret != HAL_OK)
 8002364:	7cfb      	ldrb	r3, [r7, #19]
 8002366:	2b00      	cmp	r3, #0
 8002368:	d014      	beq.n	8002394 <HAL_RCCEx_PeriphCLKConfig+0x580>
      {
        /* set overall return value */
        status = ret;
 800236a:	7cfb      	ldrb	r3, [r7, #19]
 800236c:	74bb      	strb	r3, [r7, #18]
 800236e:	e011      	b.n	8002394 <HAL_RCCEx_PeriphCLKConfig+0x580>
    }
#endif /* RCC_PLLSAI1_SUPPORT */

#if defined(STM32L471xx) || defined(STM32L475xx) || defined(STM32L476xx) || defined(STM32L485xx) || defined(STM32L486xx) || defined(STM32L496xx) || defined(STM32L4A6xx)

    else if(PeriphClkInit->AdcClockSelection == RCC_ADCCLKSOURCE_PLLSAI2)
 8002370:	687b      	ldr	r3, [r7, #4]
 8002372:	6f9b      	ldr	r3, [r3, #120]	@ 0x78
 8002374:	f1b3 5f00 	cmp.w	r3, #536870912	@ 0x20000000
 8002378:	d10c      	bne.n	8002394 <HAL_RCCEx_PeriphCLKConfig+0x580>
    {
      /* PLLSAI2 input clock, parameters M, N & R configuration and clock output (PLLSAI2ClockOut) */
      ret = RCCEx_PLLSAI2_Config(&(PeriphClkInit->PLLSAI2), DIVIDER_R_UPDATE);
 800237a:	687b      	ldr	r3, [r7, #4]
 800237c:	3320      	adds	r3, #32
 800237e:	2102      	movs	r1, #2
 8002380:	4618      	mov	r0, r3
 8002382:	f000 f925 	bl	80025d0 <RCCEx_PLLSAI2_Config>
 8002386:	4603      	mov	r3, r0
 8002388:	74fb      	strb	r3, [r7, #19]

      if(ret != HAL_OK)
 800238a:	7cfb      	ldrb	r3, [r7, #19]
 800238c:	2b00      	cmp	r3, #0
 800238e:	d001      	beq.n	8002394 <HAL_RCCEx_PeriphCLKConfig+0x580>
      {
        /* set overall return value */
        status = ret;
 8002390:	7cfb      	ldrb	r3, [r7, #19]
 8002392:	74bb      	strb	r3, [r7, #18]
#endif /* !STM32L412xx && !STM32L422xx */

#if defined(SWPMI1)

  /*-------------------------- SWPMI1 clock source configuration -------------------*/
  if(((PeriphClkInit->PeriphClockSelection) & RCC_PERIPHCLK_SWPMI1) == RCC_PERIPHCLK_SWPMI1)
 8002394:	687b      	ldr	r3, [r7, #4]
 8002396:	681b      	ldr	r3, [r3, #0]
 8002398:	f403 4300 	and.w	r3, r3, #32768	@ 0x8000
 800239c:	2b00      	cmp	r3, #0
 800239e:	d00a      	beq.n	80023b6 <HAL_RCCEx_PeriphCLKConfig+0x5a2>
  {
    /* Check the parameters */
    assert_param(IS_RCC_SWPMI1CLKSOURCE(PeriphClkInit->Swpmi1ClockSelection));

    /* Configure the SWPMI1 clock source */
    __HAL_RCC_SWPMI1_CONFIG(PeriphClkInit->Swpmi1ClockSelection);
 80023a0:	4b10      	ldr	r3, [pc, #64]	@ (80023e4 <HAL_RCCEx_PeriphCLKConfig+0x5d0>)
 80023a2:	f8d3 3088 	ldr.w	r3, [r3, #136]	@ 0x88
 80023a6:	f023 4280 	bic.w	r2, r3, #1073741824	@ 0x40000000
 80023aa:	687b      	ldr	r3, [r7, #4]
 80023ac:	6fdb      	ldr	r3, [r3, #124]	@ 0x7c
 80023ae:	490d      	ldr	r1, [pc, #52]	@ (80023e4 <HAL_RCCEx_PeriphCLKConfig+0x5d0>)
 80023b0:	4313      	orrs	r3, r2
 80023b2:	f8c1 3088 	str.w	r3, [r1, #136]	@ 0x88
#endif /* SWPMI1 */

#if defined(DFSDM1_Filter0)

  /*-------------------------- DFSDM1 clock source configuration -------------------*/
  if(((PeriphClkInit->PeriphClockSelection) & RCC_PERIPHCLK_DFSDM1) == RCC_PERIPHCLK_DFSDM1)
 80023b6:	687b      	ldr	r3, [r7, #4]
 80023b8:	681b      	ldr	r3, [r3, #0]
 80023ba:	f403 3380 	and.w	r3, r3, #65536	@ 0x10000
 80023be:	2b00      	cmp	r3, #0
 80023c0:	d00b      	beq.n	80023da <HAL_RCCEx_PeriphCLKConfig+0x5c6>
  {
    /* Check the parameters */
    assert_param(IS_RCC_DFSDM1CLKSOURCE(PeriphClkInit->Dfsdm1ClockSelection));

    /* Configure the DFSDM1 interface clock source */
    __HAL_RCC_DFSDM1_CONFIG(PeriphClkInit->Dfsdm1ClockSelection);
 80023c2:	4b08      	ldr	r3, [pc, #32]	@ (80023e4 <HAL_RCCEx_PeriphCLKConfig+0x5d0>)
 80023c4:	f8d3 3088 	ldr.w	r3, [r3, #136]	@ 0x88
 80023c8:	f023 4200 	bic.w	r2, r3, #2147483648	@ 0x80000000
 80023cc:	687b      	ldr	r3, [r7, #4]
 80023ce:	f8d3 3080 	ldr.w	r3, [r3, #128]	@ 0x80
 80023d2:	4904      	ldr	r1, [pc, #16]	@ (80023e4 <HAL_RCCEx_PeriphCLKConfig+0x5d0>)
 80023d4:	4313      	orrs	r3, r2
 80023d6:	f8c1 3088 	str.w	r3, [r1, #136]	@ 0x88
    }
  }

#endif /* OCTOSPI1 || OCTOSPI2 */

  return status;
 80023da:	7cbb      	ldrb	r3, [r7, #18]
}
 80023dc:	4618      	mov	r0, r3
 80023de:	3718      	adds	r7, #24
 80023e0:	46bd      	mov	sp, r7
 80023e2:	bd80      	pop	{r7, pc}
 80023e4:	40021000 	.word	0x40021000

080023e8 <RCCEx_PLLSAI1_Config>:
  * @note   PLLSAI1 is temporary disable to apply new parameters
  *
  * @retval HAL status
  */
static HAL_StatusTypeDef RCCEx_PLLSAI1_Config(RCC_PLLSAI1InitTypeDef *PllSai1, uint32_t Divider)
{
 80023e8:	b580      	push	{r7, lr}
 80023ea:	b084      	sub	sp, #16
 80023ec:	af00      	add	r7, sp, #0
 80023ee:	6078      	str	r0, [r7, #4]
 80023f0:	6039      	str	r1, [r7, #0]
  uint32_t tickstart;
  HAL_StatusTypeDef status = HAL_OK;
 80023f2:	2300      	movs	r3, #0
 80023f4:	73fb      	strb	r3, [r7, #15]
  assert_param(IS_RCC_PLLSAI1M_VALUE(PllSai1->PLLSAI1M));
  assert_param(IS_RCC_PLLSAI1N_VALUE(PllSai1->PLLSAI1N));
  assert_param(IS_RCC_PLLSAI1CLOCKOUT_VALUE(PllSai1->PLLSAI1ClockOut));

  /* Check that PLLSAI1 clock source and divider M can be applied */
  if(__HAL_RCC_GET_PLL_OSCSOURCE() != RCC_PLLSOURCE_NONE)
 80023f6:	4b75      	ldr	r3, [pc, #468]	@ (80025cc <RCCEx_PLLSAI1_Config+0x1e4>)
 80023f8:	68db      	ldr	r3, [r3, #12]
 80023fa:	f003 0303 	and.w	r3, r3, #3
 80023fe:	2b00      	cmp	r3, #0
 8002400:	d018      	beq.n	8002434 <RCCEx_PLLSAI1_Config+0x4c>
  {
    /* PLL clock source and divider M already set, check that no request for change  */
    if((__HAL_RCC_GET_PLL_OSCSOURCE() != PllSai1->PLLSAI1Source)
 8002402:	4b72      	ldr	r3, [pc, #456]	@ (80025cc <RCCEx_PLLSAI1_Config+0x1e4>)
 8002404:	68db      	ldr	r3, [r3, #12]
 8002406:	f003 0203 	and.w	r2, r3, #3
 800240a:	687b      	ldr	r3, [r7, #4]
 800240c:	681b      	ldr	r3, [r3, #0]
 800240e:	429a      	cmp	r2, r3
 8002410:	d10d      	bne.n	800242e <RCCEx_PLLSAI1_Config+0x46>
       ||
       (PllSai1->PLLSAI1Source == RCC_PLLSOURCE_NONE)
 8002412:	687b      	ldr	r3, [r7, #4]
 8002414:	681b      	ldr	r3, [r3, #0]
       ||
 8002416:	2b00      	cmp	r3, #0
 8002418:	d009      	beq.n	800242e <RCCEx_PLLSAI1_Config+0x46>
#if !defined(RCC_PLLSAI1M_DIV_1_16_SUPPORT)
       ||
       (((READ_BIT(RCC->PLLCFGR, RCC_PLLCFGR_PLLM) >> RCC_PLLCFGR_PLLM_Pos) + 1U) != PllSai1->PLLSAI1M)
 800241a:	4b6c      	ldr	r3, [pc, #432]	@ (80025cc <RCCEx_PLLSAI1_Config+0x1e4>)
 800241c:	68db      	ldr	r3, [r3, #12]
 800241e:	091b      	lsrs	r3, r3, #4
 8002420:	f003 0307 	and.w	r3, r3, #7
 8002424:	1c5a      	adds	r2, r3, #1
 8002426:	687b      	ldr	r3, [r7, #4]
 8002428:	685b      	ldr	r3, [r3, #4]
       ||
 800242a:	429a      	cmp	r2, r3
 800242c:	d047      	beq.n	80024be <RCCEx_PLLSAI1_Config+0xd6>
#endif
      )
    {
      status = HAL_ERROR;
 800242e:	2301      	movs	r3, #1
 8002430:	73fb      	strb	r3, [r7, #15]
 8002432:	e044      	b.n	80024be <RCCEx_PLLSAI1_Config+0xd6>
    }
  }
  else
  {
    /* Check PLLSAI1 clock source availability */
    switch(PllSai1->PLLSAI1Source)
 8002434:	687b      	ldr	r3, [r7, #4]
 8002436:	681b      	ldr	r3, [r3, #0]
 8002438:	2b03      	cmp	r3, #3
 800243a:	d018      	beq.n	800246e <RCCEx_PLLSAI1_Config+0x86>
 800243c:	2b03      	cmp	r3, #3
 800243e:	d825      	bhi.n	800248c <RCCEx_PLLSAI1_Config+0xa4>
 8002440:	2b01      	cmp	r3, #1
 8002442:	d002      	beq.n	800244a <RCCEx_PLLSAI1_Config+0x62>
 8002444:	2b02      	cmp	r3, #2
 8002446:	d009      	beq.n	800245c <RCCEx_PLLSAI1_Config+0x74>
 8002448:	e020      	b.n	800248c <RCCEx_PLLSAI1_Config+0xa4>
    {
    case RCC_PLLSOURCE_MSI:
      if(HAL_IS_BIT_CLR(RCC->CR, RCC_CR_MSIRDY))
 800244a:	4b60      	ldr	r3, [pc, #384]	@ (80025cc <RCCEx_PLLSAI1_Config+0x1e4>)
 800244c:	681b      	ldr	r3, [r3, #0]
 800244e:	f003 0302 	and.w	r3, r3, #2
 8002452:	2b00      	cmp	r3, #0
 8002454:	d11d      	bne.n	8002492 <RCCEx_PLLSAI1_Config+0xaa>
      {
        status = HAL_ERROR;
 8002456:	2301      	movs	r3, #1
 8002458:	73fb      	strb	r3, [r7, #15]
      }
      break;
 800245a:	e01a      	b.n	8002492 <RCCEx_PLLSAI1_Config+0xaa>
    case RCC_PLLSOURCE_HSI:
      if(HAL_IS_BIT_CLR(RCC->CR, RCC_CR_HSIRDY))
 800245c:	4b5b      	ldr	r3, [pc, #364]	@ (80025cc <RCCEx_PLLSAI1_Config+0x1e4>)
 800245e:	681b      	ldr	r3, [r3, #0]
 8002460:	f403 6380 	and.w	r3, r3, #1024	@ 0x400
 8002464:	2b00      	cmp	r3, #0
 8002466:	d116      	bne.n	8002496 <RCCEx_PLLSAI1_Config+0xae>
      {
        status = HAL_ERROR;
 8002468:	2301      	movs	r3, #1
 800246a:	73fb      	strb	r3, [r7, #15]
      }
      break;
 800246c:	e013      	b.n	8002496 <RCCEx_PLLSAI1_Config+0xae>
    case RCC_PLLSOURCE_HSE:
      if(HAL_IS_BIT_CLR(RCC->CR, RCC_CR_HSERDY))
 800246e:	4b57      	ldr	r3, [pc, #348]	@ (80025cc <RCCEx_PLLSAI1_Config+0x1e4>)
 8002470:	681b      	ldr	r3, [r3, #0]
 8002472:	f403 3300 	and.w	r3, r3, #131072	@ 0x20000
 8002476:	2b00      	cmp	r3, #0
 8002478:	d10f      	bne.n	800249a <RCCEx_PLLSAI1_Config+0xb2>
      {
        if(HAL_IS_BIT_CLR(RCC->CR, RCC_CR_HSEBYP))
 800247a:	4b54      	ldr	r3, [pc, #336]	@ (80025cc <RCCEx_PLLSAI1_Config+0x1e4>)
 800247c:	681b      	ldr	r3, [r3, #0]
 800247e:	f403 2380 	and.w	r3, r3, #262144	@ 0x40000
 8002482:	2b00      	cmp	r3, #0
 8002484:	d109      	bne.n	800249a <RCCEx_PLLSAI1_Config+0xb2>
        {
          status = HAL_ERROR;
 8002486:	2301      	movs	r3, #1
 8002488:	73fb      	strb	r3, [r7, #15]
        }
      }
      break;
 800248a:	e006      	b.n	800249a <RCCEx_PLLSAI1_Config+0xb2>
    default:
      status = HAL_ERROR;
 800248c:	2301      	movs	r3, #1
 800248e:	73fb      	strb	r3, [r7, #15]
      break;
 8002490:	e004      	b.n	800249c <RCCEx_PLLSAI1_Config+0xb4>
      break;
 8002492:	bf00      	nop
 8002494:	e002      	b.n	800249c <RCCEx_PLLSAI1_Config+0xb4>
      break;
 8002496:	bf00      	nop
 8002498:	e000      	b.n	800249c <RCCEx_PLLSAI1_Config+0xb4>
      break;
 800249a:	bf00      	nop
    }

    if(status == HAL_OK)
 800249c:	7bfb      	ldrb	r3, [r7, #15]
 800249e:	2b00      	cmp	r3, #0
 80024a0:	d10d      	bne.n	80024be <RCCEx_PLLSAI1_Config+0xd6>
#if defined(RCC_PLLSAI1M_DIV_1_16_SUPPORT)
      /* Set PLLSAI1 clock source */
      MODIFY_REG(RCC->PLLCFGR, RCC_PLLCFGR_PLLSRC, PllSai1->PLLSAI1Source);
#else
      /* Set PLLSAI1 clock source and divider M */
      MODIFY_REG(RCC->PLLCFGR, RCC_PLLCFGR_PLLSRC | RCC_PLLCFGR_PLLM, PllSai1->PLLSAI1Source | (PllSai1->PLLSAI1M - 1U) << RCC_PLLCFGR_PLLM_Pos);
 80024a2:	4b4a      	ldr	r3, [pc, #296]	@ (80025cc <RCCEx_PLLSAI1_Config+0x1e4>)
 80024a4:	68db      	ldr	r3, [r3, #12]
 80024a6:	f023 0273 	bic.w	r2, r3, #115	@ 0x73
 80024aa:	687b      	ldr	r3, [r7, #4]
 80024ac:	6819      	ldr	r1, [r3, #0]
 80024ae:	687b      	ldr	r3, [r7, #4]
 80024b0:	685b      	ldr	r3, [r3, #4]
 80024b2:	3b01      	subs	r3, #1
 80024b4:	011b      	lsls	r3, r3, #4
 80024b6:	430b      	orrs	r3, r1
 80024b8:	4944      	ldr	r1, [pc, #272]	@ (80025cc <RCCEx_PLLSAI1_Config+0x1e4>)
 80024ba:	4313      	orrs	r3, r2
 80024bc:	60cb      	str	r3, [r1, #12]
#endif
    }
  }

  if(status == HAL_OK)
 80024be:	7bfb      	ldrb	r3, [r7, #15]
 80024c0:	2b00      	cmp	r3, #0
 80024c2:	d17d      	bne.n	80025c0 <RCCEx_PLLSAI1_Config+0x1d8>
  {
    /* Disable the PLLSAI1 */
    __HAL_RCC_PLLSAI1_DISABLE();
 80024c4:	4b41      	ldr	r3, [pc, #260]	@ (80025cc <RCCEx_PLLSAI1_Config+0x1e4>)
 80024c6:	681b      	ldr	r3, [r3, #0]
 80024c8:	4a40      	ldr	r2, [pc, #256]	@ (80025cc <RCCEx_PLLSAI1_Config+0x1e4>)
 80024ca:	f023 6380 	bic.w	r3, r3, #67108864	@ 0x4000000
 80024ce:	6013      	str	r3, [r2, #0]

    /* Get Start Tick*/
    tickstart = HAL_GetTick();
 80024d0:	f7fe fb88 	bl	8000be4 <HAL_GetTick>
 80024d4:	60b8      	str	r0, [r7, #8]

    /* Wait till PLLSAI1 is ready to be updated */
    while(READ_BIT(RCC->CR, RCC_CR_PLLSAI1RDY) != 0U)
 80024d6:	e009      	b.n	80024ec <RCCEx_PLLSAI1_Config+0x104>
    {
      if((HAL_GetTick() - tickstart) > PLLSAI1_TIMEOUT_VALUE)
 80024d8:	f7fe fb84 	bl	8000be4 <HAL_GetTick>
 80024dc:	4602      	mov	r2, r0
 80024de:	68bb      	ldr	r3, [r7, #8]
 80024e0:	1ad3      	subs	r3, r2, r3
 80024e2:	2b02      	cmp	r3, #2
 80024e4:	d902      	bls.n	80024ec <RCCEx_PLLSAI1_Config+0x104>
      {
        status = HAL_TIMEOUT;
 80024e6:	2303      	movs	r3, #3
 80024e8:	73fb      	strb	r3, [r7, #15]
        break;
 80024ea:	e005      	b.n	80024f8 <RCCEx_PLLSAI1_Config+0x110>
    while(READ_BIT(RCC->CR, RCC_CR_PLLSAI1RDY) != 0U)
 80024ec:	4b37      	ldr	r3, [pc, #220]	@ (80025cc <RCCEx_PLLSAI1_Config+0x1e4>)
 80024ee:	681b      	ldr	r3, [r3, #0]
 80024f0:	f003 6300 	and.w	r3, r3, #134217728	@ 0x8000000
 80024f4:	2b00      	cmp	r3, #0
 80024f6:	d1ef      	bne.n	80024d8 <RCCEx_PLLSAI1_Config+0xf0>
      }
    }

    if(status == HAL_OK)
 80024f8:	7bfb      	ldrb	r3, [r7, #15]
 80024fa:	2b00      	cmp	r3, #0
 80024fc:	d160      	bne.n	80025c0 <RCCEx_PLLSAI1_Config+0x1d8>
    {
      if(Divider == DIVIDER_P_UPDATE)
 80024fe:	683b      	ldr	r3, [r7, #0]
 8002500:	2b00      	cmp	r3, #0
 8002502:	d111      	bne.n	8002528 <RCCEx_PLLSAI1_Config+0x140>
        MODIFY_REG(RCC->PLLSAI1CFGR,
                   RCC_PLLSAI1CFGR_PLLSAI1N | RCC_PLLSAI1CFGR_PLLSAI1PDIV,
                   (PllSai1->PLLSAI1N << RCC_PLLSAI1CFGR_PLLSAI1N_Pos) |
                   (PllSai1->PLLSAI1P << RCC_PLLSAI1CFGR_PLLSAI1PDIV_Pos));
#else
        MODIFY_REG(RCC->PLLSAI1CFGR,
 8002504:	4b31      	ldr	r3, [pc, #196]	@ (80025cc <RCCEx_PLLSAI1_Config+0x1e4>)
 8002506:	691b      	ldr	r3, [r3, #16]
 8002508:	f423 331f 	bic.w	r3, r3, #162816	@ 0x27c00
 800250c:	f423 7340 	bic.w	r3, r3, #768	@ 0x300
 8002510:	687a      	ldr	r2, [r7, #4]
 8002512:	6892      	ldr	r2, [r2, #8]
 8002514:	0211      	lsls	r1, r2, #8
 8002516:	687a      	ldr	r2, [r7, #4]
 8002518:	68d2      	ldr	r2, [r2, #12]
 800251a:	0912      	lsrs	r2, r2, #4
 800251c:	0452      	lsls	r2, r2, #17
 800251e:	430a      	orrs	r2, r1
 8002520:	492a      	ldr	r1, [pc, #168]	@ (80025cc <RCCEx_PLLSAI1_Config+0x1e4>)
 8002522:	4313      	orrs	r3, r2
 8002524:	610b      	str	r3, [r1, #16]
 8002526:	e027      	b.n	8002578 <RCCEx_PLLSAI1_Config+0x190>
                   ((PllSai1->PLLSAI1P >> 4U) << RCC_PLLSAI1CFGR_PLLSAI1P_Pos));
#endif /* RCC_PLLSAI1P_DIV_2_31_SUPPORT */

#endif /* RCC_PLLSAI1M_DIV_1_16_SUPPORT */
      }
      else if(Divider == DIVIDER_Q_UPDATE)
 8002528:	683b      	ldr	r3, [r7, #0]
 800252a:	2b01      	cmp	r3, #1
 800252c:	d112      	bne.n	8002554 <RCCEx_PLLSAI1_Config+0x16c>
                   (PllSai1->PLLSAI1N << RCC_PLLSAI1CFGR_PLLSAI1N_Pos) |
                   (((PllSai1->PLLSAI1Q >> 1U) - 1U) << RCC_PLLSAI1CFGR_PLLSAI1Q_Pos) |
                   ((PllSai1->PLLSAI1M - 1U) << RCC_PLLSAI1CFGR_PLLSAI1M_Pos));
#else
        /* Configure the PLLSAI1 Division factor Q and Multiplication factor N*/
        MODIFY_REG(RCC->PLLSAI1CFGR,
 800252e:	4b27      	ldr	r3, [pc, #156]	@ (80025cc <RCCEx_PLLSAI1_Config+0x1e4>)
 8002530:	691b      	ldr	r3, [r3, #16]
 8002532:	f423 03c0 	bic.w	r3, r3, #6291456	@ 0x600000
 8002536:	f423 43fe 	bic.w	r3, r3, #32512	@ 0x7f00
 800253a:	687a      	ldr	r2, [r7, #4]
 800253c:	6892      	ldr	r2, [r2, #8]
 800253e:	0211      	lsls	r1, r2, #8
 8002540:	687a      	ldr	r2, [r7, #4]
 8002542:	6912      	ldr	r2, [r2, #16]
 8002544:	0852      	lsrs	r2, r2, #1
 8002546:	3a01      	subs	r2, #1
 8002548:	0552      	lsls	r2, r2, #21
 800254a:	430a      	orrs	r2, r1
 800254c:	491f      	ldr	r1, [pc, #124]	@ (80025cc <RCCEx_PLLSAI1_Config+0x1e4>)
 800254e:	4313      	orrs	r3, r2
 8002550:	610b      	str	r3, [r1, #16]
 8002552:	e011      	b.n	8002578 <RCCEx_PLLSAI1_Config+0x190>
                   (PllSai1->PLLSAI1N << RCC_PLLSAI1CFGR_PLLSAI1N_Pos) |
                   (((PllSai1->PLLSAI1R >> 1U) - 1U) << RCC_PLLSAI1CFGR_PLLSAI1R_Pos) |
                   ((PllSai1->PLLSAI1M - 1U) << RCC_PLLSAI1CFGR_PLLSAI1M_Pos));
#else
        /* Configure the PLLSAI1 Division factor R and Multiplication factor N*/
        MODIFY_REG(RCC->PLLSAI1CFGR,
 8002554:	4b1d      	ldr	r3, [pc, #116]	@ (80025cc <RCCEx_PLLSAI1_Config+0x1e4>)
 8002556:	691b      	ldr	r3, [r3, #16]
 8002558:	f023 63c0 	bic.w	r3, r3, #100663296	@ 0x6000000
 800255c:	f423 43fe 	bic.w	r3, r3, #32512	@ 0x7f00
 8002560:	687a      	ldr	r2, [r7, #4]
 8002562:	6892      	ldr	r2, [r2, #8]
 8002564:	0211      	lsls	r1, r2, #8
 8002566:	687a      	ldr	r2, [r7, #4]
 8002568:	6952      	ldr	r2, [r2, #20]
 800256a:	0852      	lsrs	r2, r2, #1
 800256c:	3a01      	subs	r2, #1
 800256e:	0652      	lsls	r2, r2, #25
 8002570:	430a      	orrs	r2, r1
 8002572:	4916      	ldr	r1, [pc, #88]	@ (80025cc <RCCEx_PLLSAI1_Config+0x1e4>)
 8002574:	4313      	orrs	r3, r2
 8002576:	610b      	str	r3, [r1, #16]
                   (((PllSai1->PLLSAI1R >> 1U) - 1U) << RCC_PLLSAI1CFGR_PLLSAI1R_Pos));
#endif /* RCC_PLLSAI1M_DIV_1_16_SUPPORT */
      }

      /* Enable the PLLSAI1 again by setting PLLSAI1ON to 1*/
      __HAL_RCC_PLLSAI1_ENABLE();
 8002578:	4b14      	ldr	r3, [pc, #80]	@ (80025cc <RCCEx_PLLSAI1_Config+0x1e4>)
 800257a:	681b      	ldr	r3, [r3, #0]
 800257c:	4a13      	ldr	r2, [pc, #76]	@ (80025cc <RCCEx_PLLSAI1_Config+0x1e4>)
 800257e:	f043 6380 	orr.w	r3, r3, #67108864	@ 0x4000000
 8002582:	6013      	str	r3, [r2, #0]

      /* Get Start Tick*/
      tickstart = HAL_GetTick();
 8002584:	f7fe fb2e 	bl	8000be4 <HAL_GetTick>
 8002588:	60b8      	str	r0, [r7, #8]

      /* Wait till PLLSAI1 is ready */
      while(READ_BIT(RCC->CR, RCC_CR_PLLSAI1RDY) == 0U)
 800258a:	e009      	b.n	80025a0 <RCCEx_PLLSAI1_Config+0x1b8>
      {
        if((HAL_GetTick() - tickstart) > PLLSAI1_TIMEOUT_VALUE)
 800258c:	f7fe fb2a 	bl	8000be4 <HAL_GetTick>
 8002590:	4602      	mov	r2, r0
 8002592:	68bb      	ldr	r3, [r7, #8]
 8002594:	1ad3      	subs	r3, r2, r3
 8002596:	2b02      	cmp	r3, #2
 8002598:	d902      	bls.n	80025a0 <RCCEx_PLLSAI1_Config+0x1b8>
        {
          status = HAL_TIMEOUT;
 800259a:	2303      	movs	r3, #3
 800259c:	73fb      	strb	r3, [r7, #15]
          break;
 800259e:	e005      	b.n	80025ac <RCCEx_PLLSAI1_Config+0x1c4>
      while(READ_BIT(RCC->CR, RCC_CR_PLLSAI1RDY) == 0U)
 80025a0:	4b0a      	ldr	r3, [pc, #40]	@ (80025cc <RCCEx_PLLSAI1_Config+0x1e4>)
 80025a2:	681b      	ldr	r3, [r3, #0]
 80025a4:	f003 6300 	and.w	r3, r3, #134217728	@ 0x8000000
 80025a8:	2b00      	cmp	r3, #0
 80025aa:	d0ef      	beq.n	800258c <RCCEx_PLLSAI1_Config+0x1a4>
        }
      }

      if(status == HAL_OK)
 80025ac:	7bfb      	ldrb	r3, [r7, #15]
 80025ae:	2b00      	cmp	r3, #0
 80025b0:	d106      	bne.n	80025c0 <RCCEx_PLLSAI1_Config+0x1d8>
      {
        /* Configure the PLLSAI1 Clock output(s) */
        __HAL_RCC_PLLSAI1CLKOUT_ENABLE(PllSai1->PLLSAI1ClockOut);
 80025b2:	4b06      	ldr	r3, [pc, #24]	@ (80025cc <RCCEx_PLLSAI1_Config+0x1e4>)
 80025b4:	691a      	ldr	r2, [r3, #16]
 80025b6:	687b      	ldr	r3, [r7, #4]
 80025b8:	699b      	ldr	r3, [r3, #24]
 80025ba:	4904      	ldr	r1, [pc, #16]	@ (80025cc <RCCEx_PLLSAI1_Config+0x1e4>)
 80025bc:	4313      	orrs	r3, r2
 80025be:	610b      	str	r3, [r1, #16]
      }
    }
  }

  return status;
 80025c0:	7bfb      	ldrb	r3, [r7, #15]
}
 80025c2:	4618      	mov	r0, r3
 80025c4:	3710      	adds	r7, #16
 80025c6:	46bd      	mov	sp, r7
 80025c8:	bd80      	pop	{r7, pc}
 80025ca:	bf00      	nop
 80025cc:	40021000 	.word	0x40021000

080025d0 <RCCEx_PLLSAI2_Config>:
  * @note   PLLSAI2 is temporary disable to apply new parameters
  *
  * @retval HAL status
  */
static HAL_StatusTypeDef RCCEx_PLLSAI2_Config(RCC_PLLSAI2InitTypeDef *PllSai2, uint32_t Divider)
{
 80025d0:	b580      	push	{r7, lr}
 80025d2:	b084      	sub	sp, #16
 80025d4:	af00      	add	r7, sp, #0
 80025d6:	6078      	str	r0, [r7, #4]
 80025d8:	6039      	str	r1, [r7, #0]
  uint32_t tickstart;
  HAL_StatusTypeDef status = HAL_OK;
 80025da:	2300      	movs	r3, #0
 80025dc:	73fb      	strb	r3, [r7, #15]
  assert_param(IS_RCC_PLLSAI2M_VALUE(PllSai2->PLLSAI2M));
  assert_param(IS_RCC_PLLSAI2N_VALUE(PllSai2->PLLSAI2N));
  assert_param(IS_RCC_PLLSAI2CLOCKOUT_VALUE(PllSai2->PLLSAI2ClockOut));

  /* Check that PLLSAI2 clock source and divider M can be applied */
  if(__HAL_RCC_GET_PLL_OSCSOURCE() != RCC_PLLSOURCE_NONE)
 80025de:	4b6a      	ldr	r3, [pc, #424]	@ (8002788 <RCCEx_PLLSAI2_Config+0x1b8>)
 80025e0:	68db      	ldr	r3, [r3, #12]
 80025e2:	f003 0303 	and.w	r3, r3, #3
 80025e6:	2b00      	cmp	r3, #0
 80025e8:	d018      	beq.n	800261c <RCCEx_PLLSAI2_Config+0x4c>
  {
    /* PLL clock source and divider M already set, check that no request for change  */
    if((__HAL_RCC_GET_PLL_OSCSOURCE() != PllSai2->PLLSAI2Source)
 80025ea:	4b67      	ldr	r3, [pc, #412]	@ (8002788 <RCCEx_PLLSAI2_Config+0x1b8>)
 80025ec:	68db      	ldr	r3, [r3, #12]
 80025ee:	f003 0203 	and.w	r2, r3, #3
 80025f2:	687b      	ldr	r3, [r7, #4]
 80025f4:	681b      	ldr	r3, [r3, #0]
 80025f6:	429a      	cmp	r2, r3
 80025f8:	d10d      	bne.n	8002616 <RCCEx_PLLSAI2_Config+0x46>
       ||
       (PllSai2->PLLSAI2Source == RCC_PLLSOURCE_NONE)
 80025fa:	687b      	ldr	r3, [r7, #4]
 80025fc:	681b      	ldr	r3, [r3, #0]
       ||
 80025fe:	2b00      	cmp	r3, #0
 8002600:	d009      	beq.n	8002616 <RCCEx_PLLSAI2_Config+0x46>
#if !defined(RCC_PLLSAI2M_DIV_1_16_SUPPORT)
       ||
       (((READ_BIT(RCC->PLLCFGR, RCC_PLLCFGR_PLLM) >> RCC_PLLCFGR_PLLM_Pos) + 1U) != PllSai2->PLLSAI2M)
 8002602:	4b61      	ldr	r3, [pc, #388]	@ (8002788 <RCCEx_PLLSAI2_Config+0x1b8>)
 8002604:	68db      	ldr	r3, [r3, #12]
 8002606:	091b      	lsrs	r3, r3, #4
 8002608:	f003 0307 	and.w	r3, r3, #7
 800260c:	1c5a      	adds	r2, r3, #1
 800260e:	687b      	ldr	r3, [r7, #4]
 8002610:	685b      	ldr	r3, [r3, #4]
       ||
 8002612:	429a      	cmp	r2, r3
 8002614:	d047      	beq.n	80026a6 <RCCEx_PLLSAI2_Config+0xd6>
#endif
      )
    {
      status = HAL_ERROR;
 8002616:	2301      	movs	r3, #1
 8002618:	73fb      	strb	r3, [r7, #15]
 800261a:	e044      	b.n	80026a6 <RCCEx_PLLSAI2_Config+0xd6>
    }
  }
  else
  {
    /* Check PLLSAI2 clock source availability */
    switch(PllSai2->PLLSAI2Source)
 800261c:	687b      	ldr	r3, [r7, #4]
 800261e:	681b      	ldr	r3, [r3, #0]
 8002620:	2b03      	cmp	r3, #3
 8002622:	d018      	beq.n	8002656 <RCCEx_PLLSAI2_Config+0x86>
 8002624:	2b03      	cmp	r3, #3
 8002626:	d825      	bhi.n	8002674 <RCCEx_PLLSAI2_Config+0xa4>
 8002628:	2b01      	cmp	r3, #1
 800262a:	d002      	beq.n	8002632 <RCCEx_PLLSAI2_Config+0x62>
 800262c:	2b02      	cmp	r3, #2
 800262e:	d009      	beq.n	8002644 <RCCEx_PLLSAI2_Config+0x74>
 8002630:	e020      	b.n	8002674 <RCCEx_PLLSAI2_Config+0xa4>
    {
    case RCC_PLLSOURCE_MSI:
      if(HAL_IS_BIT_CLR(RCC->CR, RCC_CR_MSIRDY))
 8002632:	4b55      	ldr	r3, [pc, #340]	@ (8002788 <RCCEx_PLLSAI2_Config+0x1b8>)
 8002634:	681b      	ldr	r3, [r3, #0]
 8002636:	f003 0302 	and.w	r3, r3, #2
 800263a:	2b00      	cmp	r3, #0
 800263c:	d11d      	bne.n	800267a <RCCEx_PLLSAI2_Config+0xaa>
      {
        status = HAL_ERROR;
 800263e:	2301      	movs	r3, #1
 8002640:	73fb      	strb	r3, [r7, #15]
      }
      break;
 8002642:	e01a      	b.n	800267a <RCCEx_PLLSAI2_Config+0xaa>
    case RCC_PLLSOURCE_HSI:
      if(HAL_IS_BIT_CLR(RCC->CR, RCC_CR_HSIRDY))
 8002644:	4b50      	ldr	r3, [pc, #320]	@ (8002788 <RCCEx_PLLSAI2_Config+0x1b8>)
 8002646:	681b      	ldr	r3, [r3, #0]
 8002648:	f403 6380 	and.w	r3, r3, #1024	@ 0x400
 800264c:	2b00      	cmp	r3, #0
 800264e:	d116      	bne.n	800267e <RCCEx_PLLSAI2_Config+0xae>
      {
        status = HAL_ERROR;
 8002650:	2301      	movs	r3, #1
 8002652:	73fb      	strb	r3, [r7, #15]
      }
      break;
 8002654:	e013      	b.n	800267e <RCCEx_PLLSAI2_Config+0xae>
    case RCC_PLLSOURCE_HSE:
      if(HAL_IS_BIT_CLR(RCC->CR, RCC_CR_HSERDY))
 8002656:	4b4c      	ldr	r3, [pc, #304]	@ (8002788 <RCCEx_PLLSAI2_Config+0x1b8>)
 8002658:	681b      	ldr	r3, [r3, #0]
 800265a:	f403 3300 	and.w	r3, r3, #131072	@ 0x20000
 800265e:	2b00      	cmp	r3, #0
 8002660:	d10f      	bne.n	8002682 <RCCEx_PLLSAI2_Config+0xb2>
      {
        if(HAL_IS_BIT_CLR(RCC->CR, RCC_CR_HSEBYP))
 8002662:	4b49      	ldr	r3, [pc, #292]	@ (8002788 <RCCEx_PLLSAI2_Config+0x1b8>)
 8002664:	681b      	ldr	r3, [r3, #0]
 8002666:	f403 2380 	and.w	r3, r3, #262144	@ 0x40000
 800266a:	2b00      	cmp	r3, #0
 800266c:	d109      	bne.n	8002682 <RCCEx_PLLSAI2_Config+0xb2>
        {
          status = HAL_ERROR;
 800266e:	2301      	movs	r3, #1
 8002670:	73fb      	strb	r3, [r7, #15]
        }
      }
      break;
 8002672:	e006      	b.n	8002682 <RCCEx_PLLSAI2_Config+0xb2>
    default:
      status = HAL_ERROR;
 8002674:	2301      	movs	r3, #1
 8002676:	73fb      	strb	r3, [r7, #15]
      break;
 8002678:	e004      	b.n	8002684 <RCCEx_PLLSAI2_Config+0xb4>
      break;
 800267a:	bf00      	nop
 800267c:	e002      	b.n	8002684 <RCCEx_PLLSAI2_Config+0xb4>
      break;
 800267e:	bf00      	nop
 8002680:	e000      	b.n	8002684 <RCCEx_PLLSAI2_Config+0xb4>
      break;
 8002682:	bf00      	nop
    }

    if(status == HAL_OK)
 8002684:	7bfb      	ldrb	r3, [r7, #15]
 8002686:	2b00      	cmp	r3, #0
 8002688:	d10d      	bne.n	80026a6 <RCCEx_PLLSAI2_Config+0xd6>
#if defined(RCC_PLLSAI2M_DIV_1_16_SUPPORT)
      /* Set PLLSAI2 clock source */
      MODIFY_REG(RCC->PLLCFGR, RCC_PLLCFGR_PLLSRC, PllSai2->PLLSAI2Source);
#else
      /* Set PLLSAI2 clock source and divider M */
      MODIFY_REG(RCC->PLLCFGR, RCC_PLLCFGR_PLLSRC | RCC_PLLCFGR_PLLM, PllSai2->PLLSAI2Source | (PllSai2->PLLSAI2M - 1U) << RCC_PLLCFGR_PLLM_Pos);
 800268a:	4b3f      	ldr	r3, [pc, #252]	@ (8002788 <RCCEx_PLLSAI2_Config+0x1b8>)
 800268c:	68db      	ldr	r3, [r3, #12]
 800268e:	f023 0273 	bic.w	r2, r3, #115	@ 0x73
 8002692:	687b      	ldr	r3, [r7, #4]
 8002694:	6819      	ldr	r1, [r3, #0]
 8002696:	687b      	ldr	r3, [r7, #4]
 8002698:	685b      	ldr	r3, [r3, #4]
 800269a:	3b01      	subs	r3, #1
 800269c:	011b      	lsls	r3, r3, #4
 800269e:	430b      	orrs	r3, r1
 80026a0:	4939      	ldr	r1, [pc, #228]	@ (8002788 <RCCEx_PLLSAI2_Config+0x1b8>)
 80026a2:	4313      	orrs	r3, r2
 80026a4:	60cb      	str	r3, [r1, #12]
#endif
    }
  }

  if(status == HAL_OK)
 80026a6:	7bfb      	ldrb	r3, [r7, #15]
 80026a8:	2b00      	cmp	r3, #0
 80026aa:	d167      	bne.n	800277c <RCCEx_PLLSAI2_Config+0x1ac>
  {
    /* Disable the PLLSAI2 */
    __HAL_RCC_PLLSAI2_DISABLE();
 80026ac:	4b36      	ldr	r3, [pc, #216]	@ (8002788 <RCCEx_PLLSAI2_Config+0x1b8>)
 80026ae:	681b      	ldr	r3, [r3, #0]
 80026b0:	4a35      	ldr	r2, [pc, #212]	@ (8002788 <RCCEx_PLLSAI2_Config+0x1b8>)
 80026b2:	f023 5380 	bic.w	r3, r3, #268435456	@ 0x10000000
 80026b6:	6013      	str	r3, [r2, #0]

    /* Get Start Tick*/
    tickstart = HAL_GetTick();
 80026b8:	f7fe fa94 	bl	8000be4 <HAL_GetTick>
 80026bc:	60b8      	str	r0, [r7, #8]

    /* Wait till PLLSAI2 is ready to be updated */
    while(READ_BIT(RCC->CR, RCC_CR_PLLSAI2RDY) != 0U)
 80026be:	e009      	b.n	80026d4 <RCCEx_PLLSAI2_Config+0x104>
    {
      if((HAL_GetTick() - tickstart) > PLLSAI2_TIMEOUT_VALUE)
 80026c0:	f7fe fa90 	bl	8000be4 <HAL_GetTick>
 80026c4:	4602      	mov	r2, r0
 80026c6:	68bb      	ldr	r3, [r7, #8]
 80026c8:	1ad3      	subs	r3, r2, r3
 80026ca:	2b02      	cmp	r3, #2
 80026cc:	d902      	bls.n	80026d4 <RCCEx_PLLSAI2_Config+0x104>
      {
        status = HAL_TIMEOUT;
 80026ce:	2303      	movs	r3, #3
 80026d0:	73fb      	strb	r3, [r7, #15]
        break;
 80026d2:	e005      	b.n	80026e0 <RCCEx_PLLSAI2_Config+0x110>
    while(READ_BIT(RCC->CR, RCC_CR_PLLSAI2RDY) != 0U)
 80026d4:	4b2c      	ldr	r3, [pc, #176]	@ (8002788 <RCCEx_PLLSAI2_Config+0x1b8>)
 80026d6:	681b      	ldr	r3, [r3, #0]
 80026d8:	f003 5300 	and.w	r3, r3, #536870912	@ 0x20000000
 80026dc:	2b00      	cmp	r3, #0
 80026de:	d1ef      	bne.n	80026c0 <RCCEx_PLLSAI2_Config+0xf0>
      }
    }

    if(status == HAL_OK)
 80026e0:	7bfb      	ldrb	r3, [r7, #15]
 80026e2:	2b00      	cmp	r3, #0
 80026e4:	d14a      	bne.n	800277c <RCCEx_PLLSAI2_Config+0x1ac>
    {
      if(Divider == DIVIDER_P_UPDATE)
 80026e6:	683b      	ldr	r3, [r7, #0]
 80026e8:	2b00      	cmp	r3, #0
 80026ea:	d111      	bne.n	8002710 <RCCEx_PLLSAI2_Config+0x140>
        MODIFY_REG(RCC->PLLSAI2CFGR,
                   RCC_PLLSAI2CFGR_PLLSAI2N | RCC_PLLSAI2CFGR_PLLSAI2PDIV,
                   (PllSai2->PLLSAI2N << RCC_PLLSAI2CFGR_PLLSAI2N_Pos) |
                   (PllSai2->PLLSAI2P << RCC_PLLSAI2CFGR_PLLSAI2PDIV_Pos));
#else
        MODIFY_REG(RCC->PLLSAI2CFGR,
 80026ec:	4b26      	ldr	r3, [pc, #152]	@ (8002788 <RCCEx_PLLSAI2_Config+0x1b8>)
 80026ee:	695b      	ldr	r3, [r3, #20]
 80026f0:	f423 331f 	bic.w	r3, r3, #162816	@ 0x27c00
 80026f4:	f423 7340 	bic.w	r3, r3, #768	@ 0x300
 80026f8:	687a      	ldr	r2, [r7, #4]
 80026fa:	6892      	ldr	r2, [r2, #8]
 80026fc:	0211      	lsls	r1, r2, #8
 80026fe:	687a      	ldr	r2, [r7, #4]
 8002700:	68d2      	ldr	r2, [r2, #12]
 8002702:	0912      	lsrs	r2, r2, #4
 8002704:	0452      	lsls	r2, r2, #17
 8002706:	430a      	orrs	r2, r1
 8002708:	491f      	ldr	r1, [pc, #124]	@ (8002788 <RCCEx_PLLSAI2_Config+0x1b8>)
 800270a:	4313      	orrs	r3, r2
 800270c:	614b      	str	r3, [r1, #20]
 800270e:	e011      	b.n	8002734 <RCCEx_PLLSAI2_Config+0x164>
                   (PllSai2->PLLSAI2N << RCC_PLLSAI2CFGR_PLLSAI2N_Pos) |
                   (((PllSai2->PLLSAI2R >> 1U) - 1U) << RCC_PLLSAI2CFGR_PLLSAI2R_Pos) |
                   ((PllSai2->PLLSAI2M - 1U) << RCC_PLLSAI2CFGR_PLLSAI2M_Pos));
#else
        /* Configure the PLLSAI2 Division factor R and Multiplication factor N*/
        MODIFY_REG(RCC->PLLSAI2CFGR,
 8002710:	4b1d      	ldr	r3, [pc, #116]	@ (8002788 <RCCEx_PLLSAI2_Config+0x1b8>)
 8002712:	695b      	ldr	r3, [r3, #20]
 8002714:	f023 63c0 	bic.w	r3, r3, #100663296	@ 0x6000000
 8002718:	f423 43fe 	bic.w	r3, r3, #32512	@ 0x7f00
 800271c:	687a      	ldr	r2, [r7, #4]
 800271e:	6892      	ldr	r2, [r2, #8]
 8002720:	0211      	lsls	r1, r2, #8
 8002722:	687a      	ldr	r2, [r7, #4]
 8002724:	6912      	ldr	r2, [r2, #16]
 8002726:	0852      	lsrs	r2, r2, #1
 8002728:	3a01      	subs	r2, #1
 800272a:	0652      	lsls	r2, r2, #25
 800272c:	430a      	orrs	r2, r1
 800272e:	4916      	ldr	r1, [pc, #88]	@ (8002788 <RCCEx_PLLSAI2_Config+0x1b8>)
 8002730:	4313      	orrs	r3, r2
 8002732:	614b      	str	r3, [r1, #20]
                   (((PllSai2->PLLSAI2R >> 1U) - 1U) << RCC_PLLSAI2CFGR_PLLSAI2R_Pos));
#endif /* RCC_PLLSAI2M_DIV_1_16_SUPPORT */
      }

      /* Enable the PLLSAI2 again by setting PLLSAI2ON to 1*/
      __HAL_RCC_PLLSAI2_ENABLE();
 8002734:	4b14      	ldr	r3, [pc, #80]	@ (8002788 <RCCEx_PLLSAI2_Config+0x1b8>)
 8002736:	681b      	ldr	r3, [r3, #0]
 8002738:	4a13      	ldr	r2, [pc, #76]	@ (8002788 <RCCEx_PLLSAI2_Config+0x1b8>)
 800273a:	f043 5380 	orr.w	r3, r3, #268435456	@ 0x10000000
 800273e:	6013      	str	r3, [r2, #0]

      /* Get Start Tick*/
      tickstart = HAL_GetTick();
 8002740:	f7fe fa50 	bl	8000be4 <HAL_GetTick>
 8002744:	60b8      	str	r0, [r7, #8]

      /* Wait till PLLSAI2 is ready */
      while(READ_BIT(RCC->CR, RCC_CR_PLLSAI2RDY) == 0U)
 8002746:	e009      	b.n	800275c <RCCEx_PLLSAI2_Config+0x18c>
      {
        if((HAL_GetTick() - tickstart) > PLLSAI2_TIMEOUT_VALUE)
 8002748:	f7fe fa4c 	bl	8000be4 <HAL_GetTick>
 800274c:	4602      	mov	r2, r0
 800274e:	68bb      	ldr	r3, [r7, #8]
 8002750:	1ad3      	subs	r3, r2, r3
 8002752:	2b02      	cmp	r3, #2
 8002754:	d902      	bls.n	800275c <RCCEx_PLLSAI2_Config+0x18c>
        {
          status = HAL_TIMEOUT;
 8002756:	2303      	movs	r3, #3
 8002758:	73fb      	strb	r3, [r7, #15]
          break;
 800275a:	e005      	b.n	8002768 <RCCEx_PLLSAI2_Config+0x198>
      while(READ_BIT(RCC->CR, RCC_CR_PLLSAI2RDY) == 0U)
 800275c:	4b0a      	ldr	r3, [pc, #40]	@ (8002788 <RCCEx_PLLSAI2_Config+0x1b8>)
 800275e:	681b      	ldr	r3, [r3, #0]
 8002760:	f003 5300 	and.w	r3, r3, #536870912	@ 0x20000000
 8002764:	2b00      	cmp	r3, #0
 8002766:	d0ef      	beq.n	8002748 <RCCEx_PLLSAI2_Config+0x178>
        }
      }

      if(status == HAL_OK)
 8002768:	7bfb      	ldrb	r3, [r7, #15]
 800276a:	2b00      	cmp	r3, #0
 800276c:	d106      	bne.n	800277c <RCCEx_PLLSAI2_Config+0x1ac>
      {
        /* Configure the PLLSAI2 Clock output(s) */
        __HAL_RCC_PLLSAI2CLKOUT_ENABLE(PllSai2->PLLSAI2ClockOut);
 800276e:	4b06      	ldr	r3, [pc, #24]	@ (8002788 <RCCEx_PLLSAI2_Config+0x1b8>)
 8002770:	695a      	ldr	r2, [r3, #20]
 8002772:	687b      	ldr	r3, [r7, #4]
 8002774:	695b      	ldr	r3, [r3, #20]
 8002776:	4904      	ldr	r1, [pc, #16]	@ (8002788 <RCCEx_PLLSAI2_Config+0x1b8>)
 8002778:	4313      	orrs	r3, r2
 800277a:	614b      	str	r3, [r1, #20]
      }
    }
  }

  return status;
 800277c:	7bfb      	ldrb	r3, [r7, #15]
}
 800277e:	4618      	mov	r0, r3
 8002780:	3710      	adds	r7, #16
 8002782:	46bd      	mov	sp, r7
 8002784:	bd80      	pop	{r7, pc}
 8002786:	bf00      	nop
 8002788:	40021000 	.word	0x40021000

0800278c <HAL_UART_Init>:
  *        parameters in the UART_InitTypeDef and initialize the associated handle.
  * @param huart UART handle.
  * @retval HAL status
  */
HAL_StatusTypeDef HAL_UART_Init(UART_HandleTypeDef *huart)
{
 800278c:	b580      	push	{r7, lr}
 800278e:	b082      	sub	sp, #8
 8002790:	af00      	add	r7, sp, #0
 8002792:	6078      	str	r0, [r7, #4]
  /* Check the UART handle allocation */
  if (huart == NULL)
 8002794:	687b      	ldr	r3, [r7, #4]
 8002796:	2b00      	cmp	r3, #0
 8002798:	d101      	bne.n	800279e <HAL_UART_Init+0x12>
  {
    return HAL_ERROR;
 800279a:	2301      	movs	r3, #1
 800279c:	e040      	b.n	8002820 <HAL_UART_Init+0x94>
  {
    /* Check the parameters */
    assert_param((IS_UART_INSTANCE(huart->Instance)) || (IS_LPUART_INSTANCE(huart->Instance)));
  }

  if (huart->gState == HAL_UART_STATE_RESET)
 800279e:	687b      	ldr	r3, [r7, #4]
 80027a0:	6fdb      	ldr	r3, [r3, #124]	@ 0x7c
 80027a2:	2b00      	cmp	r3, #0
 80027a4:	d106      	bne.n	80027b4 <HAL_UART_Init+0x28>
  {
    /* Allocate lock resource and initialize it */
    huart->Lock = HAL_UNLOCKED;
 80027a6:	687b      	ldr	r3, [r7, #4]
 80027a8:	2200      	movs	r2, #0
 80027aa:	f883 2078 	strb.w	r2, [r3, #120]	@ 0x78

    /* Init the low level hardware */
    huart->MspInitCallback(huart);
#else
    /* Init the low level hardware : GPIO, CLOCK */
    HAL_UART_MspInit(huart);
 80027ae:	6878      	ldr	r0, [r7, #4]
 80027b0:	f7fe f8b2 	bl	8000918 <HAL_UART_MspInit>
#endif /* (USE_HAL_UART_REGISTER_CALLBACKS) */
  }

  huart->gState = HAL_UART_STATE_BUSY;
 80027b4:	687b      	ldr	r3, [r7, #4]
 80027b6:	2224      	movs	r2, #36	@ 0x24
 80027b8:	67da      	str	r2, [r3, #124]	@ 0x7c

  __HAL_UART_DISABLE(huart);
 80027ba:	687b      	ldr	r3, [r7, #4]
 80027bc:	681b      	ldr	r3, [r3, #0]
 80027be:	681a      	ldr	r2, [r3, #0]
 80027c0:	687b      	ldr	r3, [r7, #4]
 80027c2:	681b      	ldr	r3, [r3, #0]
 80027c4:	f022 0201 	bic.w	r2, r2, #1
 80027c8:	601a      	str	r2, [r3, #0]

  /* Perform advanced settings configuration */
  /* For some items, configuration requires to be done prior TE and RE bits are set */
  if (huart->AdvancedInit.AdvFeatureInit != UART_ADVFEATURE_NO_INIT)
 80027ca:	687b      	ldr	r3, [r7, #4]
 80027cc:	6a5b      	ldr	r3, [r3, #36]	@ 0x24
 80027ce:	2b00      	cmp	r3, #0
 80027d0:	d002      	beq.n	80027d8 <HAL_UART_Init+0x4c>
  {
    UART_AdvFeatureConfig(huart);
 80027d2:	6878      	ldr	r0, [r7, #4]
 80027d4:	f000 fb6a 	bl	8002eac <UART_AdvFeatureConfig>
  }

  /* Set the UART Communication parameters */
  if (UART_SetConfig(huart) == HAL_ERROR)
 80027d8:	6878      	ldr	r0, [r7, #4]
 80027da:	f000 f8af 	bl	800293c <UART_SetConfig>
 80027de:	4603      	mov	r3, r0
 80027e0:	2b01      	cmp	r3, #1
 80027e2:	d101      	bne.n	80027e8 <HAL_UART_Init+0x5c>
  {
    return HAL_ERROR;
 80027e4:	2301      	movs	r3, #1
 80027e6:	e01b      	b.n	8002820 <HAL_UART_Init+0x94>
  }

  /* In asynchronous mode, the following bits must be kept cleared:
  - LINEN and CLKEN bits in the USART_CR2 register,
  - SCEN, HDSEL and IREN  bits in the USART_CR3 register.*/
  CLEAR_BIT(huart->Instance->CR2, (USART_CR2_LINEN | USART_CR2_CLKEN));
 80027e8:	687b      	ldr	r3, [r7, #4]
 80027ea:	681b      	ldr	r3, [r3, #0]
 80027ec:	685a      	ldr	r2, [r3, #4]
 80027ee:	687b      	ldr	r3, [r7, #4]
 80027f0:	681b      	ldr	r3, [r3, #0]
 80027f2:	f422 4290 	bic.w	r2, r2, #18432	@ 0x4800
 80027f6:	605a      	str	r2, [r3, #4]
  CLEAR_BIT(huart->Instance->CR3, (USART_CR3_SCEN | USART_CR3_HDSEL | USART_CR3_IREN));
 80027f8:	687b      	ldr	r3, [r7, #4]
 80027fa:	681b      	ldr	r3, [r3, #0]
 80027fc:	689a      	ldr	r2, [r3, #8]
 80027fe:	687b      	ldr	r3, [r7, #4]
 8002800:	681b      	ldr	r3, [r3, #0]
 8002802:	f022 022a 	bic.w	r2, r2, #42	@ 0x2a
 8002806:	609a      	str	r2, [r3, #8]

  __HAL_UART_ENABLE(huart);
 8002808:	687b      	ldr	r3, [r7, #4]
 800280a:	681b      	ldr	r3, [r3, #0]
 800280c:	681a      	ldr	r2, [r3, #0]
 800280e:	687b      	ldr	r3, [r7, #4]
 8002810:	681b      	ldr	r3, [r3, #0]
 8002812:	f042 0201 	orr.w	r2, r2, #1
 8002816:	601a      	str	r2, [r3, #0]

  /* TEACK and/or REACK to check before moving huart->gState and huart->RxState to Ready */
  return (UART_CheckIdleState(huart));
 8002818:	6878      	ldr	r0, [r7, #4]
 800281a:	f000 fbe9 	bl	8002ff0 <UART_CheckIdleState>
 800281e:	4603      	mov	r3, r0
}
 8002820:	4618      	mov	r0, r3
 8002822:	3708      	adds	r7, #8
 8002824:	46bd      	mov	sp, r7
 8002826:	bd80      	pop	{r7, pc}

08002828 <HAL_UART_Transmit>:
  * @param Size    Amount of data elements (u8 or u16) to be sent.
  * @param Timeout Timeout duration.
  * @retval HAL status
  */
HAL_StatusTypeDef HAL_UART_Transmit(UART_HandleTypeDef *huart, const uint8_t *pData, uint16_t Size, uint32_t Timeout)
{
 8002828:	b580      	push	{r7, lr}
 800282a:	b08a      	sub	sp, #40	@ 0x28
 800282c:	af02      	add	r7, sp, #8
 800282e:	60f8      	str	r0, [r7, #12]
 8002830:	60b9      	str	r1, [r7, #8]
 8002832:	603b      	str	r3, [r7, #0]
 8002834:	4613      	mov	r3, r2
 8002836:	80fb      	strh	r3, [r7, #6]
  const uint8_t  *pdata8bits;
  const uint16_t *pdata16bits;
  uint32_t tickstart;

  /* Check that a Tx process is not already ongoing */
  if (huart->gState == HAL_UART_STATE_READY)
 8002838:	68fb      	ldr	r3, [r7, #12]
 800283a:	6fdb      	ldr	r3, [r3, #124]	@ 0x7c
 800283c:	2b20      	cmp	r3, #32
 800283e:	d177      	bne.n	8002930 <HAL_UART_Transmit+0x108>
  {
    if ((pData == NULL) || (Size == 0U))
 8002840:	68bb      	ldr	r3, [r7, #8]
 8002842:	2b00      	cmp	r3, #0
 8002844:	d002      	beq.n	800284c <HAL_UART_Transmit+0x24>
 8002846:	88fb      	ldrh	r3, [r7, #6]
 8002848:	2b00      	cmp	r3, #0
 800284a:	d101      	bne.n	8002850 <HAL_UART_Transmit+0x28>
    {
      return  HAL_ERROR;
 800284c:	2301      	movs	r3, #1
 800284e:	e070      	b.n	8002932 <HAL_UART_Transmit+0x10a>
    }

    huart->ErrorCode = HAL_UART_ERROR_NONE;
 8002850:	68fb      	ldr	r3, [r7, #12]
 8002852:	2200      	movs	r2, #0
 8002854:	f8c3 2084 	str.w	r2, [r3, #132]	@ 0x84
    huart->gState = HAL_UART_STATE_BUSY_TX;
 8002858:	68fb      	ldr	r3, [r7, #12]
 800285a:	2221      	movs	r2, #33	@ 0x21
 800285c:	67da      	str	r2, [r3, #124]	@ 0x7c

    /* Init tickstart for timeout management */
    tickstart = HAL_GetTick();
 800285e:	f7fe f9c1 	bl	8000be4 <HAL_GetTick>
 8002862:	6178      	str	r0, [r7, #20]

    huart->TxXferSize  = Size;
 8002864:	68fb      	ldr	r3, [r7, #12]
 8002866:	88fa      	ldrh	r2, [r7, #6]
 8002868:	f8a3 2050 	strh.w	r2, [r3, #80]	@ 0x50
    huart->TxXferCount = Size;
 800286c:	68fb      	ldr	r3, [r7, #12]
 800286e:	88fa      	ldrh	r2, [r7, #6]
 8002870:	f8a3 2052 	strh.w	r2, [r3, #82]	@ 0x52

    /* In case of 9bits/No Parity transfer, pData needs to be handled as a uint16_t pointer */
    if ((huart->Init.WordLength == UART_WORDLENGTH_9B) && (huart->Init.Parity == UART_PARITY_NONE))
 8002874:	68fb      	ldr	r3, [r7, #12]
 8002876:	689b      	ldr	r3, [r3, #8]
 8002878:	f5b3 5f80 	cmp.w	r3, #4096	@ 0x1000
 800287c:	d108      	bne.n	8002890 <HAL_UART_Transmit+0x68>
 800287e:	68fb      	ldr	r3, [r7, #12]
 8002880:	691b      	ldr	r3, [r3, #16]
 8002882:	2b00      	cmp	r3, #0
 8002884:	d104      	bne.n	8002890 <HAL_UART_Transmit+0x68>
    {
      pdata8bits  = NULL;
 8002886:	2300      	movs	r3, #0
 8002888:	61fb      	str	r3, [r7, #28]
      pdata16bits = (const uint16_t *) pData;
 800288a:	68bb      	ldr	r3, [r7, #8]
 800288c:	61bb      	str	r3, [r7, #24]
 800288e:	e003      	b.n	8002898 <HAL_UART_Transmit+0x70>
    }
    else
    {
      pdata8bits  = pData;
 8002890:	68bb      	ldr	r3, [r7, #8]
 8002892:	61fb      	str	r3, [r7, #28]
      pdata16bits = NULL;
 8002894:	2300      	movs	r3, #0
 8002896:	61bb      	str	r3, [r7, #24]
    }

    while (huart->TxXferCount > 0U)
 8002898:	e02f      	b.n	80028fa <HAL_UART_Transmit+0xd2>
    {
      if (UART_WaitOnFlagUntilTimeout(huart, UART_FLAG_TXE, RESET, tickstart, Timeout) != HAL_OK)
 800289a:	683b      	ldr	r3, [r7, #0]
 800289c:	9300      	str	r3, [sp, #0]
 800289e:	697b      	ldr	r3, [r7, #20]
 80028a0:	2200      	movs	r2, #0
 80028a2:	2180      	movs	r1, #128	@ 0x80
 80028a4:	68f8      	ldr	r0, [r7, #12]
 80028a6:	f000 fc4b 	bl	8003140 <UART_WaitOnFlagUntilTimeout>
 80028aa:	4603      	mov	r3, r0
 80028ac:	2b00      	cmp	r3, #0
 80028ae:	d004      	beq.n	80028ba <HAL_UART_Transmit+0x92>
      {

        huart->gState = HAL_UART_STATE_READY;
 80028b0:	68fb      	ldr	r3, [r7, #12]
 80028b2:	2220      	movs	r2, #32
 80028b4:	67da      	str	r2, [r3, #124]	@ 0x7c

        return HAL_TIMEOUT;
 80028b6:	2303      	movs	r3, #3
 80028b8:	e03b      	b.n	8002932 <HAL_UART_Transmit+0x10a>
      }
      if (pdata8bits == NULL)
 80028ba:	69fb      	ldr	r3, [r7, #28]
 80028bc:	2b00      	cmp	r3, #0
 80028be:	d10b      	bne.n	80028d8 <HAL_UART_Transmit+0xb0>
      {
        huart->Instance->TDR = (uint16_t)(*pdata16bits & 0x01FFU);
 80028c0:	69bb      	ldr	r3, [r7, #24]
 80028c2:	881a      	ldrh	r2, [r3, #0]
 80028c4:	68fb      	ldr	r3, [r7, #12]
 80028c6:	681b      	ldr	r3, [r3, #0]
 80028c8:	f3c2 0208 	ubfx	r2, r2, #0, #9
 80028cc:	b292      	uxth	r2, r2
 80028ce:	851a      	strh	r2, [r3, #40]	@ 0x28
        pdata16bits++;
 80028d0:	69bb      	ldr	r3, [r7, #24]
 80028d2:	3302      	adds	r3, #2
 80028d4:	61bb      	str	r3, [r7, #24]
 80028d6:	e007      	b.n	80028e8 <HAL_UART_Transmit+0xc0>
      }
      else
      {
        huart->Instance->TDR = (uint8_t)(*pdata8bits & 0xFFU);
 80028d8:	69fb      	ldr	r3, [r7, #28]
 80028da:	781a      	ldrb	r2, [r3, #0]
 80028dc:	68fb      	ldr	r3, [r7, #12]
 80028de:	681b      	ldr	r3, [r3, #0]
 80028e0:	851a      	strh	r2, [r3, #40]	@ 0x28
        pdata8bits++;
 80028e2:	69fb      	ldr	r3, [r7, #28]
 80028e4:	3301      	adds	r3, #1
 80028e6:	61fb      	str	r3, [r7, #28]
      }
      huart->TxXferCount--;
 80028e8:	68fb      	ldr	r3, [r7, #12]
 80028ea:	f8b3 3052 	ldrh.w	r3, [r3, #82]	@ 0x52
 80028ee:	b29b      	uxth	r3, r3
 80028f0:	3b01      	subs	r3, #1
 80028f2:	b29a      	uxth	r2, r3
 80028f4:	68fb      	ldr	r3, [r7, #12]
 80028f6:	f8a3 2052 	strh.w	r2, [r3, #82]	@ 0x52
    while (huart->TxXferCount > 0U)
 80028fa:	68fb      	ldr	r3, [r7, #12]
 80028fc:	f8b3 3052 	ldrh.w	r3, [r3, #82]	@ 0x52
 8002900:	b29b      	uxth	r3, r3
 8002902:	2b00      	cmp	r3, #0
 8002904:	d1c9      	bne.n	800289a <HAL_UART_Transmit+0x72>
    }

    if (UART_WaitOnFlagUntilTimeout(huart, UART_FLAG_TC, RESET, tickstart, Timeout) != HAL_OK)
 8002906:	683b      	ldr	r3, [r7, #0]
 8002908:	9300      	str	r3, [sp, #0]
 800290a:	697b      	ldr	r3, [r7, #20]
 800290c:	2200      	movs	r2, #0
 800290e:	2140      	movs	r1, #64	@ 0x40
 8002910:	68f8      	ldr	r0, [r7, #12]
 8002912:	f000 fc15 	bl	8003140 <UART_WaitOnFlagUntilTimeout>
 8002916:	4603      	mov	r3, r0
 8002918:	2b00      	cmp	r3, #0
 800291a:	d004      	beq.n	8002926 <HAL_UART_Transmit+0xfe>
    {
      huart->gState = HAL_UART_STATE_READY;
 800291c:	68fb      	ldr	r3, [r7, #12]
 800291e:	2220      	movs	r2, #32
 8002920:	67da      	str	r2, [r3, #124]	@ 0x7c

      return HAL_TIMEOUT;
 8002922:	2303      	movs	r3, #3
 8002924:	e005      	b.n	8002932 <HAL_UART_Transmit+0x10a>
    }

    /* At end of Tx process, restore huart->gState to Ready */
    huart->gState = HAL_UART_STATE_READY;
 8002926:	68fb      	ldr	r3, [r7, #12]
 8002928:	2220      	movs	r2, #32
 800292a:	67da      	str	r2, [r3, #124]	@ 0x7c

    return HAL_OK;
 800292c:	2300      	movs	r3, #0
 800292e:	e000      	b.n	8002932 <HAL_UART_Transmit+0x10a>
  }
  else
  {
    return HAL_BUSY;
 8002930:	2302      	movs	r3, #2
  }
}
 8002932:	4618      	mov	r0, r3
 8002934:	3720      	adds	r7, #32
 8002936:	46bd      	mov	sp, r7
 8002938:	bd80      	pop	{r7, pc}
	...

0800293c <UART_SetConfig>:
  * @brief Configure the UART peripheral.
  * @param huart UART handle.
  * @retval HAL status
  */
HAL_StatusTypeDef UART_SetConfig(UART_HandleTypeDef *huart)
{
 800293c:	e92d 4fb0 	stmdb	sp!, {r4, r5, r7, r8, r9, sl, fp, lr}
 8002940:	b08a      	sub	sp, #40	@ 0x28
 8002942:	af00      	add	r7, sp, #0
 8002944:	60f8      	str	r0, [r7, #12]
  uint32_t tmpreg;
  uint16_t brrtemp;
  UART_ClockSourceTypeDef clocksource;
  uint32_t usartdiv;
  HAL_StatusTypeDef ret               = HAL_OK;
 8002946:	2300      	movs	r3, #0
 8002948:	f887 3022 	strb.w	r3, [r7, #34]	@ 0x22
  *  the UART Word Length, Parity, Mode and oversampling:
  *  set the M bits according to huart->Init.WordLength value
  *  set PCE and PS bits according to huart->Init.Parity value
  *  set TE and RE bits according to huart->Init.Mode value
  *  set OVER8 bit according to huart->Init.OverSampling value */
  tmpreg = (uint32_t)huart->Init.WordLength | huart->Init.Parity | huart->Init.Mode | huart->Init.OverSampling ;
 800294c:	68fb      	ldr	r3, [r7, #12]
 800294e:	689a      	ldr	r2, [r3, #8]
 8002950:	68fb      	ldr	r3, [r7, #12]
 8002952:	691b      	ldr	r3, [r3, #16]
 8002954:	431a      	orrs	r2, r3
 8002956:	68fb      	ldr	r3, [r7, #12]
 8002958:	695b      	ldr	r3, [r3, #20]
 800295a:	431a      	orrs	r2, r3
 800295c:	68fb      	ldr	r3, [r7, #12]
 800295e:	69db      	ldr	r3, [r3, #28]
 8002960:	4313      	orrs	r3, r2
 8002962:	627b      	str	r3, [r7, #36]	@ 0x24
  MODIFY_REG(huart->Instance->CR1, USART_CR1_FIELDS, tmpreg);
 8002964:	68fb      	ldr	r3, [r7, #12]
 8002966:	681b      	ldr	r3, [r3, #0]
 8002968:	681a      	ldr	r2, [r3, #0]
 800296a:	4ba4      	ldr	r3, [pc, #656]	@ (8002bfc <UART_SetConfig+0x2c0>)
 800296c:	4013      	ands	r3, r2
 800296e:	68fa      	ldr	r2, [r7, #12]
 8002970:	6812      	ldr	r2, [r2, #0]
 8002972:	6a79      	ldr	r1, [r7, #36]	@ 0x24
 8002974:	430b      	orrs	r3, r1
 8002976:	6013      	str	r3, [r2, #0]

  /*-------------------------- USART CR2 Configuration -----------------------*/
  /* Configure the UART Stop Bits: Set STOP[13:12] bits according
  * to huart->Init.StopBits value */
  MODIFY_REG(huart->Instance->CR2, USART_CR2_STOP, huart->Init.StopBits);
 8002978:	68fb      	ldr	r3, [r7, #12]
 800297a:	681b      	ldr	r3, [r3, #0]
 800297c:	685b      	ldr	r3, [r3, #4]
 800297e:	f423 5140 	bic.w	r1, r3, #12288	@ 0x3000
 8002982:	68fb      	ldr	r3, [r7, #12]
 8002984:	68da      	ldr	r2, [r3, #12]
 8002986:	68fb      	ldr	r3, [r7, #12]
 8002988:	681b      	ldr	r3, [r3, #0]
 800298a:	430a      	orrs	r2, r1
 800298c:	605a      	str	r2, [r3, #4]
  /* Configure
  * - UART HardWare Flow Control: set CTSE and RTSE bits according
  *   to huart->Init.HwFlowCtl value
  * - one-bit sampling method versus three samples' majority rule according
  *   to huart->Init.OneBitSampling (not applicable to LPUART) */
  tmpreg = (uint32_t)huart->Init.HwFlowCtl;
 800298e:	68fb      	ldr	r3, [r7, #12]
 8002990:	699b      	ldr	r3, [r3, #24]
 8002992:	627b      	str	r3, [r7, #36]	@ 0x24

  if (!(UART_INSTANCE_LOWPOWER(huart)))
 8002994:	68fb      	ldr	r3, [r7, #12]
 8002996:	681b      	ldr	r3, [r3, #0]
 8002998:	4a99      	ldr	r2, [pc, #612]	@ (8002c00 <UART_SetConfig+0x2c4>)
 800299a:	4293      	cmp	r3, r2
 800299c:	d004      	beq.n	80029a8 <UART_SetConfig+0x6c>
  {
    tmpreg |= huart->Init.OneBitSampling;
 800299e:	68fb      	ldr	r3, [r7, #12]
 80029a0:	6a1b      	ldr	r3, [r3, #32]
 80029a2:	6a7a      	ldr	r2, [r7, #36]	@ 0x24
 80029a4:	4313      	orrs	r3, r2
 80029a6:	627b      	str	r3, [r7, #36]	@ 0x24
  }
  MODIFY_REG(huart->Instance->CR3, USART_CR3_FIELDS, tmpreg);
 80029a8:	68fb      	ldr	r3, [r7, #12]
 80029aa:	681b      	ldr	r3, [r3, #0]
 80029ac:	689b      	ldr	r3, [r3, #8]
 80029ae:	f423 6130 	bic.w	r1, r3, #2816	@ 0xb00
 80029b2:	68fb      	ldr	r3, [r7, #12]
 80029b4:	681b      	ldr	r3, [r3, #0]
 80029b6:	6a7a      	ldr	r2, [r7, #36]	@ 0x24
 80029b8:	430a      	orrs	r2, r1
 80029ba:	609a      	str	r2, [r3, #8]
  * - UART Clock Prescaler : set PRESCALER according to huart->Init.ClockPrescaler value */
  MODIFY_REG(huart->Instance->PRESC, USART_PRESC_PRESCALER, huart->Init.ClockPrescaler);
#endif /* USART_PRESC_PRESCALER */

  /*-------------------------- USART BRR Configuration -----------------------*/
  UART_GETCLOCKSOURCE(huart, clocksource);
 80029bc:	68fb      	ldr	r3, [r7, #12]
 80029be:	681b      	ldr	r3, [r3, #0]
 80029c0:	4a90      	ldr	r2, [pc, #576]	@ (8002c04 <UART_SetConfig+0x2c8>)
 80029c2:	4293      	cmp	r3, r2
 80029c4:	d126      	bne.n	8002a14 <UART_SetConfig+0xd8>
 80029c6:	4b90      	ldr	r3, [pc, #576]	@ (8002c08 <UART_SetConfig+0x2cc>)
 80029c8:	f8d3 3088 	ldr.w	r3, [r3, #136]	@ 0x88
 80029cc:	f003 0303 	and.w	r3, r3, #3
 80029d0:	2b03      	cmp	r3, #3
 80029d2:	d81b      	bhi.n	8002a0c <UART_SetConfig+0xd0>
 80029d4:	a201      	add	r2, pc, #4	@ (adr r2, 80029dc <UART_SetConfig+0xa0>)
 80029d6:	f852 f023 	ldr.w	pc, [r2, r3, lsl #2]
 80029da:	bf00      	nop
 80029dc:	080029ed 	.word	0x080029ed
 80029e0:	080029fd 	.word	0x080029fd
 80029e4:	080029f5 	.word	0x080029f5
 80029e8:	08002a05 	.word	0x08002a05
 80029ec:	2301      	movs	r3, #1
 80029ee:	f887 3023 	strb.w	r3, [r7, #35]	@ 0x23
 80029f2:	e116      	b.n	8002c22 <UART_SetConfig+0x2e6>
 80029f4:	2302      	movs	r3, #2
 80029f6:	f887 3023 	strb.w	r3, [r7, #35]	@ 0x23
 80029fa:	e112      	b.n	8002c22 <UART_SetConfig+0x2e6>
 80029fc:	2304      	movs	r3, #4
 80029fe:	f887 3023 	strb.w	r3, [r7, #35]	@ 0x23
 8002a02:	e10e      	b.n	8002c22 <UART_SetConfig+0x2e6>
 8002a04:	2308      	movs	r3, #8
 8002a06:	f887 3023 	strb.w	r3, [r7, #35]	@ 0x23
 8002a0a:	e10a      	b.n	8002c22 <UART_SetConfig+0x2e6>
 8002a0c:	2310      	movs	r3, #16
 8002a0e:	f887 3023 	strb.w	r3, [r7, #35]	@ 0x23
 8002a12:	e106      	b.n	8002c22 <UART_SetConfig+0x2e6>
 8002a14:	68fb      	ldr	r3, [r7, #12]
 8002a16:	681b      	ldr	r3, [r3, #0]
 8002a18:	4a7c      	ldr	r2, [pc, #496]	@ (8002c0c <UART_SetConfig+0x2d0>)
 8002a1a:	4293      	cmp	r3, r2
 8002a1c:	d138      	bne.n	8002a90 <UART_SetConfig+0x154>
 8002a1e:	4b7a      	ldr	r3, [pc, #488]	@ (8002c08 <UART_SetConfig+0x2cc>)
 8002a20:	f8d3 3088 	ldr.w	r3, [r3, #136]	@ 0x88
 8002a24:	f003 030c 	and.w	r3, r3, #12
 8002a28:	2b0c      	cmp	r3, #12
 8002a2a:	d82d      	bhi.n	8002a88 <UART_SetConfig+0x14c>
 8002a2c:	a201      	add	r2, pc, #4	@ (adr r2, 8002a34 <UART_SetConfig+0xf8>)
 8002a2e:	f852 f023 	ldr.w	pc, [r2, r3, lsl #2]
 8002a32:	bf00      	nop
 8002a34:	08002a69 	.word	0x08002a69
 8002a38:	08002a89 	.word	0x08002a89
 8002a3c:	08002a89 	.word	0x08002a89
 8002a40:	08002a89 	.word	0x08002a89
 8002a44:	08002a79 	.word	0x08002a79
 8002a48:	08002a89 	.word	0x08002a89
 8002a4c:	08002a89 	.word	0x08002a89
 8002a50:	08002a89 	.word	0x08002a89
 8002a54:	08002a71 	.word	0x08002a71
 8002a58:	08002a89 	.word	0x08002a89
 8002a5c:	08002a89 	.word	0x08002a89
 8002a60:	08002a89 	.word	0x08002a89
 8002a64:	08002a81 	.word	0x08002a81
 8002a68:	2300      	movs	r3, #0
 8002a6a:	f887 3023 	strb.w	r3, [r7, #35]	@ 0x23
 8002a6e:	e0d8      	b.n	8002c22 <UART_SetConfig+0x2e6>
 8002a70:	2302      	movs	r3, #2
 8002a72:	f887 3023 	strb.w	r3, [r7, #35]	@ 0x23
 8002a76:	e0d4      	b.n	8002c22 <UART_SetConfig+0x2e6>
 8002a78:	2304      	movs	r3, #4
 8002a7a:	f887 3023 	strb.w	r3, [r7, #35]	@ 0x23
 8002a7e:	e0d0      	b.n	8002c22 <UART_SetConfig+0x2e6>
 8002a80:	2308      	movs	r3, #8
 8002a82:	f887 3023 	strb.w	r3, [r7, #35]	@ 0x23
 8002a86:	e0cc      	b.n	8002c22 <UART_SetConfig+0x2e6>
 8002a88:	2310      	movs	r3, #16
 8002a8a:	f887 3023 	strb.w	r3, [r7, #35]	@ 0x23
 8002a8e:	e0c8      	b.n	8002c22 <UART_SetConfig+0x2e6>
 8002a90:	68fb      	ldr	r3, [r7, #12]
 8002a92:	681b      	ldr	r3, [r3, #0]
 8002a94:	4a5e      	ldr	r2, [pc, #376]	@ (8002c10 <UART_SetConfig+0x2d4>)
 8002a96:	4293      	cmp	r3, r2
 8002a98:	d125      	bne.n	8002ae6 <UART_SetConfig+0x1aa>
 8002a9a:	4b5b      	ldr	r3, [pc, #364]	@ (8002c08 <UART_SetConfig+0x2cc>)
 8002a9c:	f8d3 3088 	ldr.w	r3, [r3, #136]	@ 0x88
 8002aa0:	f003 0330 	and.w	r3, r3, #48	@ 0x30
 8002aa4:	2b30      	cmp	r3, #48	@ 0x30
 8002aa6:	d016      	beq.n	8002ad6 <UART_SetConfig+0x19a>
 8002aa8:	2b30      	cmp	r3, #48	@ 0x30
 8002aaa:	d818      	bhi.n	8002ade <UART_SetConfig+0x1a2>
 8002aac:	2b20      	cmp	r3, #32
 8002aae:	d00a      	beq.n	8002ac6 <UART_SetConfig+0x18a>
 8002ab0:	2b20      	cmp	r3, #32
 8002ab2:	d814      	bhi.n	8002ade <UART_SetConfig+0x1a2>
 8002ab4:	2b00      	cmp	r3, #0
 8002ab6:	d002      	beq.n	8002abe <UART_SetConfig+0x182>
 8002ab8:	2b10      	cmp	r3, #16
 8002aba:	d008      	beq.n	8002ace <UART_SetConfig+0x192>
 8002abc:	e00f      	b.n	8002ade <UART_SetConfig+0x1a2>
 8002abe:	2300      	movs	r3, #0
 8002ac0:	f887 3023 	strb.w	r3, [r7, #35]	@ 0x23
 8002ac4:	e0ad      	b.n	8002c22 <UART_SetConfig+0x2e6>
 8002ac6:	2302      	movs	r3, #2
 8002ac8:	f887 3023 	strb.w	r3, [r7, #35]	@ 0x23
 8002acc:	e0a9      	b.n	8002c22 <UART_SetConfig+0x2e6>
 8002ace:	2304      	movs	r3, #4
 8002ad0:	f887 3023 	strb.w	r3, [r7, #35]	@ 0x23
 8002ad4:	e0a5      	b.n	8002c22 <UART_SetConfig+0x2e6>
 8002ad6:	2308      	movs	r3, #8
 8002ad8:	f887 3023 	strb.w	r3, [r7, #35]	@ 0x23
 8002adc:	e0a1      	b.n	8002c22 <UART_SetConfig+0x2e6>
 8002ade:	2310      	movs	r3, #16
 8002ae0:	f887 3023 	strb.w	r3, [r7, #35]	@ 0x23
 8002ae4:	e09d      	b.n	8002c22 <UART_SetConfig+0x2e6>
 8002ae6:	68fb      	ldr	r3, [r7, #12]
 8002ae8:	681b      	ldr	r3, [r3, #0]
 8002aea:	4a4a      	ldr	r2, [pc, #296]	@ (8002c14 <UART_SetConfig+0x2d8>)
 8002aec:	4293      	cmp	r3, r2
 8002aee:	d125      	bne.n	8002b3c <UART_SetConfig+0x200>
 8002af0:	4b45      	ldr	r3, [pc, #276]	@ (8002c08 <UART_SetConfig+0x2cc>)
 8002af2:	f8d3 3088 	ldr.w	r3, [r3, #136]	@ 0x88
 8002af6:	f003 03c0 	and.w	r3, r3, #192	@ 0xc0
 8002afa:	2bc0      	cmp	r3, #192	@ 0xc0
 8002afc:	d016      	beq.n	8002b2c <UART_SetConfig+0x1f0>
 8002afe:	2bc0      	cmp	r3, #192	@ 0xc0
 8002b00:	d818      	bhi.n	8002b34 <UART_SetConfig+0x1f8>
 8002b02:	2b80      	cmp	r3, #128	@ 0x80
 8002b04:	d00a      	beq.n	8002b1c <UART_SetConfig+0x1e0>
 8002b06:	2b80      	cmp	r3, #128	@ 0x80
 8002b08:	d814      	bhi.n	8002b34 <UART_SetConfig+0x1f8>
 8002b0a:	2b00      	cmp	r3, #0
 8002b0c:	d002      	beq.n	8002b14 <UART_SetConfig+0x1d8>
 8002b0e:	2b40      	cmp	r3, #64	@ 0x40
 8002b10:	d008      	beq.n	8002b24 <UART_SetConfig+0x1e8>
 8002b12:	e00f      	b.n	8002b34 <UART_SetConfig+0x1f8>
 8002b14:	2300      	movs	r3, #0
 8002b16:	f887 3023 	strb.w	r3, [r7, #35]	@ 0x23
 8002b1a:	e082      	b.n	8002c22 <UART_SetConfig+0x2e6>
 8002b1c:	2302      	movs	r3, #2
 8002b1e:	f887 3023 	strb.w	r3, [r7, #35]	@ 0x23
 8002b22:	e07e      	b.n	8002c22 <UART_SetConfig+0x2e6>
 8002b24:	2304      	movs	r3, #4
 8002b26:	f887 3023 	strb.w	r3, [r7, #35]	@ 0x23
 8002b2a:	e07a      	b.n	8002c22 <UART_SetConfig+0x2e6>
 8002b2c:	2308      	movs	r3, #8
 8002b2e:	f887 3023 	strb.w	r3, [r7, #35]	@ 0x23
 8002b32:	e076      	b.n	8002c22 <UART_SetConfig+0x2e6>
 8002b34:	2310      	movs	r3, #16
 8002b36:	f887 3023 	strb.w	r3, [r7, #35]	@ 0x23
 8002b3a:	e072      	b.n	8002c22 <UART_SetConfig+0x2e6>
 8002b3c:	68fb      	ldr	r3, [r7, #12]
 8002b3e:	681b      	ldr	r3, [r3, #0]
 8002b40:	4a35      	ldr	r2, [pc, #212]	@ (8002c18 <UART_SetConfig+0x2dc>)
 8002b42:	4293      	cmp	r3, r2
 8002b44:	d12a      	bne.n	8002b9c <UART_SetConfig+0x260>
 8002b46:	4b30      	ldr	r3, [pc, #192]	@ (8002c08 <UART_SetConfig+0x2cc>)
 8002b48:	f8d3 3088 	ldr.w	r3, [r3, #136]	@ 0x88
 8002b4c:	f403 7340 	and.w	r3, r3, #768	@ 0x300
 8002b50:	f5b3 7f40 	cmp.w	r3, #768	@ 0x300
 8002b54:	d01a      	beq.n	8002b8c <UART_SetConfig+0x250>
 8002b56:	f5b3 7f40 	cmp.w	r3, #768	@ 0x300
 8002b5a:	d81b      	bhi.n	8002b94 <UART_SetConfig+0x258>
 8002b5c:	f5b3 7f00 	cmp.w	r3, #512	@ 0x200
 8002b60:	d00c      	beq.n	8002b7c <UART_SetConfig+0x240>
 8002b62:	f5b3 7f00 	cmp.w	r3, #512	@ 0x200
 8002b66:	d815      	bhi.n	8002b94 <UART_SetConfig+0x258>
 8002b68:	2b00      	cmp	r3, #0
 8002b6a:	d003      	beq.n	8002b74 <UART_SetConfig+0x238>
 8002b6c:	f5b3 7f80 	cmp.w	r3, #256	@ 0x100
 8002b70:	d008      	beq.n	8002b84 <UART_SetConfig+0x248>
 8002b72:	e00f      	b.n	8002b94 <UART_SetConfig+0x258>
 8002b74:	2300      	movs	r3, #0
 8002b76:	f887 3023 	strb.w	r3, [r7, #35]	@ 0x23
 8002b7a:	e052      	b.n	8002c22 <UART_SetConfig+0x2e6>
 8002b7c:	2302      	movs	r3, #2
 8002b7e:	f887 3023 	strb.w	r3, [r7, #35]	@ 0x23
 8002b82:	e04e      	b.n	8002c22 <UART_SetConfig+0x2e6>
 8002b84:	2304      	movs	r3, #4
 8002b86:	f887 3023 	strb.w	r3, [r7, #35]	@ 0x23
 8002b8a:	e04a      	b.n	8002c22 <UART_SetConfig+0x2e6>
 8002b8c:	2308      	movs	r3, #8
 8002b8e:	f887 3023 	strb.w	r3, [r7, #35]	@ 0x23
 8002b92:	e046      	b.n	8002c22 <UART_SetConfig+0x2e6>
 8002b94:	2310      	movs	r3, #16
 8002b96:	f887 3023 	strb.w	r3, [r7, #35]	@ 0x23
 8002b9a:	e042      	b.n	8002c22 <UART_SetConfig+0x2e6>
 8002b9c:	68fb      	ldr	r3, [r7, #12]
 8002b9e:	681b      	ldr	r3, [r3, #0]
 8002ba0:	4a17      	ldr	r2, [pc, #92]	@ (8002c00 <UART_SetConfig+0x2c4>)
 8002ba2:	4293      	cmp	r3, r2
 8002ba4:	d13a      	bne.n	8002c1c <UART_SetConfig+0x2e0>
 8002ba6:	4b18      	ldr	r3, [pc, #96]	@ (8002c08 <UART_SetConfig+0x2cc>)
 8002ba8:	f8d3 3088 	ldr.w	r3, [r3, #136]	@ 0x88
 8002bac:	f403 6340 	and.w	r3, r3, #3072	@ 0xc00
 8002bb0:	f5b3 6f40 	cmp.w	r3, #3072	@ 0xc00
 8002bb4:	d01a      	beq.n	8002bec <UART_SetConfig+0x2b0>
 8002bb6:	f5b3 6f40 	cmp.w	r3, #3072	@ 0xc00
 8002bba:	d81b      	bhi.n	8002bf4 <UART_SetConfig+0x2b8>
 8002bbc:	f5b3 6f00 	cmp.w	r3, #2048	@ 0x800
 8002bc0:	d00c      	beq.n	8002bdc <UART_SetConfig+0x2a0>
 8002bc2:	f5b3 6f00 	cmp.w	r3, #2048	@ 0x800
 8002bc6:	d815      	bhi.n	8002bf4 <UART_SetConfig+0x2b8>
 8002bc8:	2b00      	cmp	r3, #0
 8002bca:	d003      	beq.n	8002bd4 <UART_SetConfig+0x298>
 8002bcc:	f5b3 6f80 	cmp.w	r3, #1024	@ 0x400
 8002bd0:	d008      	beq.n	8002be4 <UART_SetConfig+0x2a8>
 8002bd2:	e00f      	b.n	8002bf4 <UART_SetConfig+0x2b8>
 8002bd4:	2300      	movs	r3, #0
 8002bd6:	f887 3023 	strb.w	r3, [r7, #35]	@ 0x23
 8002bda:	e022      	b.n	8002c22 <UART_SetConfig+0x2e6>
 8002bdc:	2302      	movs	r3, #2
 8002bde:	f887 3023 	strb.w	r3, [r7, #35]	@ 0x23
 8002be2:	e01e      	b.n	8002c22 <UART_SetConfig+0x2e6>
 8002be4:	2304      	movs	r3, #4
 8002be6:	f887 3023 	strb.w	r3, [r7, #35]	@ 0x23
 8002bea:	e01a      	b.n	8002c22 <UART_SetConfig+0x2e6>
 8002bec:	2308      	movs	r3, #8
 8002bee:	f887 3023 	strb.w	r3, [r7, #35]	@ 0x23
 8002bf2:	e016      	b.n	8002c22 <UART_SetConfig+0x2e6>
 8002bf4:	2310      	movs	r3, #16
 8002bf6:	f887 3023 	strb.w	r3, [r7, #35]	@ 0x23
 8002bfa:	e012      	b.n	8002c22 <UART_SetConfig+0x2e6>
 8002bfc:	efff69f3 	.word	0xefff69f3
 8002c00:	40008000 	.word	0x40008000
 8002c04:	40013800 	.word	0x40013800
 8002c08:	40021000 	.word	0x40021000
 8002c0c:	40004400 	.word	0x40004400
 8002c10:	40004800 	.word	0x40004800
 8002c14:	40004c00 	.word	0x40004c00
 8002c18:	40005000 	.word	0x40005000
 8002c1c:	2310      	movs	r3, #16
 8002c1e:	f887 3023 	strb.w	r3, [r7, #35]	@ 0x23

  /* Check LPUART instance */
  if (UART_INSTANCE_LOWPOWER(huart))
 8002c22:	68fb      	ldr	r3, [r7, #12]
 8002c24:	681b      	ldr	r3, [r3, #0]
 8002c26:	4a9f      	ldr	r2, [pc, #636]	@ (8002ea4 <UART_SetConfig+0x568>)
 8002c28:	4293      	cmp	r3, r2
 8002c2a:	d17a      	bne.n	8002d22 <UART_SetConfig+0x3e6>
  {
    /* Retrieve frequency clock */
    switch (clocksource)
 8002c2c:	f897 3023 	ldrb.w	r3, [r7, #35]	@ 0x23
 8002c30:	2b08      	cmp	r3, #8
 8002c32:	d824      	bhi.n	8002c7e <UART_SetConfig+0x342>
 8002c34:	a201      	add	r2, pc, #4	@ (adr r2, 8002c3c <UART_SetConfig+0x300>)
 8002c36:	f852 f023 	ldr.w	pc, [r2, r3, lsl #2]
 8002c3a:	bf00      	nop
 8002c3c:	08002c61 	.word	0x08002c61
 8002c40:	08002c7f 	.word	0x08002c7f
 8002c44:	08002c69 	.word	0x08002c69
 8002c48:	08002c7f 	.word	0x08002c7f
 8002c4c:	08002c6f 	.word	0x08002c6f
 8002c50:	08002c7f 	.word	0x08002c7f
 8002c54:	08002c7f 	.word	0x08002c7f
 8002c58:	08002c7f 	.word	0x08002c7f
 8002c5c:	08002c77 	.word	0x08002c77
    {
      case UART_CLOCKSOURCE_PCLK1:
        pclk = HAL_RCC_GetPCLK1Freq();
 8002c60:	f7ff f84c 	bl	8001cfc <HAL_RCC_GetPCLK1Freq>
 8002c64:	61f8      	str	r0, [r7, #28]
        break;
 8002c66:	e010      	b.n	8002c8a <UART_SetConfig+0x34e>
      case UART_CLOCKSOURCE_HSI:
        pclk = (uint32_t) HSI_VALUE;
 8002c68:	4b8f      	ldr	r3, [pc, #572]	@ (8002ea8 <UART_SetConfig+0x56c>)
 8002c6a:	61fb      	str	r3, [r7, #28]
        break;
 8002c6c:	e00d      	b.n	8002c8a <UART_SetConfig+0x34e>
      case UART_CLOCKSOURCE_SYSCLK:
        pclk = HAL_RCC_GetSysClockFreq();
 8002c6e:	f7fe ffad 	bl	8001bcc <HAL_RCC_GetSysClockFreq>
 8002c72:	61f8      	str	r0, [r7, #28]
        break;
 8002c74:	e009      	b.n	8002c8a <UART_SetConfig+0x34e>
      case UART_CLOCKSOURCE_LSE:
        pclk = (uint32_t) LSE_VALUE;
 8002c76:	f44f 4300 	mov.w	r3, #32768	@ 0x8000
 8002c7a:	61fb      	str	r3, [r7, #28]
        break;
 8002c7c:	e005      	b.n	8002c8a <UART_SetConfig+0x34e>
      default:
        pclk = 0U;
 8002c7e:	2300      	movs	r3, #0
 8002c80:	61fb      	str	r3, [r7, #28]
        ret = HAL_ERROR;
 8002c82:	2301      	movs	r3, #1
 8002c84:	f887 3022 	strb.w	r3, [r7, #34]	@ 0x22
        break;
 8002c88:	bf00      	nop
    }

    /* If proper clock source reported */
    if (pclk != 0U)
 8002c8a:	69fb      	ldr	r3, [r7, #28]
 8002c8c:	2b00      	cmp	r3, #0
 8002c8e:	f000 80fb 	beq.w	8002e88 <UART_SetConfig+0x54c>
      } /* if ( (lpuart_ker_ck_pres < (3 * huart->Init.BaudRate) ) ||
                (lpuart_ker_ck_pres > (4096 * huart->Init.BaudRate) )) */
#else
      /* No Prescaler applicable */
      /* Ensure that Frequency clock is in the range [3 * baudrate, 4096 * baudrate] */
      if ((pclk < (3U * huart->Init.BaudRate)) ||
 8002c92:	68fb      	ldr	r3, [r7, #12]
 8002c94:	685a      	ldr	r2, [r3, #4]
 8002c96:	4613      	mov	r3, r2
 8002c98:	005b      	lsls	r3, r3, #1
 8002c9a:	4413      	add	r3, r2
 8002c9c:	69fa      	ldr	r2, [r7, #28]
 8002c9e:	429a      	cmp	r2, r3
 8002ca0:	d305      	bcc.n	8002cae <UART_SetConfig+0x372>
          (pclk > (4096U * huart->Init.BaudRate)))
 8002ca2:	68fb      	ldr	r3, [r7, #12]
 8002ca4:	685b      	ldr	r3, [r3, #4]
 8002ca6:	031b      	lsls	r3, r3, #12
      if ((pclk < (3U * huart->Init.BaudRate)) ||
 8002ca8:	69fa      	ldr	r2, [r7, #28]
 8002caa:	429a      	cmp	r2, r3
 8002cac:	d903      	bls.n	8002cb6 <UART_SetConfig+0x37a>
      {
        ret = HAL_ERROR;
 8002cae:	2301      	movs	r3, #1
 8002cb0:	f887 3022 	strb.w	r3, [r7, #34]	@ 0x22
 8002cb4:	e0e8      	b.n	8002e88 <UART_SetConfig+0x54c>
      }
      else
      {
        usartdiv = (uint32_t)(UART_DIV_LPUART(pclk, huart->Init.BaudRate));
 8002cb6:	69fb      	ldr	r3, [r7, #28]
 8002cb8:	2200      	movs	r2, #0
 8002cba:	461c      	mov	r4, r3
 8002cbc:	4615      	mov	r5, r2
 8002cbe:	f04f 0200 	mov.w	r2, #0
 8002cc2:	f04f 0300 	mov.w	r3, #0
 8002cc6:	022b      	lsls	r3, r5, #8
 8002cc8:	ea43 6314 	orr.w	r3, r3, r4, lsr #24
 8002ccc:	0222      	lsls	r2, r4, #8
 8002cce:	68f9      	ldr	r1, [r7, #12]
 8002cd0:	6849      	ldr	r1, [r1, #4]
 8002cd2:	0849      	lsrs	r1, r1, #1
 8002cd4:	2000      	movs	r0, #0
 8002cd6:	4688      	mov	r8, r1
 8002cd8:	4681      	mov	r9, r0
 8002cda:	eb12 0a08 	adds.w	sl, r2, r8
 8002cde:	eb43 0b09 	adc.w	fp, r3, r9
 8002ce2:	68fb      	ldr	r3, [r7, #12]
 8002ce4:	685b      	ldr	r3, [r3, #4]
 8002ce6:	2200      	movs	r2, #0
 8002ce8:	603b      	str	r3, [r7, #0]
 8002cea:	607a      	str	r2, [r7, #4]
 8002cec:	e9d7 2300 	ldrd	r2, r3, [r7]
 8002cf0:	4650      	mov	r0, sl
 8002cf2:	4659      	mov	r1, fp
 8002cf4:	f7fd fac4 	bl	8000280 <__aeabi_uldivmod>
 8002cf8:	4602      	mov	r2, r0
 8002cfa:	460b      	mov	r3, r1
 8002cfc:	4613      	mov	r3, r2
 8002cfe:	61bb      	str	r3, [r7, #24]
        if ((usartdiv >= LPUART_BRR_MIN) && (usartdiv <= LPUART_BRR_MAX))
 8002d00:	69bb      	ldr	r3, [r7, #24]
 8002d02:	f5b3 7f40 	cmp.w	r3, #768	@ 0x300
 8002d06:	d308      	bcc.n	8002d1a <UART_SetConfig+0x3de>
 8002d08:	69bb      	ldr	r3, [r7, #24]
 8002d0a:	f5b3 1f80 	cmp.w	r3, #1048576	@ 0x100000
 8002d0e:	d204      	bcs.n	8002d1a <UART_SetConfig+0x3de>
        {
          huart->Instance->BRR = usartdiv;
 8002d10:	68fb      	ldr	r3, [r7, #12]
 8002d12:	681b      	ldr	r3, [r3, #0]
 8002d14:	69ba      	ldr	r2, [r7, #24]
 8002d16:	60da      	str	r2, [r3, #12]
 8002d18:	e0b6      	b.n	8002e88 <UART_SetConfig+0x54c>
        }
        else
        {
          ret = HAL_ERROR;
 8002d1a:	2301      	movs	r3, #1
 8002d1c:	f887 3022 	strb.w	r3, [r7, #34]	@ 0x22
 8002d20:	e0b2      	b.n	8002e88 <UART_SetConfig+0x54c>
      } /* if ( (pclk < (3 * huart->Init.BaudRate) ) || (pclk > (4096 * huart->Init.BaudRate) )) */
#endif /* USART_PRESC_PRESCALER */
    } /* if (pclk != 0) */
  }
  /* Check UART Over Sampling to set Baud Rate Register */
  else if (huart->Init.OverSampling == UART_OVERSAMPLING_8)
 8002d22:	68fb      	ldr	r3, [r7, #12]
 8002d24:	69db      	ldr	r3, [r3, #28]
 8002d26:	f5b3 4f00 	cmp.w	r3, #32768	@ 0x8000
 8002d2a:	d15e      	bne.n	8002dea <UART_SetConfig+0x4ae>
  {
    switch (clocksource)
 8002d2c:	f897 3023 	ldrb.w	r3, [r7, #35]	@ 0x23
 8002d30:	2b08      	cmp	r3, #8
 8002d32:	d828      	bhi.n	8002d86 <UART_SetConfig+0x44a>
 8002d34:	a201      	add	r2, pc, #4	@ (adr r2, 8002d3c <UART_SetConfig+0x400>)
 8002d36:	f852 f023 	ldr.w	pc, [r2, r3, lsl #2]
 8002d3a:	bf00      	nop
 8002d3c:	08002d61 	.word	0x08002d61
 8002d40:	08002d69 	.word	0x08002d69
 8002d44:	08002d71 	.word	0x08002d71
 8002d48:	08002d87 	.word	0x08002d87
 8002d4c:	08002d77 	.word	0x08002d77
 8002d50:	08002d87 	.word	0x08002d87
 8002d54:	08002d87 	.word	0x08002d87
 8002d58:	08002d87 	.word	0x08002d87
 8002d5c:	08002d7f 	.word	0x08002d7f
    {
      case UART_CLOCKSOURCE_PCLK1:
        pclk = HAL_RCC_GetPCLK1Freq();
 8002d60:	f7fe ffcc 	bl	8001cfc <HAL_RCC_GetPCLK1Freq>
 8002d64:	61f8      	str	r0, [r7, #28]
        break;
 8002d66:	e014      	b.n	8002d92 <UART_SetConfig+0x456>
      case UART_CLOCKSOURCE_PCLK2:
        pclk = HAL_RCC_GetPCLK2Freq();
 8002d68:	f7fe ffde 	bl	8001d28 <HAL_RCC_GetPCLK2Freq>
 8002d6c:	61f8      	str	r0, [r7, #28]
        break;
 8002d6e:	e010      	b.n	8002d92 <UART_SetConfig+0x456>
      case UART_CLOCKSOURCE_HSI:
        pclk = (uint32_t) HSI_VALUE;
 8002d70:	4b4d      	ldr	r3, [pc, #308]	@ (8002ea8 <UART_SetConfig+0x56c>)
 8002d72:	61fb      	str	r3, [r7, #28]
        break;
 8002d74:	e00d      	b.n	8002d92 <UART_SetConfig+0x456>
      case UART_CLOCKSOURCE_SYSCLK:
        pclk = HAL_RCC_GetSysClockFreq();
 8002d76:	f7fe ff29 	bl	8001bcc <HAL_RCC_GetSysClockFreq>
 8002d7a:	61f8      	str	r0, [r7, #28]
        break;
 8002d7c:	e009      	b.n	8002d92 <UART_SetConfig+0x456>
      case UART_CLOCKSOURCE_LSE:
        pclk = (uint32_t) LSE_VALUE;
 8002d7e:	f44f 4300 	mov.w	r3, #32768	@ 0x8000
 8002d82:	61fb      	str	r3, [r7, #28]
        break;
 8002d84:	e005      	b.n	8002d92 <UART_SetConfig+0x456>
      default:
        pclk = 0U;
 8002d86:	2300      	movs	r3, #0
 8002d88:	61fb      	str	r3, [r7, #28]
        ret = HAL_ERROR;
 8002d8a:	2301      	movs	r3, #1
 8002d8c:	f887 3022 	strb.w	r3, [r7, #34]	@ 0x22
        break;
 8002d90:	bf00      	nop
    }

    /* USARTDIV must be greater than or equal to 0d16 */
    if (pclk != 0U)
 8002d92:	69fb      	ldr	r3, [r7, #28]
 8002d94:	2b00      	cmp	r3, #0
 8002d96:	d077      	beq.n	8002e88 <UART_SetConfig+0x54c>
    {
#if defined(USART_PRESC_PRESCALER)
      usartdiv = (uint32_t)(UART_DIV_SAMPLING8(pclk, huart->Init.BaudRate, huart->Init.ClockPrescaler));
#else
      usartdiv = (uint32_t)(UART_DIV_SAMPLING8(pclk, huart->Init.BaudRate));
 8002d98:	69fb      	ldr	r3, [r7, #28]
 8002d9a:	005a      	lsls	r2, r3, #1
 8002d9c:	68fb      	ldr	r3, [r7, #12]
 8002d9e:	685b      	ldr	r3, [r3, #4]
 8002da0:	085b      	lsrs	r3, r3, #1
 8002da2:	441a      	add	r2, r3
 8002da4:	68fb      	ldr	r3, [r7, #12]
 8002da6:	685b      	ldr	r3, [r3, #4]
 8002da8:	fbb2 f3f3 	udiv	r3, r2, r3
 8002dac:	61bb      	str	r3, [r7, #24]
#endif /* USART_PRESC_PRESCALER */
      if ((usartdiv >= UART_BRR_MIN) && (usartdiv <= UART_BRR_MAX))
 8002dae:	69bb      	ldr	r3, [r7, #24]
 8002db0:	2b0f      	cmp	r3, #15
 8002db2:	d916      	bls.n	8002de2 <UART_SetConfig+0x4a6>
 8002db4:	69bb      	ldr	r3, [r7, #24]
 8002db6:	f5b3 3f80 	cmp.w	r3, #65536	@ 0x10000
 8002dba:	d212      	bcs.n	8002de2 <UART_SetConfig+0x4a6>
      {
        brrtemp = (uint16_t)(usartdiv & 0xFFF0U);
 8002dbc:	69bb      	ldr	r3, [r7, #24]
 8002dbe:	b29b      	uxth	r3, r3
 8002dc0:	f023 030f 	bic.w	r3, r3, #15
 8002dc4:	82fb      	strh	r3, [r7, #22]
        brrtemp |= (uint16_t)((usartdiv & (uint16_t)0x000FU) >> 1U);
 8002dc6:	69bb      	ldr	r3, [r7, #24]
 8002dc8:	085b      	lsrs	r3, r3, #1
 8002dca:	b29b      	uxth	r3, r3
 8002dcc:	f003 0307 	and.w	r3, r3, #7
 8002dd0:	b29a      	uxth	r2, r3
 8002dd2:	8afb      	ldrh	r3, [r7, #22]
 8002dd4:	4313      	orrs	r3, r2
 8002dd6:	82fb      	strh	r3, [r7, #22]
        huart->Instance->BRR = brrtemp;
 8002dd8:	68fb      	ldr	r3, [r7, #12]
 8002dda:	681b      	ldr	r3, [r3, #0]
 8002ddc:	8afa      	ldrh	r2, [r7, #22]
 8002dde:	60da      	str	r2, [r3, #12]
 8002de0:	e052      	b.n	8002e88 <UART_SetConfig+0x54c>
      }
      else
      {
        ret = HAL_ERROR;
 8002de2:	2301      	movs	r3, #1
 8002de4:	f887 3022 	strb.w	r3, [r7, #34]	@ 0x22
 8002de8:	e04e      	b.n	8002e88 <UART_SetConfig+0x54c>
      }
    }
  }
  else
  {
    switch (clocksource)
 8002dea:	f897 3023 	ldrb.w	r3, [r7, #35]	@ 0x23
 8002dee:	2b08      	cmp	r3, #8
 8002df0:	d827      	bhi.n	8002e42 <UART_SetConfig+0x506>
 8002df2:	a201      	add	r2, pc, #4	@ (adr r2, 8002df8 <UART_SetConfig+0x4bc>)
 8002df4:	f852 f023 	ldr.w	pc, [r2, r3, lsl #2]
 8002df8:	08002e1d 	.word	0x08002e1d
 8002dfc:	08002e25 	.word	0x08002e25
 8002e00:	08002e2d 	.word	0x08002e2d
 8002e04:	08002e43 	.word	0x08002e43
 8002e08:	08002e33 	.word	0x08002e33
 8002e0c:	08002e43 	.word	0x08002e43
 8002e10:	08002e43 	.word	0x08002e43
 8002e14:	08002e43 	.word	0x08002e43
 8002e18:	08002e3b 	.word	0x08002e3b
    {
      case UART_CLOCKSOURCE_PCLK1:
        pclk = HAL_RCC_GetPCLK1Freq();
 8002e1c:	f7fe ff6e 	bl	8001cfc <HAL_RCC_GetPCLK1Freq>
 8002e20:	61f8      	str	r0, [r7, #28]
        break;
 8002e22:	e014      	b.n	8002e4e <UART_SetConfig+0x512>
      case UART_CLOCKSOURCE_PCLK2:
        pclk = HAL_RCC_GetPCLK2Freq();
 8002e24:	f7fe ff80 	bl	8001d28 <HAL_RCC_GetPCLK2Freq>
 8002e28:	61f8      	str	r0, [r7, #28]
        break;
 8002e2a:	e010      	b.n	8002e4e <UART_SetConfig+0x512>
      case UART_CLOCKSOURCE_HSI:
        pclk = (uint32_t) HSI_VALUE;
 8002e2c:	4b1e      	ldr	r3, [pc, #120]	@ (8002ea8 <UART_SetConfig+0x56c>)
 8002e2e:	61fb      	str	r3, [r7, #28]
        break;
 8002e30:	e00d      	b.n	8002e4e <UART_SetConfig+0x512>
      case UART_CLOCKSOURCE_SYSCLK:
        pclk = HAL_RCC_GetSysClockFreq();
 8002e32:	f7fe fecb 	bl	8001bcc <HAL_RCC_GetSysClockFreq>
 8002e36:	61f8      	str	r0, [r7, #28]
        break;
 8002e38:	e009      	b.n	8002e4e <UART_SetConfig+0x512>
      case UART_CLOCKSOURCE_LSE:
        pclk = (uint32_t) LSE_VALUE;
 8002e3a:	f44f 4300 	mov.w	r3, #32768	@ 0x8000
 8002e3e:	61fb      	str	r3, [r7, #28]
        break;
 8002e40:	e005      	b.n	8002e4e <UART_SetConfig+0x512>
      default:
        pclk = 0U;
 8002e42:	2300      	movs	r3, #0
 8002e44:	61fb      	str	r3, [r7, #28]
        ret = HAL_ERROR;
 8002e46:	2301      	movs	r3, #1
 8002e48:	f887 3022 	strb.w	r3, [r7, #34]	@ 0x22
        break;
 8002e4c:	bf00      	nop
    }

    if (pclk != 0U)
 8002e4e:	69fb      	ldr	r3, [r7, #28]
 8002e50:	2b00      	cmp	r3, #0
 8002e52:	d019      	beq.n	8002e88 <UART_SetConfig+0x54c>
    {
      /* USARTDIV must be greater than or equal to 0d16 */
#if defined(USART_PRESC_PRESCALER)
      usartdiv = (uint32_t)(UART_DIV_SAMPLING16(pclk, huart->Init.BaudRate, huart->Init.ClockPrescaler));
#else
      usartdiv = (uint32_t)(UART_DIV_SAMPLING16(pclk, huart->Init.BaudRate));
 8002e54:	68fb      	ldr	r3, [r7, #12]
 8002e56:	685b      	ldr	r3, [r3, #4]
 8002e58:	085a      	lsrs	r2, r3, #1
 8002e5a:	69fb      	ldr	r3, [r7, #28]
 8002e5c:	441a      	add	r2, r3
 8002e5e:	68fb      	ldr	r3, [r7, #12]
 8002e60:	685b      	ldr	r3, [r3, #4]
 8002e62:	fbb2 f3f3 	udiv	r3, r2, r3
 8002e66:	61bb      	str	r3, [r7, #24]
#endif /* USART_PRESC_PRESCALER */
      if ((usartdiv >= UART_BRR_MIN) && (usartdiv <= UART_BRR_MAX))
 8002e68:	69bb      	ldr	r3, [r7, #24]
 8002e6a:	2b0f      	cmp	r3, #15
 8002e6c:	d909      	bls.n	8002e82 <UART_SetConfig+0x546>
 8002e6e:	69bb      	ldr	r3, [r7, #24]
 8002e70:	f5b3 3f80 	cmp.w	r3, #65536	@ 0x10000
 8002e74:	d205      	bcs.n	8002e82 <UART_SetConfig+0x546>
      {
        huart->Instance->BRR = (uint16_t)usartdiv;
 8002e76:	69bb      	ldr	r3, [r7, #24]
 8002e78:	b29a      	uxth	r2, r3
 8002e7a:	68fb      	ldr	r3, [r7, #12]
 8002e7c:	681b      	ldr	r3, [r3, #0]
 8002e7e:	60da      	str	r2, [r3, #12]
 8002e80:	e002      	b.n	8002e88 <UART_SetConfig+0x54c>
      }
      else
      {
        ret = HAL_ERROR;
 8002e82:	2301      	movs	r3, #1
 8002e84:	f887 3022 	strb.w	r3, [r7, #34]	@ 0x22
  huart->NbTxDataToProcess = 1;
  huart->NbRxDataToProcess = 1;
#endif /* USART_CR1_FIFOEN */

  /* Clear ISR function pointers */
  huart->RxISR = NULL;
 8002e88:	68fb      	ldr	r3, [r7, #12]
 8002e8a:	2200      	movs	r2, #0
 8002e8c:	669a      	str	r2, [r3, #104]	@ 0x68
  huart->TxISR = NULL;
 8002e8e:	68fb      	ldr	r3, [r7, #12]
 8002e90:	2200      	movs	r2, #0
 8002e92:	66da      	str	r2, [r3, #108]	@ 0x6c

  return ret;
 8002e94:	f897 3022 	ldrb.w	r3, [r7, #34]	@ 0x22
}
 8002e98:	4618      	mov	r0, r3
 8002e9a:	3728      	adds	r7, #40	@ 0x28
 8002e9c:	46bd      	mov	sp, r7
 8002e9e:	e8bd 8fb0 	ldmia.w	sp!, {r4, r5, r7, r8, r9, sl, fp, pc}
 8002ea2:	bf00      	nop
 8002ea4:	40008000 	.word	0x40008000
 8002ea8:	00f42400 	.word	0x00f42400

08002eac <UART_AdvFeatureConfig>:
  * @brief Configure the UART peripheral advanced features.
  * @param huart UART handle.
  * @retval None
  */
void UART_AdvFeatureConfig(UART_HandleTypeDef *huart)
{
 8002eac:	b480      	push	{r7}
 8002eae:	b083      	sub	sp, #12
 8002eb0:	af00      	add	r7, sp, #0
 8002eb2:	6078      	str	r0, [r7, #4]
  /* Check whether the set of advanced features to configure is properly set */
  assert_param(IS_UART_ADVFEATURE_INIT(huart->AdvancedInit.AdvFeatureInit));

  /* if required, configure RX/TX pins swap */
  if (HAL_IS_BIT_SET(huart->AdvancedInit.AdvFeatureInit, UART_ADVFEATURE_SWAP_INIT))
 8002eb4:	687b      	ldr	r3, [r7, #4]
 8002eb6:	6a5b      	ldr	r3, [r3, #36]	@ 0x24
 8002eb8:	f003 0308 	and.w	r3, r3, #8
 8002ebc:	2b00      	cmp	r3, #0
 8002ebe:	d00a      	beq.n	8002ed6 <UART_AdvFeatureConfig+0x2a>
  {
    assert_param(IS_UART_ADVFEATURE_SWAP(huart->AdvancedInit.Swap));
    MODIFY_REG(huart->Instance->CR2, USART_CR2_SWAP, huart->AdvancedInit.Swap);
 8002ec0:	687b      	ldr	r3, [r7, #4]
 8002ec2:	681b      	ldr	r3, [r3, #0]
 8002ec4:	685b      	ldr	r3, [r3, #4]
 8002ec6:	f423 4100 	bic.w	r1, r3, #32768	@ 0x8000
 8002eca:	687b      	ldr	r3, [r7, #4]
 8002ecc:	6b5a      	ldr	r2, [r3, #52]	@ 0x34
 8002ece:	687b      	ldr	r3, [r7, #4]
 8002ed0:	681b      	ldr	r3, [r3, #0]
 8002ed2:	430a      	orrs	r2, r1
 8002ed4:	605a      	str	r2, [r3, #4]
  }

  /* if required, configure TX pin active level inversion */
  if (HAL_IS_BIT_SET(huart->AdvancedInit.AdvFeatureInit, UART_ADVFEATURE_TXINVERT_INIT))
 8002ed6:	687b      	ldr	r3, [r7, #4]
 8002ed8:	6a5b      	ldr	r3, [r3, #36]	@ 0x24
 8002eda:	f003 0301 	and.w	r3, r3, #1
 8002ede:	2b00      	cmp	r3, #0
 8002ee0:	d00a      	beq.n	8002ef8 <UART_AdvFeatureConfig+0x4c>
  {
    assert_param(IS_UART_ADVFEATURE_TXINV(huart->AdvancedInit.TxPinLevelInvert));
    MODIFY_REG(huart->Instance->CR2, USART_CR2_TXINV, huart->AdvancedInit.TxPinLevelInvert);
 8002ee2:	687b      	ldr	r3, [r7, #4]
 8002ee4:	681b      	ldr	r3, [r3, #0]
 8002ee6:	685b      	ldr	r3, [r3, #4]
 8002ee8:	f423 3100 	bic.w	r1, r3, #131072	@ 0x20000
 8002eec:	687b      	ldr	r3, [r7, #4]
 8002eee:	6a9a      	ldr	r2, [r3, #40]	@ 0x28
 8002ef0:	687b      	ldr	r3, [r7, #4]
 8002ef2:	681b      	ldr	r3, [r3, #0]
 8002ef4:	430a      	orrs	r2, r1
 8002ef6:	605a      	str	r2, [r3, #4]
  }

  /* if required, configure RX pin active level inversion */
  if (HAL_IS_BIT_SET(huart->AdvancedInit.AdvFeatureInit, UART_ADVFEATURE_RXINVERT_INIT))
 8002ef8:	687b      	ldr	r3, [r7, #4]
 8002efa:	6a5b      	ldr	r3, [r3, #36]	@ 0x24
 8002efc:	f003 0302 	and.w	r3, r3, #2
 8002f00:	2b00      	cmp	r3, #0
 8002f02:	d00a      	beq.n	8002f1a <UART_AdvFeatureConfig+0x6e>
  {
    assert_param(IS_UART_ADVFEATURE_RXINV(huart->AdvancedInit.RxPinLevelInvert));
    MODIFY_REG(huart->Instance->CR2, USART_CR2_RXINV, huart->AdvancedInit.RxPinLevelInvert);
 8002f04:	687b      	ldr	r3, [r7, #4]
 8002f06:	681b      	ldr	r3, [r3, #0]
 8002f08:	685b      	ldr	r3, [r3, #4]
 8002f0a:	f423 3180 	bic.w	r1, r3, #65536	@ 0x10000
 8002f0e:	687b      	ldr	r3, [r7, #4]
 8002f10:	6ada      	ldr	r2, [r3, #44]	@ 0x2c
 8002f12:	687b      	ldr	r3, [r7, #4]
 8002f14:	681b      	ldr	r3, [r3, #0]
 8002f16:	430a      	orrs	r2, r1
 8002f18:	605a      	str	r2, [r3, #4]
  }

  /* if required, configure data inversion */
  if (HAL_IS_BIT_SET(huart->AdvancedInit.AdvFeatureInit, UART_ADVFEATURE_DATAINVERT_INIT))
 8002f1a:	687b      	ldr	r3, [r7, #4]
 8002f1c:	6a5b      	ldr	r3, [r3, #36]	@ 0x24
 8002f1e:	f003 0304 	and.w	r3, r3, #4
 8002f22:	2b00      	cmp	r3, #0
 8002f24:	d00a      	beq.n	8002f3c <UART_AdvFeatureConfig+0x90>
  {
    assert_param(IS_UART_ADVFEATURE_DATAINV(huart->AdvancedInit.DataInvert));
    MODIFY_REG(huart->Instance->CR2, USART_CR2_DATAINV, huart->AdvancedInit.DataInvert);
 8002f26:	687b      	ldr	r3, [r7, #4]
 8002f28:	681b      	ldr	r3, [r3, #0]
 8002f2a:	685b      	ldr	r3, [r3, #4]
 8002f2c:	f423 2180 	bic.w	r1, r3, #262144	@ 0x40000
 8002f30:	687b      	ldr	r3, [r7, #4]
 8002f32:	6b1a      	ldr	r2, [r3, #48]	@ 0x30
 8002f34:	687b      	ldr	r3, [r7, #4]
 8002f36:	681b      	ldr	r3, [r3, #0]
 8002f38:	430a      	orrs	r2, r1
 8002f3a:	605a      	str	r2, [r3, #4]
  }

  /* if required, configure RX overrun detection disabling */
  if (HAL_IS_BIT_SET(huart->AdvancedInit.AdvFeatureInit, UART_ADVFEATURE_RXOVERRUNDISABLE_INIT))
 8002f3c:	687b      	ldr	r3, [r7, #4]
 8002f3e:	6a5b      	ldr	r3, [r3, #36]	@ 0x24
 8002f40:	f003 0310 	and.w	r3, r3, #16
 8002f44:	2b00      	cmp	r3, #0
 8002f46:	d00a      	beq.n	8002f5e <UART_AdvFeatureConfig+0xb2>
  {
    assert_param(IS_UART_OVERRUN(huart->AdvancedInit.OverrunDisable));
    MODIFY_REG(huart->Instance->CR3, USART_CR3_OVRDIS, huart->AdvancedInit.OverrunDisable);
 8002f48:	687b      	ldr	r3, [r7, #4]
 8002f4a:	681b      	ldr	r3, [r3, #0]
 8002f4c:	689b      	ldr	r3, [r3, #8]
 8002f4e:	f423 5180 	bic.w	r1, r3, #4096	@ 0x1000
 8002f52:	687b      	ldr	r3, [r7, #4]
 8002f54:	6b9a      	ldr	r2, [r3, #56]	@ 0x38
 8002f56:	687b      	ldr	r3, [r7, #4]
 8002f58:	681b      	ldr	r3, [r3, #0]
 8002f5a:	430a      	orrs	r2, r1
 8002f5c:	609a      	str	r2, [r3, #8]
  }

  /* if required, configure DMA disabling on reception error */
  if (HAL_IS_BIT_SET(huart->AdvancedInit.AdvFeatureInit, UART_ADVFEATURE_DMADISABLEONERROR_INIT))
 8002f5e:	687b      	ldr	r3, [r7, #4]
 8002f60:	6a5b      	ldr	r3, [r3, #36]	@ 0x24
 8002f62:	f003 0320 	and.w	r3, r3, #32
 8002f66:	2b00      	cmp	r3, #0
 8002f68:	d00a      	beq.n	8002f80 <UART_AdvFeatureConfig+0xd4>
  {
    assert_param(IS_UART_ADVFEATURE_DMAONRXERROR(huart->AdvancedInit.DMADisableonRxError));
    MODIFY_REG(huart->Instance->CR3, USART_CR3_DDRE, huart->AdvancedInit.DMADisableonRxError);
 8002f6a:	687b      	ldr	r3, [r7, #4]
 8002f6c:	681b      	ldr	r3, [r3, #0]
 8002f6e:	689b      	ldr	r3, [r3, #8]
 8002f70:	f423 5100 	bic.w	r1, r3, #8192	@ 0x2000
 8002f74:	687b      	ldr	r3, [r7, #4]
 8002f76:	6bda      	ldr	r2, [r3, #60]	@ 0x3c
 8002f78:	687b      	ldr	r3, [r7, #4]
 8002f7a:	681b      	ldr	r3, [r3, #0]
 8002f7c:	430a      	orrs	r2, r1
 8002f7e:	609a      	str	r2, [r3, #8]
  }

  /* if required, configure auto Baud rate detection scheme */
  if (HAL_IS_BIT_SET(huart->AdvancedInit.AdvFeatureInit, UART_ADVFEATURE_AUTOBAUDRATE_INIT))
 8002f80:	687b      	ldr	r3, [r7, #4]
 8002f82:	6a5b      	ldr	r3, [r3, #36]	@ 0x24
 8002f84:	f003 0340 	and.w	r3, r3, #64	@ 0x40
 8002f88:	2b00      	cmp	r3, #0
 8002f8a:	d01a      	beq.n	8002fc2 <UART_AdvFeatureConfig+0x116>
  {
    assert_param(IS_USART_AUTOBAUDRATE_DETECTION_INSTANCE(huart->Instance));
    assert_param(IS_UART_ADVFEATURE_AUTOBAUDRATE(huart->AdvancedInit.AutoBaudRateEnable));
    MODIFY_REG(huart->Instance->CR2, USART_CR2_ABREN, huart->AdvancedInit.AutoBaudRateEnable);
 8002f8c:	687b      	ldr	r3, [r7, #4]
 8002f8e:	681b      	ldr	r3, [r3, #0]
 8002f90:	685b      	ldr	r3, [r3, #4]
 8002f92:	f423 1180 	bic.w	r1, r3, #1048576	@ 0x100000
 8002f96:	687b      	ldr	r3, [r7, #4]
 8002f98:	6c1a      	ldr	r2, [r3, #64]	@ 0x40
 8002f9a:	687b      	ldr	r3, [r7, #4]
 8002f9c:	681b      	ldr	r3, [r3, #0]
 8002f9e:	430a      	orrs	r2, r1
 8002fa0:	605a      	str	r2, [r3, #4]
    /* set auto Baudrate detection parameters if detection is enabled */
    if (huart->AdvancedInit.AutoBaudRateEnable == UART_ADVFEATURE_AUTOBAUDRATE_ENABLE)
 8002fa2:	687b      	ldr	r3, [r7, #4]
 8002fa4:	6c1b      	ldr	r3, [r3, #64]	@ 0x40
 8002fa6:	f5b3 1f80 	cmp.w	r3, #1048576	@ 0x100000
 8002faa:	d10a      	bne.n	8002fc2 <UART_AdvFeatureConfig+0x116>
    {
      assert_param(IS_UART_ADVFEATURE_AUTOBAUDRATEMODE(huart->AdvancedInit.AutoBaudRateMode));
      MODIFY_REG(huart->Instance->CR2, USART_CR2_ABRMODE, huart->AdvancedInit.AutoBaudRateMode);
 8002fac:	687b      	ldr	r3, [r7, #4]
 8002fae:	681b      	ldr	r3, [r3, #0]
 8002fb0:	685b      	ldr	r3, [r3, #4]
 8002fb2:	f423 01c0 	bic.w	r1, r3, #6291456	@ 0x600000
 8002fb6:	687b      	ldr	r3, [r7, #4]
 8002fb8:	6c5a      	ldr	r2, [r3, #68]	@ 0x44
 8002fba:	687b      	ldr	r3, [r7, #4]
 8002fbc:	681b      	ldr	r3, [r3, #0]
 8002fbe:	430a      	orrs	r2, r1
 8002fc0:	605a      	str	r2, [r3, #4]
    }
  }

  /* if required, configure MSB first on communication line */
  if (HAL_IS_BIT_SET(huart->AdvancedInit.AdvFeatureInit, UART_ADVFEATURE_MSBFIRST_INIT))
 8002fc2:	687b      	ldr	r3, [r7, #4]
 8002fc4:	6a5b      	ldr	r3, [r3, #36]	@ 0x24
 8002fc6:	f003 0380 	and.w	r3, r3, #128	@ 0x80
 8002fca:	2b00      	cmp	r3, #0
 8002fcc:	d00a      	beq.n	8002fe4 <UART_AdvFeatureConfig+0x138>
  {
    assert_param(IS_UART_ADVFEATURE_MSBFIRST(huart->AdvancedInit.MSBFirst));
    MODIFY_REG(huart->Instance->CR2, USART_CR2_MSBFIRST, huart->AdvancedInit.MSBFirst);
 8002fce:	687b      	ldr	r3, [r7, #4]
 8002fd0:	681b      	ldr	r3, [r3, #0]
 8002fd2:	685b      	ldr	r3, [r3, #4]
 8002fd4:	f423 2100 	bic.w	r1, r3, #524288	@ 0x80000
 8002fd8:	687b      	ldr	r3, [r7, #4]
 8002fda:	6c9a      	ldr	r2, [r3, #72]	@ 0x48
 8002fdc:	687b      	ldr	r3, [r7, #4]
 8002fde:	681b      	ldr	r3, [r3, #0]
 8002fe0:	430a      	orrs	r2, r1
 8002fe2:	605a      	str	r2, [r3, #4]
  }
}
 8002fe4:	bf00      	nop
 8002fe6:	370c      	adds	r7, #12
 8002fe8:	46bd      	mov	sp, r7
 8002fea:	f85d 7b04 	ldr.w	r7, [sp], #4
 8002fee:	4770      	bx	lr

08002ff0 <UART_CheckIdleState>:
  * @brief Check the UART Idle State.
  * @param huart UART handle.
  * @retval HAL status
  */
HAL_StatusTypeDef UART_CheckIdleState(UART_HandleTypeDef *huart)
{
 8002ff0:	b580      	push	{r7, lr}
 8002ff2:	b098      	sub	sp, #96	@ 0x60
 8002ff4:	af02      	add	r7, sp, #8
 8002ff6:	6078      	str	r0, [r7, #4]
  uint32_t tickstart;

  /* Initialize the UART ErrorCode */
  huart->ErrorCode = HAL_UART_ERROR_NONE;
 8002ff8:	687b      	ldr	r3, [r7, #4]
 8002ffa:	2200      	movs	r2, #0
 8002ffc:	f8c3 2084 	str.w	r2, [r3, #132]	@ 0x84

  /* Init tickstart for timeout management */
  tickstart = HAL_GetTick();
 8003000:	f7fd fdf0 	bl	8000be4 <HAL_GetTick>
 8003004:	6578      	str	r0, [r7, #84]	@ 0x54

  /* Check if the Transmitter is enabled */
  if ((huart->Instance->CR1 & USART_CR1_TE) == USART_CR1_TE)
 8003006:	687b      	ldr	r3, [r7, #4]
 8003008:	681b      	ldr	r3, [r3, #0]
 800300a:	681b      	ldr	r3, [r3, #0]
 800300c:	f003 0308 	and.w	r3, r3, #8
 8003010:	2b08      	cmp	r3, #8
 8003012:	d12e      	bne.n	8003072 <UART_CheckIdleState+0x82>
  {
    /* Wait until TEACK flag is set */
    if (UART_WaitOnFlagUntilTimeout(huart, USART_ISR_TEACK, RESET, tickstart, HAL_UART_TIMEOUT_VALUE) != HAL_OK)
 8003014:	f06f 437e 	mvn.w	r3, #4261412864	@ 0xfe000000
 8003018:	9300      	str	r3, [sp, #0]
 800301a:	6d7b      	ldr	r3, [r7, #84]	@ 0x54
 800301c:	2200      	movs	r2, #0
 800301e:	f44f 1100 	mov.w	r1, #2097152	@ 0x200000
 8003022:	6878      	ldr	r0, [r7, #4]
 8003024:	f000 f88c 	bl	8003140 <UART_WaitOnFlagUntilTimeout>
 8003028:	4603      	mov	r3, r0
 800302a:	2b00      	cmp	r3, #0
 800302c:	d021      	beq.n	8003072 <UART_CheckIdleState+0x82>
    {
      /* Disable TXE interrupt for the interrupt process */
#if defined(USART_CR1_FIFOEN)
      ATOMIC_CLEAR_BIT(huart->Instance->CR1, (USART_CR1_TXEIE_TXFNFIE));
#else
      ATOMIC_CLEAR_BIT(huart->Instance->CR1, (USART_CR1_TXEIE));
 800302e:	687b      	ldr	r3, [r7, #4]
 8003030:	681b      	ldr	r3, [r3, #0]
 8003032:	63bb      	str	r3, [r7, #56]	@ 0x38
 */
__STATIC_FORCEINLINE uint32_t __LDREXW(volatile uint32_t *addr)
{
    uint32_t result;

   __ASM volatile ("ldrex %0, %1" : "=r" (result) : "Q" (*addr) );
 8003034:	6bbb      	ldr	r3, [r7, #56]	@ 0x38
 8003036:	e853 3f00 	ldrex	r3, [r3]
 800303a:	637b      	str	r3, [r7, #52]	@ 0x34
   return(result);
 800303c:	6b7b      	ldr	r3, [r7, #52]	@ 0x34
 800303e:	f023 0380 	bic.w	r3, r3, #128	@ 0x80
 8003042:	653b      	str	r3, [r7, #80]	@ 0x50
 8003044:	687b      	ldr	r3, [r7, #4]
 8003046:	681b      	ldr	r3, [r3, #0]
 8003048:	461a      	mov	r2, r3
 800304a:	6d3b      	ldr	r3, [r7, #80]	@ 0x50
 800304c:	647b      	str	r3, [r7, #68]	@ 0x44
 800304e:	643a      	str	r2, [r7, #64]	@ 0x40
 */
__STATIC_FORCEINLINE uint32_t __STREXW(uint32_t value, volatile uint32_t *addr)
{
   uint32_t result;

   __ASM volatile ("strex %0, %2, %1" : "=&r" (result), "=Q" (*addr) : "r" (value) );
 8003050:	6c39      	ldr	r1, [r7, #64]	@ 0x40
 8003052:	6c7a      	ldr	r2, [r7, #68]	@ 0x44
 8003054:	e841 2300 	strex	r3, r2, [r1]
 8003058:	63fb      	str	r3, [r7, #60]	@ 0x3c
   return(result);
 800305a:	6bfb      	ldr	r3, [r7, #60]	@ 0x3c
 800305c:	2b00      	cmp	r3, #0
 800305e:	d1e6      	bne.n	800302e <UART_CheckIdleState+0x3e>
#endif /* USART_CR1_FIFOEN */

      huart->gState = HAL_UART_STATE_READY;
 8003060:	687b      	ldr	r3, [r7, #4]
 8003062:	2220      	movs	r2, #32
 8003064:	67da      	str	r2, [r3, #124]	@ 0x7c

      __HAL_UNLOCK(huart);
 8003066:	687b      	ldr	r3, [r7, #4]
 8003068:	2200      	movs	r2, #0
 800306a:	f883 2078 	strb.w	r2, [r3, #120]	@ 0x78

      /* Timeout occurred */
      return HAL_TIMEOUT;
 800306e:	2303      	movs	r3, #3
 8003070:	e062      	b.n	8003138 <UART_CheckIdleState+0x148>
    }
  }

  /* Check if the Receiver is enabled */
  if ((huart->Instance->CR1 & USART_CR1_RE) == USART_CR1_RE)
 8003072:	687b      	ldr	r3, [r7, #4]
 8003074:	681b      	ldr	r3, [r3, #0]
 8003076:	681b      	ldr	r3, [r3, #0]
 8003078:	f003 0304 	and.w	r3, r3, #4
 800307c:	2b04      	cmp	r3, #4
 800307e:	d149      	bne.n	8003114 <UART_CheckIdleState+0x124>
  {
    /* Wait until REACK flag is set */
    if (UART_WaitOnFlagUntilTimeout(huart, USART_ISR_REACK, RESET, tickstart, HAL_UART_TIMEOUT_VALUE) != HAL_OK)
 8003080:	f06f 437e 	mvn.w	r3, #4261412864	@ 0xfe000000
 8003084:	9300      	str	r3, [sp, #0]
 8003086:	6d7b      	ldr	r3, [r7, #84]	@ 0x54
 8003088:	2200      	movs	r2, #0
 800308a:	f44f 0180 	mov.w	r1, #4194304	@ 0x400000
 800308e:	6878      	ldr	r0, [r7, #4]
 8003090:	f000 f856 	bl	8003140 <UART_WaitOnFlagUntilTimeout>
 8003094:	4603      	mov	r3, r0
 8003096:	2b00      	cmp	r3, #0
 8003098:	d03c      	beq.n	8003114 <UART_CheckIdleState+0x124>
      /* Disable RXNE, PE and ERR (Frame error, noise error, overrun error)
      interrupts for the interrupt process */
#if defined(USART_CR1_FIFOEN)
      ATOMIC_CLEAR_BIT(huart->Instance->CR1, (USART_CR1_RXNEIE_RXFNEIE | USART_CR1_PEIE));
#else
      ATOMIC_CLEAR_BIT(huart->Instance->CR1, (USART_CR1_RXNEIE | USART_CR1_PEIE));
 800309a:	687b      	ldr	r3, [r7, #4]
 800309c:	681b      	ldr	r3, [r3, #0]
 800309e:	627b      	str	r3, [r7, #36]	@ 0x24
   __ASM volatile ("ldrex %0, %1" : "=r" (result) : "Q" (*addr) );
 80030a0:	6a7b      	ldr	r3, [r7, #36]	@ 0x24
 80030a2:	e853 3f00 	ldrex	r3, [r3]
 80030a6:	623b      	str	r3, [r7, #32]
   return(result);
 80030a8:	6a3b      	ldr	r3, [r7, #32]
 80030aa:	f423 7390 	bic.w	r3, r3, #288	@ 0x120
 80030ae:	64fb      	str	r3, [r7, #76]	@ 0x4c
 80030b0:	687b      	ldr	r3, [r7, #4]
 80030b2:	681b      	ldr	r3, [r3, #0]
 80030b4:	461a      	mov	r2, r3
 80030b6:	6cfb      	ldr	r3, [r7, #76]	@ 0x4c
 80030b8:	633b      	str	r3, [r7, #48]	@ 0x30
 80030ba:	62fa      	str	r2, [r7, #44]	@ 0x2c
   __ASM volatile ("strex %0, %2, %1" : "=&r" (result), "=Q" (*addr) : "r" (value) );
 80030bc:	6af9      	ldr	r1, [r7, #44]	@ 0x2c
 80030be:	6b3a      	ldr	r2, [r7, #48]	@ 0x30
 80030c0:	e841 2300 	strex	r3, r2, [r1]
 80030c4:	62bb      	str	r3, [r7, #40]	@ 0x28
   return(result);
 80030c6:	6abb      	ldr	r3, [r7, #40]	@ 0x28
 80030c8:	2b00      	cmp	r3, #0
 80030ca:	d1e6      	bne.n	800309a <UART_CheckIdleState+0xaa>
#endif /* USART_CR1_FIFOEN */
      ATOMIC_CLEAR_BIT(huart->Instance->CR3, USART_CR3_EIE);
 80030cc:	687b      	ldr	r3, [r7, #4]
 80030ce:	681b      	ldr	r3, [r3, #0]
 80030d0:	3308      	adds	r3, #8
 80030d2:	613b      	str	r3, [r7, #16]
   __ASM volatile ("ldrex %0, %1" : "=r" (result) : "Q" (*addr) );
 80030d4:	693b      	ldr	r3, [r7, #16]
 80030d6:	e853 3f00 	ldrex	r3, [r3]
 80030da:	60fb      	str	r3, [r7, #12]
   return(result);
 80030dc:	68fb      	ldr	r3, [r7, #12]
 80030de:	f023 0301 	bic.w	r3, r3, #1
 80030e2:	64bb      	str	r3, [r7, #72]	@ 0x48
 80030e4:	687b      	ldr	r3, [r7, #4]
 80030e6:	681b      	ldr	r3, [r3, #0]
 80030e8:	3308      	adds	r3, #8
 80030ea:	6cba      	ldr	r2, [r7, #72]	@ 0x48
 80030ec:	61fa      	str	r2, [r7, #28]
 80030ee:	61bb      	str	r3, [r7, #24]
   __ASM volatile ("strex %0, %2, %1" : "=&r" (result), "=Q" (*addr) : "r" (value) );
 80030f0:	69b9      	ldr	r1, [r7, #24]
 80030f2:	69fa      	ldr	r2, [r7, #28]
 80030f4:	e841 2300 	strex	r3, r2, [r1]
 80030f8:	617b      	str	r3, [r7, #20]
   return(result);
 80030fa:	697b      	ldr	r3, [r7, #20]
 80030fc:	2b00      	cmp	r3, #0
 80030fe:	d1e5      	bne.n	80030cc <UART_CheckIdleState+0xdc>

      huart->RxState = HAL_UART_STATE_READY;
 8003100:	687b      	ldr	r3, [r7, #4]
 8003102:	2220      	movs	r2, #32
 8003104:	f8c3 2080 	str.w	r2, [r3, #128]	@ 0x80

      __HAL_UNLOCK(huart);
 8003108:	687b      	ldr	r3, [r7, #4]
 800310a:	2200      	movs	r2, #0
 800310c:	f883 2078 	strb.w	r2, [r3, #120]	@ 0x78

      /* Timeout occurred */
      return HAL_TIMEOUT;
 8003110:	2303      	movs	r3, #3
 8003112:	e011      	b.n	8003138 <UART_CheckIdleState+0x148>
    }
  }

  /* Initialize the UART State */
  huart->gState = HAL_UART_STATE_READY;
 8003114:	687b      	ldr	r3, [r7, #4]
 8003116:	2220      	movs	r2, #32
 8003118:	67da      	str	r2, [r3, #124]	@ 0x7c
  huart->RxState = HAL_UART_STATE_READY;
 800311a:	687b      	ldr	r3, [r7, #4]
 800311c:	2220      	movs	r2, #32
 800311e:	f8c3 2080 	str.w	r2, [r3, #128]	@ 0x80
  huart->ReceptionType = HAL_UART_RECEPTION_STANDARD;
 8003122:	687b      	ldr	r3, [r7, #4]
 8003124:	2200      	movs	r2, #0
 8003126:	661a      	str	r2, [r3, #96]	@ 0x60
  huart->RxEventType = HAL_UART_RXEVENT_TC;
 8003128:	687b      	ldr	r3, [r7, #4]
 800312a:	2200      	movs	r2, #0
 800312c:	665a      	str	r2, [r3, #100]	@ 0x64

  __HAL_UNLOCK(huart);
 800312e:	687b      	ldr	r3, [r7, #4]
 8003130:	2200      	movs	r2, #0
 8003132:	f883 2078 	strb.w	r2, [r3, #120]	@ 0x78

  return HAL_OK;
 8003136:	2300      	movs	r3, #0
}
 8003138:	4618      	mov	r0, r3
 800313a:	3758      	adds	r7, #88	@ 0x58
 800313c:	46bd      	mov	sp, r7
 800313e:	bd80      	pop	{r7, pc}

08003140 <UART_WaitOnFlagUntilTimeout>:
  * @param Timeout   Timeout duration
  * @retval HAL status
  */
HAL_StatusTypeDef UART_WaitOnFlagUntilTimeout(UART_HandleTypeDef *huart, uint32_t Flag, FlagStatus Status,
                                              uint32_t Tickstart, uint32_t Timeout)
{
 8003140:	b580      	push	{r7, lr}
 8003142:	b084      	sub	sp, #16
 8003144:	af00      	add	r7, sp, #0
 8003146:	60f8      	str	r0, [r7, #12]
 8003148:	60b9      	str	r1, [r7, #8]
 800314a:	603b      	str	r3, [r7, #0]
 800314c:	4613      	mov	r3, r2
 800314e:	71fb      	strb	r3, [r7, #7]
  /* Wait until flag is set */
  while ((__HAL_UART_GET_FLAG(huart, Flag) ? SET : RESET) == Status)
 8003150:	e04f      	b.n	80031f2 <UART_WaitOnFlagUntilTimeout+0xb2>
  {
    /* Check for the Timeout */
    if (Timeout != HAL_MAX_DELAY)
 8003152:	69bb      	ldr	r3, [r7, #24]
 8003154:	f1b3 3fff 	cmp.w	r3, #4294967295
 8003158:	d04b      	beq.n	80031f2 <UART_WaitOnFlagUntilTimeout+0xb2>
    {
      if (((HAL_GetTick() - Tickstart) > Timeout) || (Timeout == 0U))
 800315a:	f7fd fd43 	bl	8000be4 <HAL_GetTick>
 800315e:	4602      	mov	r2, r0
 8003160:	683b      	ldr	r3, [r7, #0]
 8003162:	1ad3      	subs	r3, r2, r3
 8003164:	69ba      	ldr	r2, [r7, #24]
 8003166:	429a      	cmp	r2, r3
 8003168:	d302      	bcc.n	8003170 <UART_WaitOnFlagUntilTimeout+0x30>
 800316a:	69bb      	ldr	r3, [r7, #24]
 800316c:	2b00      	cmp	r3, #0
 800316e:	d101      	bne.n	8003174 <UART_WaitOnFlagUntilTimeout+0x34>
      {

        return HAL_TIMEOUT;
 8003170:	2303      	movs	r3, #3
 8003172:	e04e      	b.n	8003212 <UART_WaitOnFlagUntilTimeout+0xd2>
      }

      if ((READ_BIT(huart->Instance->CR1, USART_CR1_RE) != 0U) && (Flag != UART_FLAG_TXE) && (Flag != UART_FLAG_TC))
 8003174:	68fb      	ldr	r3, [r7, #12]
 8003176:	681b      	ldr	r3, [r3, #0]
 8003178:	681b      	ldr	r3, [r3, #0]
 800317a:	f003 0304 	and.w	r3, r3, #4
 800317e:	2b00      	cmp	r3, #0
 8003180:	d037      	beq.n	80031f2 <UART_WaitOnFlagUntilTimeout+0xb2>
 8003182:	68bb      	ldr	r3, [r7, #8]
 8003184:	2b80      	cmp	r3, #128	@ 0x80
 8003186:	d034      	beq.n	80031f2 <UART_WaitOnFlagUntilTimeout+0xb2>
 8003188:	68bb      	ldr	r3, [r7, #8]
 800318a:	2b40      	cmp	r3, #64	@ 0x40
 800318c:	d031      	beq.n	80031f2 <UART_WaitOnFlagUntilTimeout+0xb2>
      {
        if (__HAL_UART_GET_FLAG(huart, UART_FLAG_ORE) == SET)
 800318e:	68fb      	ldr	r3, [r7, #12]
 8003190:	681b      	ldr	r3, [r3, #0]
 8003192:	69db      	ldr	r3, [r3, #28]
 8003194:	f003 0308 	and.w	r3, r3, #8
 8003198:	2b08      	cmp	r3, #8
 800319a:	d110      	bne.n	80031be <UART_WaitOnFlagUntilTimeout+0x7e>
        {
          /* Clear Overrun Error flag*/
          __HAL_UART_CLEAR_FLAG(huart, UART_CLEAR_OREF);
 800319c:	68fb      	ldr	r3, [r7, #12]
 800319e:	681b      	ldr	r3, [r3, #0]
 80031a0:	2208      	movs	r2, #8
 80031a2:	621a      	str	r2, [r3, #32]

          /* Blocking error : transfer is aborted
          Set the UART state ready to be able to start again the process,
          Disable Rx Interrupts if ongoing */
          UART_EndRxTransfer(huart);
 80031a4:	68f8      	ldr	r0, [r7, #12]
 80031a6:	f000 f838 	bl	800321a <UART_EndRxTransfer>

          huart->ErrorCode = HAL_UART_ERROR_ORE;
 80031aa:	68fb      	ldr	r3, [r7, #12]
 80031ac:	2208      	movs	r2, #8
 80031ae:	f8c3 2084 	str.w	r2, [r3, #132]	@ 0x84

          /* Process Unlocked */
          __HAL_UNLOCK(huart);
 80031b2:	68fb      	ldr	r3, [r7, #12]
 80031b4:	2200      	movs	r2, #0
 80031b6:	f883 2078 	strb.w	r2, [r3, #120]	@ 0x78

          return HAL_ERROR;
 80031ba:	2301      	movs	r3, #1
 80031bc:	e029      	b.n	8003212 <UART_WaitOnFlagUntilTimeout+0xd2>
        }
        if (__HAL_UART_GET_FLAG(huart, UART_FLAG_RTOF) == SET)
 80031be:	68fb      	ldr	r3, [r7, #12]
 80031c0:	681b      	ldr	r3, [r3, #0]
 80031c2:	69db      	ldr	r3, [r3, #28]
 80031c4:	f403 6300 	and.w	r3, r3, #2048	@ 0x800
 80031c8:	f5b3 6f00 	cmp.w	r3, #2048	@ 0x800
 80031cc:	d111      	bne.n	80031f2 <UART_WaitOnFlagUntilTimeout+0xb2>
        {
          /* Clear Receiver Timeout flag*/
          __HAL_UART_CLEAR_FLAG(huart, UART_CLEAR_RTOF);
 80031ce:	68fb      	ldr	r3, [r7, #12]
 80031d0:	681b      	ldr	r3, [r3, #0]
 80031d2:	f44f 6200 	mov.w	r2, #2048	@ 0x800
 80031d6:	621a      	str	r2, [r3, #32]

          /* Blocking error : transfer is aborted
          Set the UART state ready to be able to start again the process,
          Disable Rx Interrupts if ongoing */
          UART_EndRxTransfer(huart);
 80031d8:	68f8      	ldr	r0, [r7, #12]
 80031da:	f000 f81e 	bl	800321a <UART_EndRxTransfer>

          huart->ErrorCode = HAL_UART_ERROR_RTO;
 80031de:	68fb      	ldr	r3, [r7, #12]
 80031e0:	2220      	movs	r2, #32
 80031e2:	f8c3 2084 	str.w	r2, [r3, #132]	@ 0x84

          /* Process Unlocked */
          __HAL_UNLOCK(huart);
 80031e6:	68fb      	ldr	r3, [r7, #12]
 80031e8:	2200      	movs	r2, #0
 80031ea:	f883 2078 	strb.w	r2, [r3, #120]	@ 0x78

          return HAL_TIMEOUT;
 80031ee:	2303      	movs	r3, #3
 80031f0:	e00f      	b.n	8003212 <UART_WaitOnFlagUntilTimeout+0xd2>
  while ((__HAL_UART_GET_FLAG(huart, Flag) ? SET : RESET) == Status)
 80031f2:	68fb      	ldr	r3, [r7, #12]
 80031f4:	681b      	ldr	r3, [r3, #0]
 80031f6:	69da      	ldr	r2, [r3, #28]
 80031f8:	68bb      	ldr	r3, [r7, #8]
 80031fa:	4013      	ands	r3, r2
 80031fc:	68ba      	ldr	r2, [r7, #8]
 80031fe:	429a      	cmp	r2, r3
 8003200:	bf0c      	ite	eq
 8003202:	2301      	moveq	r3, #1
 8003204:	2300      	movne	r3, #0
 8003206:	b2db      	uxtb	r3, r3
 8003208:	461a      	mov	r2, r3
 800320a:	79fb      	ldrb	r3, [r7, #7]
 800320c:	429a      	cmp	r2, r3
 800320e:	d0a0      	beq.n	8003152 <UART_WaitOnFlagUntilTimeout+0x12>
        }
      }
    }
  }
  return HAL_OK;
 8003210:	2300      	movs	r3, #0
}
 8003212:	4618      	mov	r0, r3
 8003214:	3710      	adds	r7, #16
 8003216:	46bd      	mov	sp, r7
 8003218:	bd80      	pop	{r7, pc}

0800321a <UART_EndRxTransfer>:
  * @brief  End ongoing Rx transfer on UART peripheral (following error detection or Reception completion).
  * @param  huart UART handle.
  * @retval None
  */
static void UART_EndRxTransfer(UART_HandleTypeDef *huart)
{
 800321a:	b480      	push	{r7}
 800321c:	b095      	sub	sp, #84	@ 0x54
 800321e:	af00      	add	r7, sp, #0
 8003220:	6078      	str	r0, [r7, #4]
  /* Disable RXNE, PE and ERR (Frame error, noise error, overrun error) interrupts */
#if defined(USART_CR1_FIFOEN)
  ATOMIC_CLEAR_BIT(huart->Instance->CR1, (USART_CR1_RXNEIE_RXFNEIE | USART_CR1_PEIE));
  ATOMIC_CLEAR_BIT(huart->Instance->CR3, (USART_CR3_EIE | USART_CR3_RXFTIE));
#else
  ATOMIC_CLEAR_BIT(huart->Instance->CR1, (USART_CR1_RXNEIE | USART_CR1_PEIE));
 8003222:	687b      	ldr	r3, [r7, #4]
 8003224:	681b      	ldr	r3, [r3, #0]
 8003226:	637b      	str	r3, [r7, #52]	@ 0x34
   __ASM volatile ("ldrex %0, %1" : "=r" (result) : "Q" (*addr) );
 8003228:	6b7b      	ldr	r3, [r7, #52]	@ 0x34
 800322a:	e853 3f00 	ldrex	r3, [r3]
 800322e:	633b      	str	r3, [r7, #48]	@ 0x30
   return(result);
 8003230:	6b3b      	ldr	r3, [r7, #48]	@ 0x30
 8003232:	f423 7390 	bic.w	r3, r3, #288	@ 0x120
 8003236:	64fb      	str	r3, [r7, #76]	@ 0x4c
 8003238:	687b      	ldr	r3, [r7, #4]
 800323a:	681b      	ldr	r3, [r3, #0]
 800323c:	461a      	mov	r2, r3
 800323e:	6cfb      	ldr	r3, [r7, #76]	@ 0x4c
 8003240:	643b      	str	r3, [r7, #64]	@ 0x40
 8003242:	63fa      	str	r2, [r7, #60]	@ 0x3c
   __ASM volatile ("strex %0, %2, %1" : "=&r" (result), "=Q" (*addr) : "r" (value) );
 8003244:	6bf9      	ldr	r1, [r7, #60]	@ 0x3c
 8003246:	6c3a      	ldr	r2, [r7, #64]	@ 0x40
 8003248:	e841 2300 	strex	r3, r2, [r1]
 800324c:	63bb      	str	r3, [r7, #56]	@ 0x38
   return(result);
 800324e:	6bbb      	ldr	r3, [r7, #56]	@ 0x38
 8003250:	2b00      	cmp	r3, #0
 8003252:	d1e6      	bne.n	8003222 <UART_EndRxTransfer+0x8>
  ATOMIC_CLEAR_BIT(huart->Instance->CR3, USART_CR3_EIE);
 8003254:	687b      	ldr	r3, [r7, #4]
 8003256:	681b      	ldr	r3, [r3, #0]
 8003258:	3308      	adds	r3, #8
 800325a:	623b      	str	r3, [r7, #32]
   __ASM volatile ("ldrex %0, %1" : "=r" (result) : "Q" (*addr) );
 800325c:	6a3b      	ldr	r3, [r7, #32]
 800325e:	e853 3f00 	ldrex	r3, [r3]
 8003262:	61fb      	str	r3, [r7, #28]
   return(result);
 8003264:	69fb      	ldr	r3, [r7, #28]
 8003266:	f023 0301 	bic.w	r3, r3, #1
 800326a:	64bb      	str	r3, [r7, #72]	@ 0x48
 800326c:	687b      	ldr	r3, [r7, #4]
 800326e:	681b      	ldr	r3, [r3, #0]
 8003270:	3308      	adds	r3, #8
 8003272:	6cba      	ldr	r2, [r7, #72]	@ 0x48
 8003274:	62fa      	str	r2, [r7, #44]	@ 0x2c
 8003276:	62bb      	str	r3, [r7, #40]	@ 0x28
   __ASM volatile ("strex %0, %2, %1" : "=&r" (result), "=Q" (*addr) : "r" (value) );
 8003278:	6ab9      	ldr	r1, [r7, #40]	@ 0x28
 800327a:	6afa      	ldr	r2, [r7, #44]	@ 0x2c
 800327c:	e841 2300 	strex	r3, r2, [r1]
 8003280:	627b      	str	r3, [r7, #36]	@ 0x24
   return(result);
 8003282:	6a7b      	ldr	r3, [r7, #36]	@ 0x24
 8003284:	2b00      	cmp	r3, #0
 8003286:	d1e5      	bne.n	8003254 <UART_EndRxTransfer+0x3a>
#endif /* USART_CR1_FIFOEN */

  /* In case of reception waiting for IDLE event, disable also the IDLE IE interrupt source */
  if (huart->ReceptionType == HAL_UART_RECEPTION_TOIDLE)
 8003288:	687b      	ldr	r3, [r7, #4]
 800328a:	6e1b      	ldr	r3, [r3, #96]	@ 0x60
 800328c:	2b01      	cmp	r3, #1
 800328e:	d118      	bne.n	80032c2 <UART_EndRxTransfer+0xa8>
  {
    ATOMIC_CLEAR_BIT(huart->Instance->CR1, USART_CR1_IDLEIE);
 8003290:	687b      	ldr	r3, [r7, #4]
 8003292:	681b      	ldr	r3, [r3, #0]
 8003294:	60fb      	str	r3, [r7, #12]
   __ASM volatile ("ldrex %0, %1" : "=r" (result) : "Q" (*addr) );
 8003296:	68fb      	ldr	r3, [r7, #12]
 8003298:	e853 3f00 	ldrex	r3, [r3]
 800329c:	60bb      	str	r3, [r7, #8]
   return(result);
 800329e:	68bb      	ldr	r3, [r7, #8]
 80032a0:	f023 0310 	bic.w	r3, r3, #16
 80032a4:	647b      	str	r3, [r7, #68]	@ 0x44
 80032a6:	687b      	ldr	r3, [r7, #4]
 80032a8:	681b      	ldr	r3, [r3, #0]
 80032aa:	461a      	mov	r2, r3
 80032ac:	6c7b      	ldr	r3, [r7, #68]	@ 0x44
 80032ae:	61bb      	str	r3, [r7, #24]
 80032b0:	617a      	str	r2, [r7, #20]
   __ASM volatile ("strex %0, %2, %1" : "=&r" (result), "=Q" (*addr) : "r" (value) );
 80032b2:	6979      	ldr	r1, [r7, #20]
 80032b4:	69ba      	ldr	r2, [r7, #24]
 80032b6:	e841 2300 	strex	r3, r2, [r1]
 80032ba:	613b      	str	r3, [r7, #16]
   return(result);
 80032bc:	693b      	ldr	r3, [r7, #16]
 80032be:	2b00      	cmp	r3, #0
 80032c0:	d1e6      	bne.n	8003290 <UART_EndRxTransfer+0x76>
  }

  /* At end of Rx process, restore huart->RxState to Ready */
  huart->RxState = HAL_UART_STATE_READY;
 80032c2:	687b      	ldr	r3, [r7, #4]
 80032c4:	2220      	movs	r2, #32
 80032c6:	f8c3 2080 	str.w	r2, [r3, #128]	@ 0x80
  huart->ReceptionType = HAL_UART_RECEPTION_STANDARD;
 80032ca:	687b      	ldr	r3, [r7, #4]
 80032cc:	2200      	movs	r2, #0
 80032ce:	661a      	str	r2, [r3, #96]	@ 0x60

  /* Reset RxIsr function pointer */
  huart->RxISR = NULL;
 80032d0:	687b      	ldr	r3, [r7, #4]
 80032d2:	2200      	movs	r2, #0
 80032d4:	669a      	str	r2, [r3, #104]	@ 0x68
}
 80032d6:	bf00      	nop
 80032d8:	3754      	adds	r7, #84	@ 0x54
 80032da:	46bd      	mov	sp, r7
 80032dc:	f85d 7b04 	ldr.w	r7, [sp], #4
 80032e0:	4770      	bx	lr

080032e2 <makeFreeRtosPriority>:

extern void xPortSysTickHandler(void);

/* Convert from CMSIS type osPriority to FreeRTOS priority number */
static unsigned portBASE_TYPE makeFreeRtosPriority (osPriority priority)
{
 80032e2:	b480      	push	{r7}
 80032e4:	b085      	sub	sp, #20
 80032e6:	af00      	add	r7, sp, #0
 80032e8:	4603      	mov	r3, r0
 80032ea:	80fb      	strh	r3, [r7, #6]
  unsigned portBASE_TYPE fpriority = tskIDLE_PRIORITY;
 80032ec:	2300      	movs	r3, #0
 80032ee:	60fb      	str	r3, [r7, #12]
  
  if (priority != osPriorityError) {
 80032f0:	f9b7 3006 	ldrsh.w	r3, [r7, #6]
 80032f4:	2b84      	cmp	r3, #132	@ 0x84
 80032f6:	d005      	beq.n	8003304 <makeFreeRtosPriority+0x22>
    fpriority += (priority - osPriorityIdle);
 80032f8:	f9b7 2006 	ldrsh.w	r2, [r7, #6]
 80032fc:	68fb      	ldr	r3, [r7, #12]
 80032fe:	4413      	add	r3, r2
 8003300:	3303      	adds	r3, #3
 8003302:	60fb      	str	r3, [r7, #12]
  }
  
  return fpriority;
 8003304:	68fb      	ldr	r3, [r7, #12]
}
 8003306:	4618      	mov	r0, r3
 8003308:	3714      	adds	r7, #20
 800330a:	46bd      	mov	sp, r7
 800330c:	f85d 7b04 	ldr.w	r7, [sp], #4
 8003310:	4770      	bx	lr

08003312 <osKernelStart>:
* @param  argument      pointer that is passed to the thread function as start argument.
* @retval status code that indicates the execution status of the function
* @note   MUST REMAIN UNCHANGED: \b osKernelStart shall be consistent in every CMSIS-RTOS.
*/
osStatus osKernelStart (void)
{
 8003312:	b580      	push	{r7, lr}
 8003314:	af00      	add	r7, sp, #0
  vTaskStartScheduler();
 8003316:	f000 fb75 	bl	8003a04 <vTaskStartScheduler>
  
  return osOK;
 800331a:	2300      	movs	r3, #0
}
 800331c:	4618      	mov	r0, r3
 800331e:	bd80      	pop	{r7, pc}

08003320 <osThreadCreate>:
* @param  argument      pointer that is passed to the thread function as start argument.
* @retval thread ID for reference by other functions or NULL in case of error.
* @note   MUST REMAIN UNCHANGED: \b osThreadCreate shall be consistent in every CMSIS-RTOS.
*/
osThreadId osThreadCreate (const osThreadDef_t *thread_def, void *argument)
{
 8003320:	b5f0      	push	{r4, r5, r6, r7, lr}
 8003322:	b089      	sub	sp, #36	@ 0x24
 8003324:	af04      	add	r7, sp, #16
 8003326:	6078      	str	r0, [r7, #4]
 8003328:	6039      	str	r1, [r7, #0]
  TaskHandle_t handle;
  
#if( configSUPPORT_STATIC_ALLOCATION == 1 ) &&  ( configSUPPORT_DYNAMIC_ALLOCATION == 1 )
  if((thread_def->buffer != NULL) && (thread_def->controlblock != NULL)) {
 800332a:	687b      	ldr	r3, [r7, #4]
 800332c:	695b      	ldr	r3, [r3, #20]
 800332e:	2b00      	cmp	r3, #0
 8003330:	d020      	beq.n	8003374 <osThreadCreate+0x54>
 8003332:	687b      	ldr	r3, [r7, #4]
 8003334:	699b      	ldr	r3, [r3, #24]
 8003336:	2b00      	cmp	r3, #0
 8003338:	d01c      	beq.n	8003374 <osThreadCreate+0x54>
    handle = xTaskCreateStatic((TaskFunction_t)thread_def->pthread,(const portCHAR *)thread_def->name,
 800333a:	687b      	ldr	r3, [r7, #4]
 800333c:	685c      	ldr	r4, [r3, #4]
 800333e:	687b      	ldr	r3, [r7, #4]
 8003340:	681d      	ldr	r5, [r3, #0]
              thread_def->stacksize, argument, makeFreeRtosPriority(thread_def->tpriority),
 8003342:	687b      	ldr	r3, [r7, #4]
 8003344:	691e      	ldr	r6, [r3, #16]
 8003346:	687b      	ldr	r3, [r7, #4]
 8003348:	f9b3 3008 	ldrsh.w	r3, [r3, #8]
    handle = xTaskCreateStatic((TaskFunction_t)thread_def->pthread,(const portCHAR *)thread_def->name,
 800334c:	4618      	mov	r0, r3
 800334e:	f7ff ffc8 	bl	80032e2 <makeFreeRtosPriority>
 8003352:	4601      	mov	r1, r0
              thread_def->buffer, thread_def->controlblock);
 8003354:	687b      	ldr	r3, [r7, #4]
 8003356:	695b      	ldr	r3, [r3, #20]
 8003358:	687a      	ldr	r2, [r7, #4]
 800335a:	6992      	ldr	r2, [r2, #24]
    handle = xTaskCreateStatic((TaskFunction_t)thread_def->pthread,(const portCHAR *)thread_def->name,
 800335c:	9202      	str	r2, [sp, #8]
 800335e:	9301      	str	r3, [sp, #4]
 8003360:	9100      	str	r1, [sp, #0]
 8003362:	683b      	ldr	r3, [r7, #0]
 8003364:	4632      	mov	r2, r6
 8003366:	4629      	mov	r1, r5
 8003368:	4620      	mov	r0, r4
 800336a:	f000 f8ed 	bl	8003548 <xTaskCreateStatic>
 800336e:	4603      	mov	r3, r0
 8003370:	60fb      	str	r3, [r7, #12]
 8003372:	e01c      	b.n	80033ae <osThreadCreate+0x8e>
  }
  else {
    if (xTaskCreate((TaskFunction_t)thread_def->pthread,(const portCHAR *)thread_def->name,
 8003374:	687b      	ldr	r3, [r7, #4]
 8003376:	685c      	ldr	r4, [r3, #4]
 8003378:	687b      	ldr	r3, [r7, #4]
 800337a:	681d      	ldr	r5, [r3, #0]
              thread_def->stacksize, argument, makeFreeRtosPriority(thread_def->tpriority),
 800337c:	687b      	ldr	r3, [r7, #4]
 800337e:	691b      	ldr	r3, [r3, #16]
    if (xTaskCreate((TaskFunction_t)thread_def->pthread,(const portCHAR *)thread_def->name,
 8003380:	b29e      	uxth	r6, r3
              thread_def->stacksize, argument, makeFreeRtosPriority(thread_def->tpriority),
 8003382:	687b      	ldr	r3, [r7, #4]
 8003384:	f9b3 3008 	ldrsh.w	r3, [r3, #8]
    if (xTaskCreate((TaskFunction_t)thread_def->pthread,(const portCHAR *)thread_def->name,
 8003388:	4618      	mov	r0, r3
 800338a:	f7ff ffaa 	bl	80032e2 <makeFreeRtosPriority>
 800338e:	4602      	mov	r2, r0
 8003390:	f107 030c 	add.w	r3, r7, #12
 8003394:	9301      	str	r3, [sp, #4]
 8003396:	9200      	str	r2, [sp, #0]
 8003398:	683b      	ldr	r3, [r7, #0]
 800339a:	4632      	mov	r2, r6
 800339c:	4629      	mov	r1, r5
 800339e:	4620      	mov	r0, r4
 80033a0:	f000 f932 	bl	8003608 <xTaskCreate>
 80033a4:	4603      	mov	r3, r0
 80033a6:	2b01      	cmp	r3, #1
 80033a8:	d001      	beq.n	80033ae <osThreadCreate+0x8e>
              &handle) != pdPASS)  {
      return NULL;
 80033aa:	2300      	movs	r3, #0
 80033ac:	e000      	b.n	80033b0 <osThreadCreate+0x90>
                   &handle) != pdPASS)  {
    return NULL;
  }     
#endif
  
  return handle;
 80033ae:	68fb      	ldr	r3, [r7, #12]
}
 80033b0:	4618      	mov	r0, r3
 80033b2:	3714      	adds	r7, #20
 80033b4:	46bd      	mov	sp, r7
 80033b6:	bdf0      	pop	{r4, r5, r6, r7, pc}

080033b8 <osDelay>:
* @brief   Wait for Timeout (Time Delay)
* @param   millisec      time delay value
* @retval  status code that indicates the execution status of the function.
*/
osStatus osDelay (uint32_t millisec)
{
 80033b8:	b580      	push	{r7, lr}
 80033ba:	b084      	sub	sp, #16
 80033bc:	af00      	add	r7, sp, #0
 80033be:	6078      	str	r0, [r7, #4]
#if INCLUDE_vTaskDelay
  TickType_t ticks = millisec / portTICK_PERIOD_MS;
 80033c0:	687b      	ldr	r3, [r7, #4]
 80033c2:	60fb      	str	r3, [r7, #12]
  
  vTaskDelay(ticks ? ticks : 1);          /* Minimum delay = 1 tick */
 80033c4:	68fb      	ldr	r3, [r7, #12]
 80033c6:	2b00      	cmp	r3, #0
 80033c8:	d001      	beq.n	80033ce <osDelay+0x16>
 80033ca:	68fb      	ldr	r3, [r7, #12]
 80033cc:	e000      	b.n	80033d0 <osDelay+0x18>
 80033ce:	2301      	movs	r3, #1
 80033d0:	4618      	mov	r0, r3
 80033d2:	f000 fae1 	bl	8003998 <vTaskDelay>
  
  return osOK;
 80033d6:	2300      	movs	r3, #0
#else
  (void) millisec;
  
  return osErrorResource;
#endif
}
 80033d8:	4618      	mov	r0, r3
 80033da:	3710      	adds	r7, #16
 80033dc:	46bd      	mov	sp, r7
 80033de:	bd80      	pop	{r7, pc}

080033e0 <vListInitialise>:
/*-----------------------------------------------------------
 * PUBLIC LIST API documented in list.h
 *----------------------------------------------------------*/

void vListInitialise( List_t * const pxList )
{
 80033e0:	b480      	push	{r7}
 80033e2:	b083      	sub	sp, #12
 80033e4:	af00      	add	r7, sp, #0
 80033e6:	6078      	str	r0, [r7, #4]
	/* The list structure contains a list item which is used to mark the
	end of the list.  To initialise the list the list end is inserted
	as the only list entry. */
	pxList->pxIndex = ( ListItem_t * ) &( pxList->xListEnd );			/*lint !e826 !e740 !e9087 The mini list structure is used as the list end to save RAM.  This is checked and valid. */
 80033e8:	687b      	ldr	r3, [r7, #4]
 80033ea:	f103 0208 	add.w	r2, r3, #8
 80033ee:	687b      	ldr	r3, [r7, #4]
 80033f0:	605a      	str	r2, [r3, #4]

	/* The list end value is the highest possible value in the list to
	ensure it remains at the end of the list. */
	pxList->xListEnd.xItemValue = portMAX_DELAY;
 80033f2:	687b      	ldr	r3, [r7, #4]
 80033f4:	f04f 32ff 	mov.w	r2, #4294967295
 80033f8:	609a      	str	r2, [r3, #8]

	/* The list end next and previous pointers point to itself so we know
	when the list is empty. */
	pxList->xListEnd.pxNext = ( ListItem_t * ) &( pxList->xListEnd );	/*lint !e826 !e740 !e9087 The mini list structure is used as the list end to save RAM.  This is checked and valid. */
 80033fa:	687b      	ldr	r3, [r7, #4]
 80033fc:	f103 0208 	add.w	r2, r3, #8
 8003400:	687b      	ldr	r3, [r7, #4]
 8003402:	60da      	str	r2, [r3, #12]
	pxList->xListEnd.pxPrevious = ( ListItem_t * ) &( pxList->xListEnd );/*lint !e826 !e740 !e9087 The mini list structure is used as the list end to save RAM.  This is checked and valid. */
 8003404:	687b      	ldr	r3, [r7, #4]
 8003406:	f103 0208 	add.w	r2, r3, #8
 800340a:	687b      	ldr	r3, [r7, #4]
 800340c:	611a      	str	r2, [r3, #16]

	pxList->uxNumberOfItems = ( UBaseType_t ) 0U;
 800340e:	687b      	ldr	r3, [r7, #4]
 8003410:	2200      	movs	r2, #0
 8003412:	601a      	str	r2, [r3, #0]

	/* Write known values into the list if
	configUSE_LIST_DATA_INTEGRITY_CHECK_BYTES is set to 1. */
	listSET_LIST_INTEGRITY_CHECK_1_VALUE( pxList );
	listSET_LIST_INTEGRITY_CHECK_2_VALUE( pxList );
}
 8003414:	bf00      	nop
 8003416:	370c      	adds	r7, #12
 8003418:	46bd      	mov	sp, r7
 800341a:	f85d 7b04 	ldr.w	r7, [sp], #4
 800341e:	4770      	bx	lr

08003420 <vListInitialiseItem>:
/*-----------------------------------------------------------*/

void vListInitialiseItem( ListItem_t * const pxItem )
{
 8003420:	b480      	push	{r7}
 8003422:	b083      	sub	sp, #12
 8003424:	af00      	add	r7, sp, #0
 8003426:	6078      	str	r0, [r7, #4]
	/* Make sure the list item is not recorded as being on a list. */
	pxItem->pxContainer = NULL;
 8003428:	687b      	ldr	r3, [r7, #4]
 800342a:	2200      	movs	r2, #0
 800342c:	611a      	str	r2, [r3, #16]

	/* Write known values into the list item if
	configUSE_LIST_DATA_INTEGRITY_CHECK_BYTES is set to 1. */
	listSET_FIRST_LIST_ITEM_INTEGRITY_CHECK_VALUE( pxItem );
	listSET_SECOND_LIST_ITEM_INTEGRITY_CHECK_VALUE( pxItem );
}
 800342e:	bf00      	nop
 8003430:	370c      	adds	r7, #12
 8003432:	46bd      	mov	sp, r7
 8003434:	f85d 7b04 	ldr.w	r7, [sp], #4
 8003438:	4770      	bx	lr

0800343a <vListInsertEnd>:
/*-----------------------------------------------------------*/

void vListInsertEnd( List_t * const pxList, ListItem_t * const pxNewListItem )
{
 800343a:	b480      	push	{r7}
 800343c:	b085      	sub	sp, #20
 800343e:	af00      	add	r7, sp, #0
 8003440:	6078      	str	r0, [r7, #4]
 8003442:	6039      	str	r1, [r7, #0]
ListItem_t * const pxIndex = pxList->pxIndex;
 8003444:	687b      	ldr	r3, [r7, #4]
 8003446:	685b      	ldr	r3, [r3, #4]
 8003448:	60fb      	str	r3, [r7, #12]
	listTEST_LIST_ITEM_INTEGRITY( pxNewListItem );

	/* Insert a new list item into pxList, but rather than sort the list,
	makes the new list item the last item to be removed by a call to
	listGET_OWNER_OF_NEXT_ENTRY(). */
	pxNewListItem->pxNext = pxIndex;
 800344a:	683b      	ldr	r3, [r7, #0]
 800344c:	68fa      	ldr	r2, [r7, #12]
 800344e:	605a      	str	r2, [r3, #4]
	pxNewListItem->pxPrevious = pxIndex->pxPrevious;
 8003450:	68fb      	ldr	r3, [r7, #12]
 8003452:	689a      	ldr	r2, [r3, #8]
 8003454:	683b      	ldr	r3, [r7, #0]
 8003456:	609a      	str	r2, [r3, #8]

	/* Only used during decision coverage testing. */
	mtCOVERAGE_TEST_DELAY();

	pxIndex->pxPrevious->pxNext = pxNewListItem;
 8003458:	68fb      	ldr	r3, [r7, #12]
 800345a:	689b      	ldr	r3, [r3, #8]
 800345c:	683a      	ldr	r2, [r7, #0]
 800345e:	605a      	str	r2, [r3, #4]
	pxIndex->pxPrevious = pxNewListItem;
 8003460:	68fb      	ldr	r3, [r7, #12]
 8003462:	683a      	ldr	r2, [r7, #0]
 8003464:	609a      	str	r2, [r3, #8]

	/* Remember which list the item is in. */
	pxNewListItem->pxContainer = pxList;
 8003466:	683b      	ldr	r3, [r7, #0]
 8003468:	687a      	ldr	r2, [r7, #4]
 800346a:	611a      	str	r2, [r3, #16]

	( pxList->uxNumberOfItems )++;
 800346c:	687b      	ldr	r3, [r7, #4]
 800346e:	681b      	ldr	r3, [r3, #0]
 8003470:	1c5a      	adds	r2, r3, #1
 8003472:	687b      	ldr	r3, [r7, #4]
 8003474:	601a      	str	r2, [r3, #0]
}
 8003476:	bf00      	nop
 8003478:	3714      	adds	r7, #20
 800347a:	46bd      	mov	sp, r7
 800347c:	f85d 7b04 	ldr.w	r7, [sp], #4
 8003480:	4770      	bx	lr

08003482 <vListInsert>:
/*-----------------------------------------------------------*/

void vListInsert( List_t * const pxList, ListItem_t * const pxNewListItem )
{
 8003482:	b480      	push	{r7}
 8003484:	b085      	sub	sp, #20
 8003486:	af00      	add	r7, sp, #0
 8003488:	6078      	str	r0, [r7, #4]
 800348a:	6039      	str	r1, [r7, #0]
ListItem_t *pxIterator;
const TickType_t xValueOfInsertion = pxNewListItem->xItemValue;
 800348c:	683b      	ldr	r3, [r7, #0]
 800348e:	681b      	ldr	r3, [r3, #0]
 8003490:	60bb      	str	r3, [r7, #8]
	new list item should be placed after it.  This ensures that TCBs which are
	stored in ready lists (all of which have the same xItemValue value) get a
	share of the CPU.  However, if the xItemValue is the same as the back marker
	the iteration loop below will not end.  Therefore the value is checked
	first, and the algorithm slightly modified if necessary. */
	if( xValueOfInsertion == portMAX_DELAY )
 8003492:	68bb      	ldr	r3, [r7, #8]
 8003494:	f1b3 3fff 	cmp.w	r3, #4294967295
 8003498:	d103      	bne.n	80034a2 <vListInsert+0x20>
	{
		pxIterator = pxList->xListEnd.pxPrevious;
 800349a:	687b      	ldr	r3, [r7, #4]
 800349c:	691b      	ldr	r3, [r3, #16]
 800349e:	60fb      	str	r3, [r7, #12]
 80034a0:	e00c      	b.n	80034bc <vListInsert+0x3a>
			4) Using a queue or semaphore before it has been initialised or
			   before the scheduler has been started (are interrupts firing
			   before vTaskStartScheduler() has been called?).
		**********************************************************************/

		for( pxIterator = ( ListItem_t * ) &( pxList->xListEnd ); pxIterator->pxNext->xItemValue <= xValueOfInsertion; pxIterator = pxIterator->pxNext ) /*lint !e826 !e740 !e9087 The mini list structure is used as the list end to save RAM.  This is checked and valid. *//*lint !e440 The iterator moves to a different value, not xValueOfInsertion. */
 80034a2:	687b      	ldr	r3, [r7, #4]
 80034a4:	3308      	adds	r3, #8
 80034a6:	60fb      	str	r3, [r7, #12]
 80034a8:	e002      	b.n	80034b0 <vListInsert+0x2e>
 80034aa:	68fb      	ldr	r3, [r7, #12]
 80034ac:	685b      	ldr	r3, [r3, #4]
 80034ae:	60fb      	str	r3, [r7, #12]
 80034b0:	68fb      	ldr	r3, [r7, #12]
 80034b2:	685b      	ldr	r3, [r3, #4]
 80034b4:	681b      	ldr	r3, [r3, #0]
 80034b6:	68ba      	ldr	r2, [r7, #8]
 80034b8:	429a      	cmp	r2, r3
 80034ba:	d2f6      	bcs.n	80034aa <vListInsert+0x28>
			/* There is nothing to do here, just iterating to the wanted
			insertion position. */
		}
	}

	pxNewListItem->pxNext = pxIterator->pxNext;
 80034bc:	68fb      	ldr	r3, [r7, #12]
 80034be:	685a      	ldr	r2, [r3, #4]
 80034c0:	683b      	ldr	r3, [r7, #0]
 80034c2:	605a      	str	r2, [r3, #4]
	pxNewListItem->pxNext->pxPrevious = pxNewListItem;
 80034c4:	683b      	ldr	r3, [r7, #0]
 80034c6:	685b      	ldr	r3, [r3, #4]
 80034c8:	683a      	ldr	r2, [r7, #0]
 80034ca:	609a      	str	r2, [r3, #8]
	pxNewListItem->pxPrevious = pxIterator;
 80034cc:	683b      	ldr	r3, [r7, #0]
 80034ce:	68fa      	ldr	r2, [r7, #12]
 80034d0:	609a      	str	r2, [r3, #8]
	pxIterator->pxNext = pxNewListItem;
 80034d2:	68fb      	ldr	r3, [r7, #12]
 80034d4:	683a      	ldr	r2, [r7, #0]
 80034d6:	605a      	str	r2, [r3, #4]

	/* Remember which list the item is in.  This allows fast removal of the
	item later. */
	pxNewListItem->pxContainer = pxList;
 80034d8:	683b      	ldr	r3, [r7, #0]
 80034da:	687a      	ldr	r2, [r7, #4]
 80034dc:	611a      	str	r2, [r3, #16]

	( pxList->uxNumberOfItems )++;
 80034de:	687b      	ldr	r3, [r7, #4]
 80034e0:	681b      	ldr	r3, [r3, #0]
 80034e2:	1c5a      	adds	r2, r3, #1
 80034e4:	687b      	ldr	r3, [r7, #4]
 80034e6:	601a      	str	r2, [r3, #0]
}
 80034e8:	bf00      	nop
 80034ea:	3714      	adds	r7, #20
 80034ec:	46bd      	mov	sp, r7
 80034ee:	f85d 7b04 	ldr.w	r7, [sp], #4
 80034f2:	4770      	bx	lr

080034f4 <uxListRemove>:
/*-----------------------------------------------------------*/

UBaseType_t uxListRemove( ListItem_t * const pxItemToRemove )
{
 80034f4:	b480      	push	{r7}
 80034f6:	b085      	sub	sp, #20
 80034f8:	af00      	add	r7, sp, #0
 80034fa:	6078      	str	r0, [r7, #4]
/* The list item knows which list it is in.  Obtain the list from the list
item. */
List_t * const pxList = pxItemToRemove->pxContainer;
 80034fc:	687b      	ldr	r3, [r7, #4]
 80034fe:	691b      	ldr	r3, [r3, #16]
 8003500:	60fb      	str	r3, [r7, #12]

	pxItemToRemove->pxNext->pxPrevious = pxItemToRemove->pxPrevious;
 8003502:	687b      	ldr	r3, [r7, #4]
 8003504:	685b      	ldr	r3, [r3, #4]
 8003506:	687a      	ldr	r2, [r7, #4]
 8003508:	6892      	ldr	r2, [r2, #8]
 800350a:	609a      	str	r2, [r3, #8]
	pxItemToRemove->pxPrevious->pxNext = pxItemToRemove->pxNext;
 800350c:	687b      	ldr	r3, [r7, #4]
 800350e:	689b      	ldr	r3, [r3, #8]
 8003510:	687a      	ldr	r2, [r7, #4]
 8003512:	6852      	ldr	r2, [r2, #4]
 8003514:	605a      	str	r2, [r3, #4]

	/* Only used during decision coverage testing. */
	mtCOVERAGE_TEST_DELAY();

	/* Make sure the index is left pointing to a valid item. */
	if( pxList->pxIndex == pxItemToRemove )
 8003516:	68fb      	ldr	r3, [r7, #12]
 8003518:	685b      	ldr	r3, [r3, #4]
 800351a:	687a      	ldr	r2, [r7, #4]
 800351c:	429a      	cmp	r2, r3
 800351e:	d103      	bne.n	8003528 <uxListRemove+0x34>
	{
		pxList->pxIndex = pxItemToRemove->pxPrevious;
 8003520:	687b      	ldr	r3, [r7, #4]
 8003522:	689a      	ldr	r2, [r3, #8]
 8003524:	68fb      	ldr	r3, [r7, #12]
 8003526:	605a      	str	r2, [r3, #4]
	else
	{
		mtCOVERAGE_TEST_MARKER();
	}

	pxItemToRemove->pxContainer = NULL;
 8003528:	687b      	ldr	r3, [r7, #4]
 800352a:	2200      	movs	r2, #0
 800352c:	611a      	str	r2, [r3, #16]
	( pxList->uxNumberOfItems )--;
 800352e:	68fb      	ldr	r3, [r7, #12]
 8003530:	681b      	ldr	r3, [r3, #0]
 8003532:	1e5a      	subs	r2, r3, #1
 8003534:	68fb      	ldr	r3, [r7, #12]
 8003536:	601a      	str	r2, [r3, #0]

	return pxList->uxNumberOfItems;
 8003538:	68fb      	ldr	r3, [r7, #12]
 800353a:	681b      	ldr	r3, [r3, #0]
}
 800353c:	4618      	mov	r0, r3
 800353e:	3714      	adds	r7, #20
 8003540:	46bd      	mov	sp, r7
 8003542:	f85d 7b04 	ldr.w	r7, [sp], #4
 8003546:	4770      	bx	lr

08003548 <xTaskCreateStatic>:
									const uint32_t ulStackDepth,
									void * const pvParameters,
									UBaseType_t uxPriority,
									StackType_t * const puxStackBuffer,
									StaticTask_t * const pxTaskBuffer )
	{
 8003548:	b580      	push	{r7, lr}
 800354a:	b08e      	sub	sp, #56	@ 0x38
 800354c:	af04      	add	r7, sp, #16
 800354e:	60f8      	str	r0, [r7, #12]
 8003550:	60b9      	str	r1, [r7, #8]
 8003552:	607a      	str	r2, [r7, #4]
 8003554:	603b      	str	r3, [r7, #0]
	TCB_t *pxNewTCB;
	TaskHandle_t xReturn;

		configASSERT( puxStackBuffer != NULL );
 8003556:	6b7b      	ldr	r3, [r7, #52]	@ 0x34
 8003558:	2b00      	cmp	r3, #0
 800355a:	d10b      	bne.n	8003574 <xTaskCreateStatic+0x2c>

portFORCE_INLINE static void vPortRaiseBASEPRI( void )
{
uint32_t ulNewBASEPRI;

	__asm volatile
 800355c:	f04f 0350 	mov.w	r3, #80	@ 0x50
 8003560:	f383 8811 	msr	BASEPRI, r3
 8003564:	f3bf 8f6f 	isb	sy
 8003568:	f3bf 8f4f 	dsb	sy
 800356c:	623b      	str	r3, [r7, #32]
		"	msr basepri, %0											\n" \
		"	isb														\n" \
		"	dsb														\n" \
		:"=r" (ulNewBASEPRI) : "i" ( configMAX_SYSCALL_INTERRUPT_PRIORITY ) : "memory"
	);
}
 800356e:	bf00      	nop
 8003570:	bf00      	nop
 8003572:	e7fd      	b.n	8003570 <xTaskCreateStatic+0x28>
		configASSERT( pxTaskBuffer != NULL );
 8003574:	6bbb      	ldr	r3, [r7, #56]	@ 0x38
 8003576:	2b00      	cmp	r3, #0
 8003578:	d10b      	bne.n	8003592 <xTaskCreateStatic+0x4a>
	__asm volatile
 800357a:	f04f 0350 	mov.w	r3, #80	@ 0x50
 800357e:	f383 8811 	msr	BASEPRI, r3
 8003582:	f3bf 8f6f 	isb	sy
 8003586:	f3bf 8f4f 	dsb	sy
 800358a:	61fb      	str	r3, [r7, #28]
}
 800358c:	bf00      	nop
 800358e:	bf00      	nop
 8003590:	e7fd      	b.n	800358e <xTaskCreateStatic+0x46>
		#if( configASSERT_DEFINED == 1 )
		{
			/* Sanity check that the size of the structure used to declare a
			variable of type StaticTask_t equals the size of the real task
			structure. */
			volatile size_t xSize = sizeof( StaticTask_t );
 8003592:	2354      	movs	r3, #84	@ 0x54
 8003594:	613b      	str	r3, [r7, #16]
			configASSERT( xSize == sizeof( TCB_t ) );
 8003596:	693b      	ldr	r3, [r7, #16]
 8003598:	2b54      	cmp	r3, #84	@ 0x54
 800359a:	d00b      	beq.n	80035b4 <xTaskCreateStatic+0x6c>
	__asm volatile
 800359c:	f04f 0350 	mov.w	r3, #80	@ 0x50
 80035a0:	f383 8811 	msr	BASEPRI, r3
 80035a4:	f3bf 8f6f 	isb	sy
 80035a8:	f3bf 8f4f 	dsb	sy
 80035ac:	61bb      	str	r3, [r7, #24]
}
 80035ae:	bf00      	nop
 80035b0:	bf00      	nop
 80035b2:	e7fd      	b.n	80035b0 <xTaskCreateStatic+0x68>
			( void ) xSize; /* Prevent lint warning when configASSERT() is not used. */
 80035b4:	693b      	ldr	r3, [r7, #16]
		}
		#endif /* configASSERT_DEFINED */


		if( ( pxTaskBuffer != NULL ) && ( puxStackBuffer != NULL ) )
 80035b6:	6bbb      	ldr	r3, [r7, #56]	@ 0x38
 80035b8:	2b00      	cmp	r3, #0
 80035ba:	d01e      	beq.n	80035fa <xTaskCreateStatic+0xb2>
 80035bc:	6b7b      	ldr	r3, [r7, #52]	@ 0x34
 80035be:	2b00      	cmp	r3, #0
 80035c0:	d01b      	beq.n	80035fa <xTaskCreateStatic+0xb2>
		{
			/* The memory used for the task's TCB and stack are passed into this
			function - use them. */
			pxNewTCB = ( TCB_t * ) pxTaskBuffer; /*lint !e740 !e9087 Unusual cast is ok as the structures are designed to have the same alignment, and the size is checked by an assert. */
 80035c2:	6bbb      	ldr	r3, [r7, #56]	@ 0x38
 80035c4:	627b      	str	r3, [r7, #36]	@ 0x24
			pxNewTCB->pxStack = ( StackType_t * ) puxStackBuffer;
 80035c6:	6a7b      	ldr	r3, [r7, #36]	@ 0x24
 80035c8:	6b7a      	ldr	r2, [r7, #52]	@ 0x34
 80035ca:	631a      	str	r2, [r3, #48]	@ 0x30

			#if( tskSTATIC_AND_DYNAMIC_ALLOCATION_POSSIBLE != 0 ) /*lint !e731 !e9029 Macro has been consolidated for readability reasons. */
			{
				/* Tasks can be created statically or dynamically, so note this
				task was created statically in case the task is later deleted. */
				pxNewTCB->ucStaticallyAllocated = tskSTATICALLY_ALLOCATED_STACK_AND_TCB;
 80035cc:	6a7b      	ldr	r3, [r7, #36]	@ 0x24
 80035ce:	2202      	movs	r2, #2
 80035d0:	f883 2051 	strb.w	r2, [r3, #81]	@ 0x51
			}
			#endif /* tskSTATIC_AND_DYNAMIC_ALLOCATION_POSSIBLE */

			prvInitialiseNewTask( pxTaskCode, pcName, ulStackDepth, pvParameters, uxPriority, &xReturn, pxNewTCB, NULL );
 80035d4:	2300      	movs	r3, #0
 80035d6:	9303      	str	r3, [sp, #12]
 80035d8:	6a7b      	ldr	r3, [r7, #36]	@ 0x24
 80035da:	9302      	str	r3, [sp, #8]
 80035dc:	f107 0314 	add.w	r3, r7, #20
 80035e0:	9301      	str	r3, [sp, #4]
 80035e2:	6b3b      	ldr	r3, [r7, #48]	@ 0x30
 80035e4:	9300      	str	r3, [sp, #0]
 80035e6:	683b      	ldr	r3, [r7, #0]
 80035e8:	687a      	ldr	r2, [r7, #4]
 80035ea:	68b9      	ldr	r1, [r7, #8]
 80035ec:	68f8      	ldr	r0, [r7, #12]
 80035ee:	f000 f850 	bl	8003692 <prvInitialiseNewTask>
			prvAddNewTaskToReadyList( pxNewTCB );
 80035f2:	6a78      	ldr	r0, [r7, #36]	@ 0x24
 80035f4:	f000 f8d6 	bl	80037a4 <prvAddNewTaskToReadyList>
 80035f8:	e001      	b.n	80035fe <xTaskCreateStatic+0xb6>
		}
		else
		{
			xReturn = NULL;
 80035fa:	2300      	movs	r3, #0
 80035fc:	617b      	str	r3, [r7, #20]
		}

		return xReturn;
 80035fe:	697b      	ldr	r3, [r7, #20]
	}
 8003600:	4618      	mov	r0, r3
 8003602:	3728      	adds	r7, #40	@ 0x28
 8003604:	46bd      	mov	sp, r7
 8003606:	bd80      	pop	{r7, pc}

08003608 <xTaskCreate>:
							const char * const pcName,		/*lint !e971 Unqualified char types are allowed for strings and single characters only. */
							const configSTACK_DEPTH_TYPE usStackDepth,
							void * const pvParameters,
							UBaseType_t uxPriority,
							TaskHandle_t * const pxCreatedTask )
	{
 8003608:	b580      	push	{r7, lr}
 800360a:	b08c      	sub	sp, #48	@ 0x30
 800360c:	af04      	add	r7, sp, #16
 800360e:	60f8      	str	r0, [r7, #12]
 8003610:	60b9      	str	r1, [r7, #8]
 8003612:	603b      	str	r3, [r7, #0]
 8003614:	4613      	mov	r3, r2
 8003616:	80fb      	strh	r3, [r7, #6]
		#else /* portSTACK_GROWTH */
		{
		StackType_t *pxStack;

			/* Allocate space for the stack used by the task being created. */
			pxStack = pvPortMalloc( ( ( ( size_t ) usStackDepth ) * sizeof( StackType_t ) ) ); /*lint !e9079 All values returned by pvPortMalloc() have at least the alignment required by the MCU's stack and this allocation is the stack. */
 8003618:	88fb      	ldrh	r3, [r7, #6]
 800361a:	009b      	lsls	r3, r3, #2
 800361c:	4618      	mov	r0, r3
 800361e:	f000 ff93 	bl	8004548 <pvPortMalloc>
 8003622:	6178      	str	r0, [r7, #20]

			if( pxStack != NULL )
 8003624:	697b      	ldr	r3, [r7, #20]
 8003626:	2b00      	cmp	r3, #0
 8003628:	d00e      	beq.n	8003648 <xTaskCreate+0x40>
			{
				/* Allocate space for the TCB. */
				pxNewTCB = ( TCB_t * ) pvPortMalloc( sizeof( TCB_t ) ); /*lint !e9087 !e9079 All values returned by pvPortMalloc() have at least the alignment required by the MCU's stack, and the first member of TCB_t is always a pointer to the task's stack. */
 800362a:	2054      	movs	r0, #84	@ 0x54
 800362c:	f000 ff8c 	bl	8004548 <pvPortMalloc>
 8003630:	61f8      	str	r0, [r7, #28]

				if( pxNewTCB != NULL )
 8003632:	69fb      	ldr	r3, [r7, #28]
 8003634:	2b00      	cmp	r3, #0
 8003636:	d003      	beq.n	8003640 <xTaskCreate+0x38>
				{
					/* Store the stack location in the TCB. */
					pxNewTCB->pxStack = pxStack;
 8003638:	69fb      	ldr	r3, [r7, #28]
 800363a:	697a      	ldr	r2, [r7, #20]
 800363c:	631a      	str	r2, [r3, #48]	@ 0x30
 800363e:	e005      	b.n	800364c <xTaskCreate+0x44>
				}
				else
				{
					/* The stack cannot be used as the TCB was not created.  Free
					it again. */
					vPortFree( pxStack );
 8003640:	6978      	ldr	r0, [r7, #20]
 8003642:	f001 f84f 	bl	80046e4 <vPortFree>
 8003646:	e001      	b.n	800364c <xTaskCreate+0x44>
				}
			}
			else
			{
				pxNewTCB = NULL;
 8003648:	2300      	movs	r3, #0
 800364a:	61fb      	str	r3, [r7, #28]
			}
		}
		#endif /* portSTACK_GROWTH */

		if( pxNewTCB != NULL )
 800364c:	69fb      	ldr	r3, [r7, #28]
 800364e:	2b00      	cmp	r3, #0
 8003650:	d017      	beq.n	8003682 <xTaskCreate+0x7a>
		{
			#if( tskSTATIC_AND_DYNAMIC_ALLOCATION_POSSIBLE != 0 ) /*lint !e9029 !e731 Macro has been consolidated for readability reasons. */
			{
				/* Tasks can be created statically or dynamically, so note this
				task was created dynamically in case it is later deleted. */
				pxNewTCB->ucStaticallyAllocated = tskDYNAMICALLY_ALLOCATED_STACK_AND_TCB;
 8003652:	69fb      	ldr	r3, [r7, #28]
 8003654:	2200      	movs	r2, #0
 8003656:	f883 2051 	strb.w	r2, [r3, #81]	@ 0x51
			}
			#endif /* tskSTATIC_AND_DYNAMIC_ALLOCATION_POSSIBLE */

			prvInitialiseNewTask( pxTaskCode, pcName, ( uint32_t ) usStackDepth, pvParameters, uxPriority, pxCreatedTask, pxNewTCB, NULL );
 800365a:	88fa      	ldrh	r2, [r7, #6]
 800365c:	2300      	movs	r3, #0
 800365e:	9303      	str	r3, [sp, #12]
 8003660:	69fb      	ldr	r3, [r7, #28]
 8003662:	9302      	str	r3, [sp, #8]
 8003664:	6afb      	ldr	r3, [r7, #44]	@ 0x2c
 8003666:	9301      	str	r3, [sp, #4]
 8003668:	6abb      	ldr	r3, [r7, #40]	@ 0x28
 800366a:	9300      	str	r3, [sp, #0]
 800366c:	683b      	ldr	r3, [r7, #0]
 800366e:	68b9      	ldr	r1, [r7, #8]
 8003670:	68f8      	ldr	r0, [r7, #12]
 8003672:	f000 f80e 	bl	8003692 <prvInitialiseNewTask>
			prvAddNewTaskToReadyList( pxNewTCB );
 8003676:	69f8      	ldr	r0, [r7, #28]
 8003678:	f000 f894 	bl	80037a4 <prvAddNewTaskToReadyList>
			xReturn = pdPASS;
 800367c:	2301      	movs	r3, #1
 800367e:	61bb      	str	r3, [r7, #24]
 8003680:	e002      	b.n	8003688 <xTaskCreate+0x80>
		}
		else
		{
			xReturn = errCOULD_NOT_ALLOCATE_REQUIRED_MEMORY;
 8003682:	f04f 33ff 	mov.w	r3, #4294967295
 8003686:	61bb      	str	r3, [r7, #24]
		}

		return xReturn;
 8003688:	69bb      	ldr	r3, [r7, #24]
	}
 800368a:	4618      	mov	r0, r3
 800368c:	3720      	adds	r7, #32
 800368e:	46bd      	mov	sp, r7
 8003690:	bd80      	pop	{r7, pc}

08003692 <prvInitialiseNewTask>:
									void * const pvParameters,
									UBaseType_t uxPriority,
									TaskHandle_t * const pxCreatedTask,
									TCB_t *pxNewTCB,
									const MemoryRegion_t * const xRegions )
{
 8003692:	b580      	push	{r7, lr}
 8003694:	b088      	sub	sp, #32
 8003696:	af00      	add	r7, sp, #0
 8003698:	60f8      	str	r0, [r7, #12]
 800369a:	60b9      	str	r1, [r7, #8]
 800369c:	607a      	str	r2, [r7, #4]
 800369e:	603b      	str	r3, [r7, #0]
	grows from high memory to low (as per the 80x86) or vice versa.
	portSTACK_GROWTH is used to make the result positive or negative as required
	by the port. */
	#if( portSTACK_GROWTH < 0 )
	{
		pxTopOfStack = &( pxNewTCB->pxStack[ ulStackDepth - ( uint32_t ) 1 ] );
 80036a0:	6b3b      	ldr	r3, [r7, #48]	@ 0x30
 80036a2:	6b1a      	ldr	r2, [r3, #48]	@ 0x30
 80036a4:	687b      	ldr	r3, [r7, #4]
 80036a6:	f103 4380 	add.w	r3, r3, #1073741824	@ 0x40000000
 80036aa:	3b01      	subs	r3, #1
 80036ac:	009b      	lsls	r3, r3, #2
 80036ae:	4413      	add	r3, r2
 80036b0:	61bb      	str	r3, [r7, #24]
		pxTopOfStack = ( StackType_t * ) ( ( ( portPOINTER_SIZE_TYPE ) pxTopOfStack ) & ( ~( ( portPOINTER_SIZE_TYPE ) portBYTE_ALIGNMENT_MASK ) ) ); /*lint !e923 !e9033 !e9078 MISRA exception.  Avoiding casts between pointers and integers is not practical.  Size differences accounted for using portPOINTER_SIZE_TYPE type.  Checked by assert(). */
 80036b2:	69bb      	ldr	r3, [r7, #24]
 80036b4:	f023 0307 	bic.w	r3, r3, #7
 80036b8:	61bb      	str	r3, [r7, #24]

		/* Check the alignment of the calculated top of stack is correct. */
		configASSERT( ( ( ( portPOINTER_SIZE_TYPE ) pxTopOfStack & ( portPOINTER_SIZE_TYPE ) portBYTE_ALIGNMENT_MASK ) == 0UL ) );
 80036ba:	69bb      	ldr	r3, [r7, #24]
 80036bc:	f003 0307 	and.w	r3, r3, #7
 80036c0:	2b00      	cmp	r3, #0
 80036c2:	d00b      	beq.n	80036dc <prvInitialiseNewTask+0x4a>
	__asm volatile
 80036c4:	f04f 0350 	mov.w	r3, #80	@ 0x50
 80036c8:	f383 8811 	msr	BASEPRI, r3
 80036cc:	f3bf 8f6f 	isb	sy
 80036d0:	f3bf 8f4f 	dsb	sy
 80036d4:	617b      	str	r3, [r7, #20]
}
 80036d6:	bf00      	nop
 80036d8:	bf00      	nop
 80036da:	e7fd      	b.n	80036d8 <prvInitialiseNewTask+0x46>
		pxNewTCB->pxEndOfStack = pxNewTCB->pxStack + ( ulStackDepth - ( uint32_t ) 1 );
	}
	#endif /* portSTACK_GROWTH */

	/* Store the task name in the TCB. */
	if( pcName != NULL )
 80036dc:	68bb      	ldr	r3, [r7, #8]
 80036de:	2b00      	cmp	r3, #0
 80036e0:	d01f      	beq.n	8003722 <prvInitialiseNewTask+0x90>
	{
		for( x = ( UBaseType_t ) 0; x < ( UBaseType_t ) configMAX_TASK_NAME_LEN; x++ )
 80036e2:	2300      	movs	r3, #0
 80036e4:	61fb      	str	r3, [r7, #28]
 80036e6:	e012      	b.n	800370e <prvInitialiseNewTask+0x7c>
		{
			pxNewTCB->pcTaskName[ x ] = pcName[ x ];
 80036e8:	68ba      	ldr	r2, [r7, #8]
 80036ea:	69fb      	ldr	r3, [r7, #28]
 80036ec:	4413      	add	r3, r2
 80036ee:	7819      	ldrb	r1, [r3, #0]
 80036f0:	6b3a      	ldr	r2, [r7, #48]	@ 0x30
 80036f2:	69fb      	ldr	r3, [r7, #28]
 80036f4:	4413      	add	r3, r2
 80036f6:	3334      	adds	r3, #52	@ 0x34
 80036f8:	460a      	mov	r2, r1
 80036fa:	701a      	strb	r2, [r3, #0]

			/* Don't copy all configMAX_TASK_NAME_LEN if the string is shorter than
			configMAX_TASK_NAME_LEN characters just in case the memory after the
			string is not accessible (extremely unlikely). */
			if( pcName[ x ] == ( char ) 0x00 )
 80036fc:	68ba      	ldr	r2, [r7, #8]
 80036fe:	69fb      	ldr	r3, [r7, #28]
 8003700:	4413      	add	r3, r2
 8003702:	781b      	ldrb	r3, [r3, #0]
 8003704:	2b00      	cmp	r3, #0
 8003706:	d006      	beq.n	8003716 <prvInitialiseNewTask+0x84>
		for( x = ( UBaseType_t ) 0; x < ( UBaseType_t ) configMAX_TASK_NAME_LEN; x++ )
 8003708:	69fb      	ldr	r3, [r7, #28]
 800370a:	3301      	adds	r3, #1
 800370c:	61fb      	str	r3, [r7, #28]
 800370e:	69fb      	ldr	r3, [r7, #28]
 8003710:	2b0f      	cmp	r3, #15
 8003712:	d9e9      	bls.n	80036e8 <prvInitialiseNewTask+0x56>
 8003714:	e000      	b.n	8003718 <prvInitialiseNewTask+0x86>
			{
				break;
 8003716:	bf00      	nop
			}
		}

		/* Ensure the name string is terminated in the case that the string length
		was greater or equal to configMAX_TASK_NAME_LEN. */
		pxNewTCB->pcTaskName[ configMAX_TASK_NAME_LEN - 1 ] = '\0';
 8003718:	6b3b      	ldr	r3, [r7, #48]	@ 0x30
 800371a:	2200      	movs	r2, #0
 800371c:	f883 2043 	strb.w	r2, [r3, #67]	@ 0x43
 8003720:	e003      	b.n	800372a <prvInitialiseNewTask+0x98>
	}
	else
	{
		/* The task has not been given a name, so just ensure there is a NULL
		terminator when it is read out. */
		pxNewTCB->pcTaskName[ 0 ] = 0x00;
 8003722:	6b3b      	ldr	r3, [r7, #48]	@ 0x30
 8003724:	2200      	movs	r2, #0
 8003726:	f883 2034 	strb.w	r2, [r3, #52]	@ 0x34
	}

	/* This is used as an array index so must ensure it's not too large.  First
	remove the privilege bit if one is present. */
	if( uxPriority >= ( UBaseType_t ) configMAX_PRIORITIES )
 800372a:	6abb      	ldr	r3, [r7, #40]	@ 0x28
 800372c:	2b06      	cmp	r3, #6
 800372e:	d901      	bls.n	8003734 <prvInitialiseNewTask+0xa2>
	{
		uxPriority = ( UBaseType_t ) configMAX_PRIORITIES - ( UBaseType_t ) 1U;
 8003730:	2306      	movs	r3, #6
 8003732:	62bb      	str	r3, [r7, #40]	@ 0x28
	else
	{
		mtCOVERAGE_TEST_MARKER();
	}

	pxNewTCB->uxPriority = uxPriority;
 8003734:	6b3b      	ldr	r3, [r7, #48]	@ 0x30
 8003736:	6aba      	ldr	r2, [r7, #40]	@ 0x28
 8003738:	62da      	str	r2, [r3, #44]	@ 0x2c
	#if ( configUSE_MUTEXES == 1 )
	{
		pxNewTCB->uxBasePriority = uxPriority;
 800373a:	6b3b      	ldr	r3, [r7, #48]	@ 0x30
 800373c:	6aba      	ldr	r2, [r7, #40]	@ 0x28
 800373e:	645a      	str	r2, [r3, #68]	@ 0x44
		pxNewTCB->uxMutexesHeld = 0;
 8003740:	6b3b      	ldr	r3, [r7, #48]	@ 0x30
 8003742:	2200      	movs	r2, #0
 8003744:	649a      	str	r2, [r3, #72]	@ 0x48
	}
	#endif /* configUSE_MUTEXES */

	vListInitialiseItem( &( pxNewTCB->xStateListItem ) );
 8003746:	6b3b      	ldr	r3, [r7, #48]	@ 0x30
 8003748:	3304      	adds	r3, #4
 800374a:	4618      	mov	r0, r3
 800374c:	f7ff fe68 	bl	8003420 <vListInitialiseItem>
	vListInitialiseItem( &( pxNewTCB->xEventListItem ) );
 8003750:	6b3b      	ldr	r3, [r7, #48]	@ 0x30
 8003752:	3318      	adds	r3, #24
 8003754:	4618      	mov	r0, r3
 8003756:	f7ff fe63 	bl	8003420 <vListInitialiseItem>

	/* Set the pxNewTCB as a link back from the ListItem_t.  This is so we can get
	back to	the containing TCB from a generic item in a list. */
	listSET_LIST_ITEM_OWNER( &( pxNewTCB->xStateListItem ), pxNewTCB );
 800375a:	6b3b      	ldr	r3, [r7, #48]	@ 0x30
 800375c:	6b3a      	ldr	r2, [r7, #48]	@ 0x30
 800375e:	611a      	str	r2, [r3, #16]

	/* Event lists are always in priority order. */
	listSET_LIST_ITEM_VALUE( &( pxNewTCB->xEventListItem ), ( TickType_t ) configMAX_PRIORITIES - ( TickType_t ) uxPriority ); /*lint !e961 MISRA exception as the casts are only redundant for some ports. */
 8003760:	6abb      	ldr	r3, [r7, #40]	@ 0x28
 8003762:	f1c3 0207 	rsb	r2, r3, #7
 8003766:	6b3b      	ldr	r3, [r7, #48]	@ 0x30
 8003768:	619a      	str	r2, [r3, #24]
	listSET_LIST_ITEM_OWNER( &( pxNewTCB->xEventListItem ), pxNewTCB );
 800376a:	6b3b      	ldr	r3, [r7, #48]	@ 0x30
 800376c:	6b3a      	ldr	r2, [r7, #48]	@ 0x30
 800376e:	625a      	str	r2, [r3, #36]	@ 0x24
	}
	#endif

	#if ( configUSE_TASK_NOTIFICATIONS == 1 )
	{
		pxNewTCB->ulNotifiedValue = 0;
 8003770:	6b3b      	ldr	r3, [r7, #48]	@ 0x30
 8003772:	2200      	movs	r2, #0
 8003774:	64da      	str	r2, [r3, #76]	@ 0x4c
		pxNewTCB->ucNotifyState = taskNOT_WAITING_NOTIFICATION;
 8003776:	6b3b      	ldr	r3, [r7, #48]	@ 0x30
 8003778:	2200      	movs	r2, #0
 800377a:	f883 2050 	strb.w	r2, [r3, #80]	@ 0x50
			}
			#endif /* portSTACK_GROWTH */
		}
		#else /* portHAS_STACK_OVERFLOW_CHECKING */
		{
			pxNewTCB->pxTopOfStack = pxPortInitialiseStack( pxTopOfStack, pxTaskCode, pvParameters );
 800377e:	683a      	ldr	r2, [r7, #0]
 8003780:	68f9      	ldr	r1, [r7, #12]
 8003782:	69b8      	ldr	r0, [r7, #24]
 8003784:	f000 fccc 	bl	8004120 <pxPortInitialiseStack>
 8003788:	4602      	mov	r2, r0
 800378a:	6b3b      	ldr	r3, [r7, #48]	@ 0x30
 800378c:	601a      	str	r2, [r3, #0]
		}
		#endif /* portHAS_STACK_OVERFLOW_CHECKING */
	}
	#endif /* portUSING_MPU_WRAPPERS */

	if( pxCreatedTask != NULL )
 800378e:	6afb      	ldr	r3, [r7, #44]	@ 0x2c
 8003790:	2b00      	cmp	r3, #0
 8003792:	d002      	beq.n	800379a <prvInitialiseNewTask+0x108>
	{
		/* Pass the handle out in an anonymous way.  The handle can be used to
		change the created task's priority, delete the created task, etc.*/
		*pxCreatedTask = ( TaskHandle_t ) pxNewTCB;
 8003794:	6afb      	ldr	r3, [r7, #44]	@ 0x2c
 8003796:	6b3a      	ldr	r2, [r7, #48]	@ 0x30
 8003798:	601a      	str	r2, [r3, #0]
	}
	else
	{
		mtCOVERAGE_TEST_MARKER();
	}
}
 800379a:	bf00      	nop
 800379c:	3720      	adds	r7, #32
 800379e:	46bd      	mov	sp, r7
 80037a0:	bd80      	pop	{r7, pc}
	...

080037a4 <prvAddNewTaskToReadyList>:
/*-----------------------------------------------------------*/

static void prvAddNewTaskToReadyList( TCB_t *pxNewTCB )
{
 80037a4:	b580      	push	{r7, lr}
 80037a6:	b082      	sub	sp, #8
 80037a8:	af00      	add	r7, sp, #0
 80037aa:	6078      	str	r0, [r7, #4]
	/* Ensure interrupts don't access the task lists while the lists are being
	updated. */
	taskENTER_CRITICAL();
 80037ac:	f000 fdec 	bl	8004388 <vPortEnterCritical>
	{
		uxCurrentNumberOfTasks++;
 80037b0:	4b2a      	ldr	r3, [pc, #168]	@ (800385c <prvAddNewTaskToReadyList+0xb8>)
 80037b2:	681b      	ldr	r3, [r3, #0]
 80037b4:	3301      	adds	r3, #1
 80037b6:	4a29      	ldr	r2, [pc, #164]	@ (800385c <prvAddNewTaskToReadyList+0xb8>)
 80037b8:	6013      	str	r3, [r2, #0]
		if( pxCurrentTCB == NULL )
 80037ba:	4b29      	ldr	r3, [pc, #164]	@ (8003860 <prvAddNewTaskToReadyList+0xbc>)
 80037bc:	681b      	ldr	r3, [r3, #0]
 80037be:	2b00      	cmp	r3, #0
 80037c0:	d109      	bne.n	80037d6 <prvAddNewTaskToReadyList+0x32>
		{
			/* There are no other tasks, or all the other tasks are in
			the suspended state - make this the current task. */
			pxCurrentTCB = pxNewTCB;
 80037c2:	4a27      	ldr	r2, [pc, #156]	@ (8003860 <prvAddNewTaskToReadyList+0xbc>)
 80037c4:	687b      	ldr	r3, [r7, #4]
 80037c6:	6013      	str	r3, [r2, #0]

			if( uxCurrentNumberOfTasks == ( UBaseType_t ) 1 )
 80037c8:	4b24      	ldr	r3, [pc, #144]	@ (800385c <prvAddNewTaskToReadyList+0xb8>)
 80037ca:	681b      	ldr	r3, [r3, #0]
 80037cc:	2b01      	cmp	r3, #1
 80037ce:	d110      	bne.n	80037f2 <prvAddNewTaskToReadyList+0x4e>
			{
				/* This is the first task to be created so do the preliminary
				initialisation required.  We will not recover if this call
				fails, but we will report the failure. */
				prvInitialiseTaskLists();
 80037d0:	f000 fb64 	bl	8003e9c <prvInitialiseTaskLists>
 80037d4:	e00d      	b.n	80037f2 <prvAddNewTaskToReadyList+0x4e>
		else
		{
			/* If the scheduler is not already running, make this task the
			current task if it is the highest priority task to be created
			so far. */
			if( xSchedulerRunning == pdFALSE )
 80037d6:	4b23      	ldr	r3, [pc, #140]	@ (8003864 <prvAddNewTaskToReadyList+0xc0>)
 80037d8:	681b      	ldr	r3, [r3, #0]
 80037da:	2b00      	cmp	r3, #0
 80037dc:	d109      	bne.n	80037f2 <prvAddNewTaskToReadyList+0x4e>
			{
				if( pxCurrentTCB->uxPriority <= pxNewTCB->uxPriority )
 80037de:	4b20      	ldr	r3, [pc, #128]	@ (8003860 <prvAddNewTaskToReadyList+0xbc>)
 80037e0:	681b      	ldr	r3, [r3, #0]
 80037e2:	6ada      	ldr	r2, [r3, #44]	@ 0x2c
 80037e4:	687b      	ldr	r3, [r7, #4]
 80037e6:	6adb      	ldr	r3, [r3, #44]	@ 0x2c
 80037e8:	429a      	cmp	r2, r3
 80037ea:	d802      	bhi.n	80037f2 <prvAddNewTaskToReadyList+0x4e>
				{
					pxCurrentTCB = pxNewTCB;
 80037ec:	4a1c      	ldr	r2, [pc, #112]	@ (8003860 <prvAddNewTaskToReadyList+0xbc>)
 80037ee:	687b      	ldr	r3, [r7, #4]
 80037f0:	6013      	str	r3, [r2, #0]
			{
				mtCOVERAGE_TEST_MARKER();
			}
		}

		uxTaskNumber++;
 80037f2:	4b1d      	ldr	r3, [pc, #116]	@ (8003868 <prvAddNewTaskToReadyList+0xc4>)
 80037f4:	681b      	ldr	r3, [r3, #0]
 80037f6:	3301      	adds	r3, #1
 80037f8:	4a1b      	ldr	r2, [pc, #108]	@ (8003868 <prvAddNewTaskToReadyList+0xc4>)
 80037fa:	6013      	str	r3, [r2, #0]
			pxNewTCB->uxTCBNumber = uxTaskNumber;
		}
		#endif /* configUSE_TRACE_FACILITY */
		traceTASK_CREATE( pxNewTCB );

		prvAddTaskToReadyList( pxNewTCB );
 80037fc:	687b      	ldr	r3, [r7, #4]
 80037fe:	6adb      	ldr	r3, [r3, #44]	@ 0x2c
 8003800:	2201      	movs	r2, #1
 8003802:	409a      	lsls	r2, r3
 8003804:	4b19      	ldr	r3, [pc, #100]	@ (800386c <prvAddNewTaskToReadyList+0xc8>)
 8003806:	681b      	ldr	r3, [r3, #0]
 8003808:	4313      	orrs	r3, r2
 800380a:	4a18      	ldr	r2, [pc, #96]	@ (800386c <prvAddNewTaskToReadyList+0xc8>)
 800380c:	6013      	str	r3, [r2, #0]
 800380e:	687b      	ldr	r3, [r7, #4]
 8003810:	6ada      	ldr	r2, [r3, #44]	@ 0x2c
 8003812:	4613      	mov	r3, r2
 8003814:	009b      	lsls	r3, r3, #2
 8003816:	4413      	add	r3, r2
 8003818:	009b      	lsls	r3, r3, #2
 800381a:	4a15      	ldr	r2, [pc, #84]	@ (8003870 <prvAddNewTaskToReadyList+0xcc>)
 800381c:	441a      	add	r2, r3
 800381e:	687b      	ldr	r3, [r7, #4]
 8003820:	3304      	adds	r3, #4
 8003822:	4619      	mov	r1, r3
 8003824:	4610      	mov	r0, r2
 8003826:	f7ff fe08 	bl	800343a <vListInsertEnd>

		portSETUP_TCB( pxNewTCB );
	}
	taskEXIT_CRITICAL();
 800382a:	f000 fddf 	bl	80043ec <vPortExitCritical>

	if( xSchedulerRunning != pdFALSE )
 800382e:	4b0d      	ldr	r3, [pc, #52]	@ (8003864 <prvAddNewTaskToReadyList+0xc0>)
 8003830:	681b      	ldr	r3, [r3, #0]
 8003832:	2b00      	cmp	r3, #0
 8003834:	d00e      	beq.n	8003854 <prvAddNewTaskToReadyList+0xb0>
	{
		/* If the created task is of a higher priority than the current task
		then it should run now. */
		if( pxCurrentTCB->uxPriority < pxNewTCB->uxPriority )
 8003836:	4b0a      	ldr	r3, [pc, #40]	@ (8003860 <prvAddNewTaskToReadyList+0xbc>)
 8003838:	681b      	ldr	r3, [r3, #0]
 800383a:	6ada      	ldr	r2, [r3, #44]	@ 0x2c
 800383c:	687b      	ldr	r3, [r7, #4]
 800383e:	6adb      	ldr	r3, [r3, #44]	@ 0x2c
 8003840:	429a      	cmp	r2, r3
 8003842:	d207      	bcs.n	8003854 <prvAddNewTaskToReadyList+0xb0>
		{
			taskYIELD_IF_USING_PREEMPTION();
 8003844:	4b0b      	ldr	r3, [pc, #44]	@ (8003874 <prvAddNewTaskToReadyList+0xd0>)
 8003846:	f04f 5280 	mov.w	r2, #268435456	@ 0x10000000
 800384a:	601a      	str	r2, [r3, #0]
 800384c:	f3bf 8f4f 	dsb	sy
 8003850:	f3bf 8f6f 	isb	sy
	}
	else
	{
		mtCOVERAGE_TEST_MARKER();
	}
}
 8003854:	bf00      	nop
 8003856:	3708      	adds	r7, #8
 8003858:	46bd      	mov	sp, r7
 800385a:	bd80      	pop	{r7, pc}
 800385c:	20000464 	.word	0x20000464
 8003860:	20000364 	.word	0x20000364
 8003864:	20000470 	.word	0x20000470
 8003868:	20000480 	.word	0x20000480
 800386c:	2000046c 	.word	0x2000046c
 8003870:	20000368 	.word	0x20000368
 8003874:	e000ed04 	.word	0xe000ed04

08003878 <vTaskDelete>:
/*-----------------------------------------------------------*/

#if ( INCLUDE_vTaskDelete == 1 )

	void vTaskDelete( TaskHandle_t xTaskToDelete )
	{
 8003878:	b580      	push	{r7, lr}
 800387a:	b084      	sub	sp, #16
 800387c:	af00      	add	r7, sp, #0
 800387e:	6078      	str	r0, [r7, #4]
	TCB_t *pxTCB;

		taskENTER_CRITICAL();
 8003880:	f000 fd82 	bl	8004388 <vPortEnterCritical>
		{
			/* If null is passed in here then it is the calling task that is
			being deleted. */
			pxTCB = prvGetTCBFromHandle( xTaskToDelete );
 8003884:	687b      	ldr	r3, [r7, #4]
 8003886:	2b00      	cmp	r3, #0
 8003888:	d102      	bne.n	8003890 <vTaskDelete+0x18>
 800388a:	4b39      	ldr	r3, [pc, #228]	@ (8003970 <vTaskDelete+0xf8>)
 800388c:	681b      	ldr	r3, [r3, #0]
 800388e:	e000      	b.n	8003892 <vTaskDelete+0x1a>
 8003890:	687b      	ldr	r3, [r7, #4]
 8003892:	60fb      	str	r3, [r7, #12]

			/* Remove task from the ready/delayed list. */
			if( uxListRemove( &( pxTCB->xStateListItem ) ) == ( UBaseType_t ) 0 )
 8003894:	68fb      	ldr	r3, [r7, #12]
 8003896:	3304      	adds	r3, #4
 8003898:	4618      	mov	r0, r3
 800389a:	f7ff fe2b 	bl	80034f4 <uxListRemove>
 800389e:	4603      	mov	r3, r0
 80038a0:	2b00      	cmp	r3, #0
 80038a2:	d115      	bne.n	80038d0 <vTaskDelete+0x58>
			{
				taskRESET_READY_PRIORITY( pxTCB->uxPriority );
 80038a4:	68fb      	ldr	r3, [r7, #12]
 80038a6:	6ada      	ldr	r2, [r3, #44]	@ 0x2c
 80038a8:	4932      	ldr	r1, [pc, #200]	@ (8003974 <vTaskDelete+0xfc>)
 80038aa:	4613      	mov	r3, r2
 80038ac:	009b      	lsls	r3, r3, #2
 80038ae:	4413      	add	r3, r2
 80038b0:	009b      	lsls	r3, r3, #2
 80038b2:	440b      	add	r3, r1
 80038b4:	681b      	ldr	r3, [r3, #0]
 80038b6:	2b00      	cmp	r3, #0
 80038b8:	d10a      	bne.n	80038d0 <vTaskDelete+0x58>
 80038ba:	68fb      	ldr	r3, [r7, #12]
 80038bc:	6adb      	ldr	r3, [r3, #44]	@ 0x2c
 80038be:	2201      	movs	r2, #1
 80038c0:	fa02 f303 	lsl.w	r3, r2, r3
 80038c4:	43da      	mvns	r2, r3
 80038c6:	4b2c      	ldr	r3, [pc, #176]	@ (8003978 <vTaskDelete+0x100>)
 80038c8:	681b      	ldr	r3, [r3, #0]
 80038ca:	4013      	ands	r3, r2
 80038cc:	4a2a      	ldr	r2, [pc, #168]	@ (8003978 <vTaskDelete+0x100>)
 80038ce:	6013      	str	r3, [r2, #0]
			{
				mtCOVERAGE_TEST_MARKER();
			}

			/* Is the task waiting on an event also? */
			if( listLIST_ITEM_CONTAINER( &( pxTCB->xEventListItem ) ) != NULL )
 80038d0:	68fb      	ldr	r3, [r7, #12]
 80038d2:	6a9b      	ldr	r3, [r3, #40]	@ 0x28
 80038d4:	2b00      	cmp	r3, #0
 80038d6:	d004      	beq.n	80038e2 <vTaskDelete+0x6a>
			{
				( void ) uxListRemove( &( pxTCB->xEventListItem ) );
 80038d8:	68fb      	ldr	r3, [r7, #12]
 80038da:	3318      	adds	r3, #24
 80038dc:	4618      	mov	r0, r3
 80038de:	f7ff fe09 	bl	80034f4 <uxListRemove>

			/* Increment the uxTaskNumber also so kernel aware debuggers can
			detect that the task lists need re-generating.  This is done before
			portPRE_TASK_DELETE_HOOK() as in the Windows port that macro will
			not return. */
			uxTaskNumber++;
 80038e2:	4b26      	ldr	r3, [pc, #152]	@ (800397c <vTaskDelete+0x104>)
 80038e4:	681b      	ldr	r3, [r3, #0]
 80038e6:	3301      	adds	r3, #1
 80038e8:	4a24      	ldr	r2, [pc, #144]	@ (800397c <vTaskDelete+0x104>)
 80038ea:	6013      	str	r3, [r2, #0]

			if( pxTCB == pxCurrentTCB )
 80038ec:	4b20      	ldr	r3, [pc, #128]	@ (8003970 <vTaskDelete+0xf8>)
 80038ee:	681b      	ldr	r3, [r3, #0]
 80038f0:	68fa      	ldr	r2, [r7, #12]
 80038f2:	429a      	cmp	r2, r3
 80038f4:	d10b      	bne.n	800390e <vTaskDelete+0x96>
				/* A task is deleting itself.  This cannot complete within the
				task itself, as a context switch to another task is required.
				Place the task in the termination list.  The idle task will
				check the termination list and free up any memory allocated by
				the scheduler for the TCB and stack of the deleted task. */
				vListInsertEnd( &xTasksWaitingTermination, &( pxTCB->xStateListItem ) );
 80038f6:	68fb      	ldr	r3, [r7, #12]
 80038f8:	3304      	adds	r3, #4
 80038fa:	4619      	mov	r1, r3
 80038fc:	4820      	ldr	r0, [pc, #128]	@ (8003980 <vTaskDelete+0x108>)
 80038fe:	f7ff fd9c 	bl	800343a <vListInsertEnd>

				/* Increment the ucTasksDeleted variable so the idle task knows
				there is a task that has been deleted and that it should therefore
				check the xTasksWaitingTermination list. */
				++uxDeletedTasksWaitingCleanUp;
 8003902:	4b20      	ldr	r3, [pc, #128]	@ (8003984 <vTaskDelete+0x10c>)
 8003904:	681b      	ldr	r3, [r3, #0]
 8003906:	3301      	adds	r3, #1
 8003908:	4a1e      	ldr	r2, [pc, #120]	@ (8003984 <vTaskDelete+0x10c>)
 800390a:	6013      	str	r3, [r2, #0]
 800390c:	e009      	b.n	8003922 <vTaskDelete+0xaa>
				required. */
				portPRE_TASK_DELETE_HOOK( pxTCB, &xYieldPending );
			}
			else
			{
				--uxCurrentNumberOfTasks;
 800390e:	4b1e      	ldr	r3, [pc, #120]	@ (8003988 <vTaskDelete+0x110>)
 8003910:	681b      	ldr	r3, [r3, #0]
 8003912:	3b01      	subs	r3, #1
 8003914:	4a1c      	ldr	r2, [pc, #112]	@ (8003988 <vTaskDelete+0x110>)
 8003916:	6013      	str	r3, [r2, #0]
				traceTASK_DELETE( pxTCB );
				prvDeleteTCB( pxTCB );
 8003918:	68f8      	ldr	r0, [r7, #12]
 800391a:	f000 fb2d 	bl	8003f78 <prvDeleteTCB>

				/* Reset the next expected unblock time in case it referred to
				the task that has just been deleted. */
				prvResetNextTaskUnblockTime();
 800391e:	f000 fb5b 	bl	8003fd8 <prvResetNextTaskUnblockTime>
			}
		}
		taskEXIT_CRITICAL();
 8003922:	f000 fd63 	bl	80043ec <vPortExitCritical>

		/* Force a reschedule if it is the currently running task that has just
		been deleted. */
		if( xSchedulerRunning != pdFALSE )
 8003926:	4b19      	ldr	r3, [pc, #100]	@ (800398c <vTaskDelete+0x114>)
 8003928:	681b      	ldr	r3, [r3, #0]
 800392a:	2b00      	cmp	r3, #0
 800392c:	d01c      	beq.n	8003968 <vTaskDelete+0xf0>
		{
			if( pxTCB == pxCurrentTCB )
 800392e:	4b10      	ldr	r3, [pc, #64]	@ (8003970 <vTaskDelete+0xf8>)
 8003930:	681b      	ldr	r3, [r3, #0]
 8003932:	68fa      	ldr	r2, [r7, #12]
 8003934:	429a      	cmp	r2, r3
 8003936:	d117      	bne.n	8003968 <vTaskDelete+0xf0>
			{
				configASSERT( uxSchedulerSuspended == 0 );
 8003938:	4b15      	ldr	r3, [pc, #84]	@ (8003990 <vTaskDelete+0x118>)
 800393a:	681b      	ldr	r3, [r3, #0]
 800393c:	2b00      	cmp	r3, #0
 800393e:	d00b      	beq.n	8003958 <vTaskDelete+0xe0>
	__asm volatile
 8003940:	f04f 0350 	mov.w	r3, #80	@ 0x50
 8003944:	f383 8811 	msr	BASEPRI, r3
 8003948:	f3bf 8f6f 	isb	sy
 800394c:	f3bf 8f4f 	dsb	sy
 8003950:	60bb      	str	r3, [r7, #8]
}
 8003952:	bf00      	nop
 8003954:	bf00      	nop
 8003956:	e7fd      	b.n	8003954 <vTaskDelete+0xdc>
				portYIELD_WITHIN_API();
 8003958:	4b0e      	ldr	r3, [pc, #56]	@ (8003994 <vTaskDelete+0x11c>)
 800395a:	f04f 5280 	mov.w	r2, #268435456	@ 0x10000000
 800395e:	601a      	str	r2, [r3, #0]
 8003960:	f3bf 8f4f 	dsb	sy
 8003964:	f3bf 8f6f 	isb	sy
			else
			{
				mtCOVERAGE_TEST_MARKER();
			}
		}
	}
 8003968:	bf00      	nop
 800396a:	3710      	adds	r7, #16
 800396c:	46bd      	mov	sp, r7
 800396e:	bd80      	pop	{r7, pc}
 8003970:	20000364 	.word	0x20000364
 8003974:	20000368 	.word	0x20000368
 8003978:	2000046c 	.word	0x2000046c
 800397c:	20000480 	.word	0x20000480
 8003980:	20000438 	.word	0x20000438
 8003984:	2000044c 	.word	0x2000044c
 8003988:	20000464 	.word	0x20000464
 800398c:	20000470 	.word	0x20000470
 8003990:	2000048c 	.word	0x2000048c
 8003994:	e000ed04 	.word	0xe000ed04

08003998 <vTaskDelay>:
/*-----------------------------------------------------------*/

#if ( INCLUDE_vTaskDelay == 1 )

	void vTaskDelay( const TickType_t xTicksToDelay )
	{
 8003998:	b580      	push	{r7, lr}
 800399a:	b084      	sub	sp, #16
 800399c:	af00      	add	r7, sp, #0
 800399e:	6078      	str	r0, [r7, #4]
	BaseType_t xAlreadyYielded = pdFALSE;
 80039a0:	2300      	movs	r3, #0
 80039a2:	60fb      	str	r3, [r7, #12]

		/* A delay time of zero just forces a reschedule. */
		if( xTicksToDelay > ( TickType_t ) 0U )
 80039a4:	687b      	ldr	r3, [r7, #4]
 80039a6:	2b00      	cmp	r3, #0
 80039a8:	d018      	beq.n	80039dc <vTaskDelay+0x44>
		{
			configASSERT( uxSchedulerSuspended == 0 );
 80039aa:	4b14      	ldr	r3, [pc, #80]	@ (80039fc <vTaskDelay+0x64>)
 80039ac:	681b      	ldr	r3, [r3, #0]
 80039ae:	2b00      	cmp	r3, #0
 80039b0:	d00b      	beq.n	80039ca <vTaskDelay+0x32>
	__asm volatile
 80039b2:	f04f 0350 	mov.w	r3, #80	@ 0x50
 80039b6:	f383 8811 	msr	BASEPRI, r3
 80039ba:	f3bf 8f6f 	isb	sy
 80039be:	f3bf 8f4f 	dsb	sy
 80039c2:	60bb      	str	r3, [r7, #8]
}
 80039c4:	bf00      	nop
 80039c6:	bf00      	nop
 80039c8:	e7fd      	b.n	80039c6 <vTaskDelay+0x2e>
			vTaskSuspendAll();
 80039ca:	f000 f87d 	bl	8003ac8 <vTaskSuspendAll>
				list or removed from the blocked list until the scheduler
				is resumed.

				This task cannot be in an event list as it is the currently
				executing task. */
				prvAddCurrentTaskToDelayedList( xTicksToDelay, pdFALSE );
 80039ce:	2100      	movs	r1, #0
 80039d0:	6878      	ldr	r0, [r7, #4]
 80039d2:	f000 fb3f 	bl	8004054 <prvAddCurrentTaskToDelayedList>
			}
			xAlreadyYielded = xTaskResumeAll();
 80039d6:	f000 f885 	bl	8003ae4 <xTaskResumeAll>
 80039da:	60f8      	str	r0, [r7, #12]
			mtCOVERAGE_TEST_MARKER();
		}

		/* Force a reschedule if xTaskResumeAll has not already done so, we may
		have put ourselves to sleep. */
		if( xAlreadyYielded == pdFALSE )
 80039dc:	68fb      	ldr	r3, [r7, #12]
 80039de:	2b00      	cmp	r3, #0
 80039e0:	d107      	bne.n	80039f2 <vTaskDelay+0x5a>
		{
			portYIELD_WITHIN_API();
 80039e2:	4b07      	ldr	r3, [pc, #28]	@ (8003a00 <vTaskDelay+0x68>)
 80039e4:	f04f 5280 	mov.w	r2, #268435456	@ 0x10000000
 80039e8:	601a      	str	r2, [r3, #0]
 80039ea:	f3bf 8f4f 	dsb	sy
 80039ee:	f3bf 8f6f 	isb	sy
		}
		else
		{
			mtCOVERAGE_TEST_MARKER();
		}
	}
 80039f2:	bf00      	nop
 80039f4:	3710      	adds	r7, #16
 80039f6:	46bd      	mov	sp, r7
 80039f8:	bd80      	pop	{r7, pc}
 80039fa:	bf00      	nop
 80039fc:	2000048c 	.word	0x2000048c
 8003a00:	e000ed04 	.word	0xe000ed04

08003a04 <vTaskStartScheduler>:

#endif /* ( ( INCLUDE_xTaskResumeFromISR == 1 ) && ( INCLUDE_vTaskSuspend == 1 ) ) */
/*-----------------------------------------------------------*/

void vTaskStartScheduler( void )
{
 8003a04:	b580      	push	{r7, lr}
 8003a06:	b08a      	sub	sp, #40	@ 0x28
 8003a08:	af04      	add	r7, sp, #16
BaseType_t xReturn;

	/* Add the idle task at the lowest priority. */
	#if( configSUPPORT_STATIC_ALLOCATION == 1 )
	{
		StaticTask_t *pxIdleTaskTCBBuffer = NULL;
 8003a0a:	2300      	movs	r3, #0
 8003a0c:	60bb      	str	r3, [r7, #8]
		StackType_t *pxIdleTaskStackBuffer = NULL;
 8003a0e:	2300      	movs	r3, #0
 8003a10:	607b      	str	r3, [r7, #4]
		uint32_t ulIdleTaskStackSize;

		/* The Idle task is created using user provided RAM - obtain the
		address of the RAM then create the idle task. */
		vApplicationGetIdleTaskMemory( &pxIdleTaskTCBBuffer, &pxIdleTaskStackBuffer, &ulIdleTaskStackSize );
 8003a12:	463a      	mov	r2, r7
 8003a14:	1d39      	adds	r1, r7, #4
 8003a16:	f107 0308 	add.w	r3, r7, #8
 8003a1a:	4618      	mov	r0, r3
 8003a1c:	f7fc fdc6 	bl	80005ac <vApplicationGetIdleTaskMemory>
		xIdleTaskHandle = xTaskCreateStatic(	prvIdleTask,
 8003a20:	6839      	ldr	r1, [r7, #0]
 8003a22:	687b      	ldr	r3, [r7, #4]
 8003a24:	68ba      	ldr	r2, [r7, #8]
 8003a26:	9202      	str	r2, [sp, #8]
 8003a28:	9301      	str	r3, [sp, #4]
 8003a2a:	2300      	movs	r3, #0
 8003a2c:	9300      	str	r3, [sp, #0]
 8003a2e:	2300      	movs	r3, #0
 8003a30:	460a      	mov	r2, r1
 8003a32:	491f      	ldr	r1, [pc, #124]	@ (8003ab0 <vTaskStartScheduler+0xac>)
 8003a34:	481f      	ldr	r0, [pc, #124]	@ (8003ab4 <vTaskStartScheduler+0xb0>)
 8003a36:	f7ff fd87 	bl	8003548 <xTaskCreateStatic>
 8003a3a:	4603      	mov	r3, r0
 8003a3c:	4a1e      	ldr	r2, [pc, #120]	@ (8003ab8 <vTaskStartScheduler+0xb4>)
 8003a3e:	6013      	str	r3, [r2, #0]
												( void * ) NULL, /*lint !e961.  The cast is not redundant for all compilers. */
												portPRIVILEGE_BIT, /* In effect ( tskIDLE_PRIORITY | portPRIVILEGE_BIT ), but tskIDLE_PRIORITY is zero. */
												pxIdleTaskStackBuffer,
												pxIdleTaskTCBBuffer ); /*lint !e961 MISRA exception, justified as it is not a redundant explicit cast to all supported compilers. */

		if( xIdleTaskHandle != NULL )
 8003a40:	4b1d      	ldr	r3, [pc, #116]	@ (8003ab8 <vTaskStartScheduler+0xb4>)
 8003a42:	681b      	ldr	r3, [r3, #0]
 8003a44:	2b00      	cmp	r3, #0
 8003a46:	d002      	beq.n	8003a4e <vTaskStartScheduler+0x4a>
		{
			xReturn = pdPASS;
 8003a48:	2301      	movs	r3, #1
 8003a4a:	617b      	str	r3, [r7, #20]
 8003a4c:	e001      	b.n	8003a52 <vTaskStartScheduler+0x4e>
		}
		else
		{
			xReturn = pdFAIL;
 8003a4e:	2300      	movs	r3, #0
 8003a50:	617b      	str	r3, [r7, #20]
			mtCOVERAGE_TEST_MARKER();
		}
	}
	#endif /* configUSE_TIMERS */

	if( xReturn == pdPASS )
 8003a52:	697b      	ldr	r3, [r7, #20]
 8003a54:	2b01      	cmp	r3, #1
 8003a56:	d116      	bne.n	8003a86 <vTaskStartScheduler+0x82>
	__asm volatile
 8003a58:	f04f 0350 	mov.w	r3, #80	@ 0x50
 8003a5c:	f383 8811 	msr	BASEPRI, r3
 8003a60:	f3bf 8f6f 	isb	sy
 8003a64:	f3bf 8f4f 	dsb	sy
 8003a68:	613b      	str	r3, [r7, #16]
}
 8003a6a:	bf00      	nop
			for additional information. */
			_impure_ptr = &( pxCurrentTCB->xNewLib_reent );
		}
		#endif /* configUSE_NEWLIB_REENTRANT */

		xNextTaskUnblockTime = portMAX_DELAY;
 8003a6c:	4b13      	ldr	r3, [pc, #76]	@ (8003abc <vTaskStartScheduler+0xb8>)
 8003a6e:	f04f 32ff 	mov.w	r2, #4294967295
 8003a72:	601a      	str	r2, [r3, #0]
		xSchedulerRunning = pdTRUE;
 8003a74:	4b12      	ldr	r3, [pc, #72]	@ (8003ac0 <vTaskStartScheduler+0xbc>)
 8003a76:	2201      	movs	r2, #1
 8003a78:	601a      	str	r2, [r3, #0]
		xTickCount = ( TickType_t ) configINITIAL_TICK_COUNT;
 8003a7a:	4b12      	ldr	r3, [pc, #72]	@ (8003ac4 <vTaskStartScheduler+0xc0>)
 8003a7c:	2200      	movs	r2, #0
 8003a7e:	601a      	str	r2, [r3, #0]

		traceTASK_SWITCHED_IN();

		/* Setting up the timer tick is hardware specific and thus in the
		portable interface. */
		if( xPortStartScheduler() != pdFALSE )
 8003a80:	f000 fbde 	bl	8004240 <xPortStartScheduler>
	}

	/* Prevent compiler warnings if INCLUDE_xTaskGetIdleTaskHandle is set to 0,
	meaning xIdleTaskHandle is not used anywhere else. */
	( void ) xIdleTaskHandle;
}
 8003a84:	e00f      	b.n	8003aa6 <vTaskStartScheduler+0xa2>
		configASSERT( xReturn != errCOULD_NOT_ALLOCATE_REQUIRED_MEMORY );
 8003a86:	697b      	ldr	r3, [r7, #20]
 8003a88:	f1b3 3fff 	cmp.w	r3, #4294967295
 8003a8c:	d10b      	bne.n	8003aa6 <vTaskStartScheduler+0xa2>
	__asm volatile
 8003a8e:	f04f 0350 	mov.w	r3, #80	@ 0x50
 8003a92:	f383 8811 	msr	BASEPRI, r3
 8003a96:	f3bf 8f6f 	isb	sy
 8003a9a:	f3bf 8f4f 	dsb	sy
 8003a9e:	60fb      	str	r3, [r7, #12]
}
 8003aa0:	bf00      	nop
 8003aa2:	bf00      	nop
 8003aa4:	e7fd      	b.n	8003aa2 <vTaskStartScheduler+0x9e>
}
 8003aa6:	bf00      	nop
 8003aa8:	3718      	adds	r7, #24
 8003aaa:	46bd      	mov	sp, r7
 8003aac:	bd80      	pop	{r7, pc}
 8003aae:	bf00      	nop
 8003ab0:	080052d4 	.word	0x080052d4
 8003ab4:	08003e6d 	.word	0x08003e6d
 8003ab8:	20000488 	.word	0x20000488
 8003abc:	20000484 	.word	0x20000484
 8003ac0:	20000470 	.word	0x20000470
 8003ac4:	20000468 	.word	0x20000468

08003ac8 <vTaskSuspendAll>:
	vPortEndScheduler();
}
/*----------------------------------------------------------*/

void vTaskSuspendAll( void )
{
 8003ac8:	b480      	push	{r7}
 8003aca:	af00      	add	r7, sp, #0
	do not otherwise exhibit real time behaviour. */
	portSOFTWARE_BARRIER();

	/* The scheduler is suspended if uxSchedulerSuspended is non-zero.  An increment
	is used to allow calls to vTaskSuspendAll() to nest. */
	++uxSchedulerSuspended;
 8003acc:	4b04      	ldr	r3, [pc, #16]	@ (8003ae0 <vTaskSuspendAll+0x18>)
 8003ace:	681b      	ldr	r3, [r3, #0]
 8003ad0:	3301      	adds	r3, #1
 8003ad2:	4a03      	ldr	r2, [pc, #12]	@ (8003ae0 <vTaskSuspendAll+0x18>)
 8003ad4:	6013      	str	r3, [r2, #0]

	/* Enforces ordering for ports and optimised compilers that may otherwise place
	the above increment elsewhere. */
	portMEMORY_BARRIER();
}
 8003ad6:	bf00      	nop
 8003ad8:	46bd      	mov	sp, r7
 8003ada:	f85d 7b04 	ldr.w	r7, [sp], #4
 8003ade:	4770      	bx	lr
 8003ae0:	2000048c 	.word	0x2000048c

08003ae4 <xTaskResumeAll>:

#endif /* configUSE_TICKLESS_IDLE */
/*----------------------------------------------------------*/

BaseType_t xTaskResumeAll( void )
{
 8003ae4:	b580      	push	{r7, lr}
 8003ae6:	b084      	sub	sp, #16
 8003ae8:	af00      	add	r7, sp, #0
TCB_t *pxTCB = NULL;
 8003aea:	2300      	movs	r3, #0
 8003aec:	60fb      	str	r3, [r7, #12]
BaseType_t xAlreadyYielded = pdFALSE;
 8003aee:	2300      	movs	r3, #0
 8003af0:	60bb      	str	r3, [r7, #8]

	/* If uxSchedulerSuspended is zero then this function does not match a
	previous call to vTaskSuspendAll(). */
	configASSERT( uxSchedulerSuspended );
 8003af2:	4b42      	ldr	r3, [pc, #264]	@ (8003bfc <xTaskResumeAll+0x118>)
 8003af4:	681b      	ldr	r3, [r3, #0]
 8003af6:	2b00      	cmp	r3, #0
 8003af8:	d10b      	bne.n	8003b12 <xTaskResumeAll+0x2e>
	__asm volatile
 8003afa:	f04f 0350 	mov.w	r3, #80	@ 0x50
 8003afe:	f383 8811 	msr	BASEPRI, r3
 8003b02:	f3bf 8f6f 	isb	sy
 8003b06:	f3bf 8f4f 	dsb	sy
 8003b0a:	603b      	str	r3, [r7, #0]
}
 8003b0c:	bf00      	nop
 8003b0e:	bf00      	nop
 8003b10:	e7fd      	b.n	8003b0e <xTaskResumeAll+0x2a>
	/* It is possible that an ISR caused a task to be removed from an event
	list while the scheduler was suspended.  If this was the case then the
	removed task will have been added to the xPendingReadyList.  Once the
	scheduler has been resumed it is safe to move all the pending ready
	tasks from this list into their appropriate ready list. */
	taskENTER_CRITICAL();
 8003b12:	f000 fc39 	bl	8004388 <vPortEnterCritical>
	{
		--uxSchedulerSuspended;
 8003b16:	4b39      	ldr	r3, [pc, #228]	@ (8003bfc <xTaskResumeAll+0x118>)
 8003b18:	681b      	ldr	r3, [r3, #0]
 8003b1a:	3b01      	subs	r3, #1
 8003b1c:	4a37      	ldr	r2, [pc, #220]	@ (8003bfc <xTaskResumeAll+0x118>)
 8003b1e:	6013      	str	r3, [r2, #0]

		if( uxSchedulerSuspended == ( UBaseType_t ) pdFALSE )
 8003b20:	4b36      	ldr	r3, [pc, #216]	@ (8003bfc <xTaskResumeAll+0x118>)
 8003b22:	681b      	ldr	r3, [r3, #0]
 8003b24:	2b00      	cmp	r3, #0
 8003b26:	d161      	bne.n	8003bec <xTaskResumeAll+0x108>
		{
			if( uxCurrentNumberOfTasks > ( UBaseType_t ) 0U )
 8003b28:	4b35      	ldr	r3, [pc, #212]	@ (8003c00 <xTaskResumeAll+0x11c>)
 8003b2a:	681b      	ldr	r3, [r3, #0]
 8003b2c:	2b00      	cmp	r3, #0
 8003b2e:	d05d      	beq.n	8003bec <xTaskResumeAll+0x108>
			{
				/* Move any readied tasks from the pending list into the
				appropriate ready list. */
				while( listLIST_IS_EMPTY( &xPendingReadyList ) == pdFALSE )
 8003b30:	e02e      	b.n	8003b90 <xTaskResumeAll+0xac>
				{
					pxTCB = listGET_OWNER_OF_HEAD_ENTRY( ( &xPendingReadyList ) ); /*lint !e9079 void * is used as this macro is used with timers and co-routines too.  Alignment is known to be fine as the type of the pointer stored and retrieved is the same. */
 8003b32:	4b34      	ldr	r3, [pc, #208]	@ (8003c04 <xTaskResumeAll+0x120>)
 8003b34:	68db      	ldr	r3, [r3, #12]
 8003b36:	68db      	ldr	r3, [r3, #12]
 8003b38:	60fb      	str	r3, [r7, #12]
					( void ) uxListRemove( &( pxTCB->xEventListItem ) );
 8003b3a:	68fb      	ldr	r3, [r7, #12]
 8003b3c:	3318      	adds	r3, #24
 8003b3e:	4618      	mov	r0, r3
 8003b40:	f7ff fcd8 	bl	80034f4 <uxListRemove>
					( void ) uxListRemove( &( pxTCB->xStateListItem ) );
 8003b44:	68fb      	ldr	r3, [r7, #12]
 8003b46:	3304      	adds	r3, #4
 8003b48:	4618      	mov	r0, r3
 8003b4a:	f7ff fcd3 	bl	80034f4 <uxListRemove>
					prvAddTaskToReadyList( pxTCB );
 8003b4e:	68fb      	ldr	r3, [r7, #12]
 8003b50:	6adb      	ldr	r3, [r3, #44]	@ 0x2c
 8003b52:	2201      	movs	r2, #1
 8003b54:	409a      	lsls	r2, r3
 8003b56:	4b2c      	ldr	r3, [pc, #176]	@ (8003c08 <xTaskResumeAll+0x124>)
 8003b58:	681b      	ldr	r3, [r3, #0]
 8003b5a:	4313      	orrs	r3, r2
 8003b5c:	4a2a      	ldr	r2, [pc, #168]	@ (8003c08 <xTaskResumeAll+0x124>)
 8003b5e:	6013      	str	r3, [r2, #0]
 8003b60:	68fb      	ldr	r3, [r7, #12]
 8003b62:	6ada      	ldr	r2, [r3, #44]	@ 0x2c
 8003b64:	4613      	mov	r3, r2
 8003b66:	009b      	lsls	r3, r3, #2
 8003b68:	4413      	add	r3, r2
 8003b6a:	009b      	lsls	r3, r3, #2
 8003b6c:	4a27      	ldr	r2, [pc, #156]	@ (8003c0c <xTaskResumeAll+0x128>)
 8003b6e:	441a      	add	r2, r3
 8003b70:	68fb      	ldr	r3, [r7, #12]
 8003b72:	3304      	adds	r3, #4
 8003b74:	4619      	mov	r1, r3
 8003b76:	4610      	mov	r0, r2
 8003b78:	f7ff fc5f 	bl	800343a <vListInsertEnd>

					/* If the moved task has a priority higher than the current
					task then a yield must be performed. */
					if( pxTCB->uxPriority >= pxCurrentTCB->uxPriority )
 8003b7c:	68fb      	ldr	r3, [r7, #12]
 8003b7e:	6ada      	ldr	r2, [r3, #44]	@ 0x2c
 8003b80:	4b23      	ldr	r3, [pc, #140]	@ (8003c10 <xTaskResumeAll+0x12c>)
 8003b82:	681b      	ldr	r3, [r3, #0]
 8003b84:	6adb      	ldr	r3, [r3, #44]	@ 0x2c
 8003b86:	429a      	cmp	r2, r3
 8003b88:	d302      	bcc.n	8003b90 <xTaskResumeAll+0xac>
					{
						xYieldPending = pdTRUE;
 8003b8a:	4b22      	ldr	r3, [pc, #136]	@ (8003c14 <xTaskResumeAll+0x130>)
 8003b8c:	2201      	movs	r2, #1
 8003b8e:	601a      	str	r2, [r3, #0]
				while( listLIST_IS_EMPTY( &xPendingReadyList ) == pdFALSE )
 8003b90:	4b1c      	ldr	r3, [pc, #112]	@ (8003c04 <xTaskResumeAll+0x120>)
 8003b92:	681b      	ldr	r3, [r3, #0]
 8003b94:	2b00      	cmp	r3, #0
 8003b96:	d1cc      	bne.n	8003b32 <xTaskResumeAll+0x4e>
					{
						mtCOVERAGE_TEST_MARKER();
					}
				}

				if( pxTCB != NULL )
 8003b98:	68fb      	ldr	r3, [r7, #12]
 8003b9a:	2b00      	cmp	r3, #0
 8003b9c:	d001      	beq.n	8003ba2 <xTaskResumeAll+0xbe>
					which may have prevented the next unblock time from being
					re-calculated, in which case re-calculate it now.  Mainly
					important for low power tickless implementations, where
					this can prevent an unnecessary exit from low power
					state. */
					prvResetNextTaskUnblockTime();
 8003b9e:	f000 fa1b 	bl	8003fd8 <prvResetNextTaskUnblockTime>
				/* If any ticks occurred while the scheduler was suspended then
				they should be processed now.  This ensures the tick count does
				not	slip, and that any delayed tasks are resumed at the correct
				time. */
				{
					TickType_t xPendedCounts = xPendedTicks; /* Non-volatile copy. */
 8003ba2:	4b1d      	ldr	r3, [pc, #116]	@ (8003c18 <xTaskResumeAll+0x134>)
 8003ba4:	681b      	ldr	r3, [r3, #0]
 8003ba6:	607b      	str	r3, [r7, #4]

					if( xPendedCounts > ( TickType_t ) 0U )
 8003ba8:	687b      	ldr	r3, [r7, #4]
 8003baa:	2b00      	cmp	r3, #0
 8003bac:	d010      	beq.n	8003bd0 <xTaskResumeAll+0xec>
					{
						do
						{
							if( xTaskIncrementTick() != pdFALSE )
 8003bae:	f000 f837 	bl	8003c20 <xTaskIncrementTick>
 8003bb2:	4603      	mov	r3, r0
 8003bb4:	2b00      	cmp	r3, #0
 8003bb6:	d002      	beq.n	8003bbe <xTaskResumeAll+0xda>
							{
								xYieldPending = pdTRUE;
 8003bb8:	4b16      	ldr	r3, [pc, #88]	@ (8003c14 <xTaskResumeAll+0x130>)
 8003bba:	2201      	movs	r2, #1
 8003bbc:	601a      	str	r2, [r3, #0]
							}
							else
							{
								mtCOVERAGE_TEST_MARKER();
							}
							--xPendedCounts;
 8003bbe:	687b      	ldr	r3, [r7, #4]
 8003bc0:	3b01      	subs	r3, #1
 8003bc2:	607b      	str	r3, [r7, #4]
						} while( xPendedCounts > ( TickType_t ) 0U );
 8003bc4:	687b      	ldr	r3, [r7, #4]
 8003bc6:	2b00      	cmp	r3, #0
 8003bc8:	d1f1      	bne.n	8003bae <xTaskResumeAll+0xca>

						xPendedTicks = 0;
 8003bca:	4b13      	ldr	r3, [pc, #76]	@ (8003c18 <xTaskResumeAll+0x134>)
 8003bcc:	2200      	movs	r2, #0
 8003bce:	601a      	str	r2, [r3, #0]
					{
						mtCOVERAGE_TEST_MARKER();
					}
				}

				if( xYieldPending != pdFALSE )
 8003bd0:	4b10      	ldr	r3, [pc, #64]	@ (8003c14 <xTaskResumeAll+0x130>)
 8003bd2:	681b      	ldr	r3, [r3, #0]
 8003bd4:	2b00      	cmp	r3, #0
 8003bd6:	d009      	beq.n	8003bec <xTaskResumeAll+0x108>
				{
					#if( configUSE_PREEMPTION != 0 )
					{
						xAlreadyYielded = pdTRUE;
 8003bd8:	2301      	movs	r3, #1
 8003bda:	60bb      	str	r3, [r7, #8]
					}
					#endif
					taskYIELD_IF_USING_PREEMPTION();
 8003bdc:	4b0f      	ldr	r3, [pc, #60]	@ (8003c1c <xTaskResumeAll+0x138>)
 8003bde:	f04f 5280 	mov.w	r2, #268435456	@ 0x10000000
 8003be2:	601a      	str	r2, [r3, #0]
 8003be4:	f3bf 8f4f 	dsb	sy
 8003be8:	f3bf 8f6f 	isb	sy
		else
		{
			mtCOVERAGE_TEST_MARKER();
		}
	}
	taskEXIT_CRITICAL();
 8003bec:	f000 fbfe 	bl	80043ec <vPortExitCritical>

	return xAlreadyYielded;
 8003bf0:	68bb      	ldr	r3, [r7, #8]
}
 8003bf2:	4618      	mov	r0, r3
 8003bf4:	3710      	adds	r7, #16
 8003bf6:	46bd      	mov	sp, r7
 8003bf8:	bd80      	pop	{r7, pc}
 8003bfa:	bf00      	nop
 8003bfc:	2000048c 	.word	0x2000048c
 8003c00:	20000464 	.word	0x20000464
 8003c04:	20000424 	.word	0x20000424
 8003c08:	2000046c 	.word	0x2000046c
 8003c0c:	20000368 	.word	0x20000368
 8003c10:	20000364 	.word	0x20000364
 8003c14:	20000478 	.word	0x20000478
 8003c18:	20000474 	.word	0x20000474
 8003c1c:	e000ed04 	.word	0xe000ed04

08003c20 <xTaskIncrementTick>:

#endif /* INCLUDE_xTaskAbortDelay */
/*----------------------------------------------------------*/

BaseType_t xTaskIncrementTick( void )
{
 8003c20:	b580      	push	{r7, lr}
 8003c22:	b086      	sub	sp, #24
 8003c24:	af00      	add	r7, sp, #0
TCB_t * pxTCB;
TickType_t xItemValue;
BaseType_t xSwitchRequired = pdFALSE;
 8003c26:	2300      	movs	r3, #0
 8003c28:	617b      	str	r3, [r7, #20]

	/* Called by the portable layer each time a tick interrupt occurs.
	Increments the tick then checks to see if the new tick value will cause any
	tasks to be unblocked. */
	traceTASK_INCREMENT_TICK( xTickCount );
	if( uxSchedulerSuspended == ( UBaseType_t ) pdFALSE )
 8003c2a:	4b4f      	ldr	r3, [pc, #316]	@ (8003d68 <xTaskIncrementTick+0x148>)
 8003c2c:	681b      	ldr	r3, [r3, #0]
 8003c2e:	2b00      	cmp	r3, #0
 8003c30:	f040 808f 	bne.w	8003d52 <xTaskIncrementTick+0x132>
	{
		/* Minor optimisation.  The tick count cannot change in this
		block. */
		const TickType_t xConstTickCount = xTickCount + ( TickType_t ) 1;
 8003c34:	4b4d      	ldr	r3, [pc, #308]	@ (8003d6c <xTaskIncrementTick+0x14c>)
 8003c36:	681b      	ldr	r3, [r3, #0]
 8003c38:	3301      	adds	r3, #1
 8003c3a:	613b      	str	r3, [r7, #16]

		/* Increment the RTOS tick, switching the delayed and overflowed
		delayed lists if it wraps to 0. */
		xTickCount = xConstTickCount;
 8003c3c:	4a4b      	ldr	r2, [pc, #300]	@ (8003d6c <xTaskIncrementTick+0x14c>)
 8003c3e:	693b      	ldr	r3, [r7, #16]
 8003c40:	6013      	str	r3, [r2, #0]

		if( xConstTickCount == ( TickType_t ) 0U ) /*lint !e774 'if' does not always evaluate to false as it is looking for an overflow. */
 8003c42:	693b      	ldr	r3, [r7, #16]
 8003c44:	2b00      	cmp	r3, #0
 8003c46:	d121      	bne.n	8003c8c <xTaskIncrementTick+0x6c>
		{
			taskSWITCH_DELAYED_LISTS();
 8003c48:	4b49      	ldr	r3, [pc, #292]	@ (8003d70 <xTaskIncrementTick+0x150>)
 8003c4a:	681b      	ldr	r3, [r3, #0]
 8003c4c:	681b      	ldr	r3, [r3, #0]
 8003c4e:	2b00      	cmp	r3, #0
 8003c50:	d00b      	beq.n	8003c6a <xTaskIncrementTick+0x4a>
	__asm volatile
 8003c52:	f04f 0350 	mov.w	r3, #80	@ 0x50
 8003c56:	f383 8811 	msr	BASEPRI, r3
 8003c5a:	f3bf 8f6f 	isb	sy
 8003c5e:	f3bf 8f4f 	dsb	sy
 8003c62:	603b      	str	r3, [r7, #0]
}
 8003c64:	bf00      	nop
 8003c66:	bf00      	nop
 8003c68:	e7fd      	b.n	8003c66 <xTaskIncrementTick+0x46>
 8003c6a:	4b41      	ldr	r3, [pc, #260]	@ (8003d70 <xTaskIncrementTick+0x150>)
 8003c6c:	681b      	ldr	r3, [r3, #0]
 8003c6e:	60fb      	str	r3, [r7, #12]
 8003c70:	4b40      	ldr	r3, [pc, #256]	@ (8003d74 <xTaskIncrementTick+0x154>)
 8003c72:	681b      	ldr	r3, [r3, #0]
 8003c74:	4a3e      	ldr	r2, [pc, #248]	@ (8003d70 <xTaskIncrementTick+0x150>)
 8003c76:	6013      	str	r3, [r2, #0]
 8003c78:	4a3e      	ldr	r2, [pc, #248]	@ (8003d74 <xTaskIncrementTick+0x154>)
 8003c7a:	68fb      	ldr	r3, [r7, #12]
 8003c7c:	6013      	str	r3, [r2, #0]
 8003c7e:	4b3e      	ldr	r3, [pc, #248]	@ (8003d78 <xTaskIncrementTick+0x158>)
 8003c80:	681b      	ldr	r3, [r3, #0]
 8003c82:	3301      	adds	r3, #1
 8003c84:	4a3c      	ldr	r2, [pc, #240]	@ (8003d78 <xTaskIncrementTick+0x158>)
 8003c86:	6013      	str	r3, [r2, #0]
 8003c88:	f000 f9a6 	bl	8003fd8 <prvResetNextTaskUnblockTime>

		/* See if this tick has made a timeout expire.  Tasks are stored in
		the	queue in the order of their wake time - meaning once one task
		has been found whose block time has not expired there is no need to
		look any further down the list. */
		if( xConstTickCount >= xNextTaskUnblockTime )
 8003c8c:	4b3b      	ldr	r3, [pc, #236]	@ (8003d7c <xTaskIncrementTick+0x15c>)
 8003c8e:	681b      	ldr	r3, [r3, #0]
 8003c90:	693a      	ldr	r2, [r7, #16]
 8003c92:	429a      	cmp	r2, r3
 8003c94:	d348      	bcc.n	8003d28 <xTaskIncrementTick+0x108>
		{
			for( ;; )
			{
				if( listLIST_IS_EMPTY( pxDelayedTaskList ) != pdFALSE )
 8003c96:	4b36      	ldr	r3, [pc, #216]	@ (8003d70 <xTaskIncrementTick+0x150>)
 8003c98:	681b      	ldr	r3, [r3, #0]
 8003c9a:	681b      	ldr	r3, [r3, #0]
 8003c9c:	2b00      	cmp	r3, #0
 8003c9e:	d104      	bne.n	8003caa <xTaskIncrementTick+0x8a>
					/* The delayed list is empty.  Set xNextTaskUnblockTime
					to the maximum possible value so it is extremely
					unlikely that the
					if( xTickCount >= xNextTaskUnblockTime ) test will pass
					next time through. */
					xNextTaskUnblockTime = portMAX_DELAY; /*lint !e961 MISRA exception as the casts are only redundant for some ports. */
 8003ca0:	4b36      	ldr	r3, [pc, #216]	@ (8003d7c <xTaskIncrementTick+0x15c>)
 8003ca2:	f04f 32ff 	mov.w	r2, #4294967295
 8003ca6:	601a      	str	r2, [r3, #0]
					break;
 8003ca8:	e03e      	b.n	8003d28 <xTaskIncrementTick+0x108>
				{
					/* The delayed list is not empty, get the value of the
					item at the head of the delayed list.  This is the time
					at which the task at the head of the delayed list must
					be removed from the Blocked state. */
					pxTCB = listGET_OWNER_OF_HEAD_ENTRY( pxDelayedTaskList ); /*lint !e9079 void * is used as this macro is used with timers and co-routines too.  Alignment is known to be fine as the type of the pointer stored and retrieved is the same. */
 8003caa:	4b31      	ldr	r3, [pc, #196]	@ (8003d70 <xTaskIncrementTick+0x150>)
 8003cac:	681b      	ldr	r3, [r3, #0]
 8003cae:	68db      	ldr	r3, [r3, #12]
 8003cb0:	68db      	ldr	r3, [r3, #12]
 8003cb2:	60bb      	str	r3, [r7, #8]
					xItemValue = listGET_LIST_ITEM_VALUE( &( pxTCB->xStateListItem ) );
 8003cb4:	68bb      	ldr	r3, [r7, #8]
 8003cb6:	685b      	ldr	r3, [r3, #4]
 8003cb8:	607b      	str	r3, [r7, #4]

					if( xConstTickCount < xItemValue )
 8003cba:	693a      	ldr	r2, [r7, #16]
 8003cbc:	687b      	ldr	r3, [r7, #4]
 8003cbe:	429a      	cmp	r2, r3
 8003cc0:	d203      	bcs.n	8003cca <xTaskIncrementTick+0xaa>
						/* It is not time to unblock this item yet, but the
						item value is the time at which the task at the head
						of the blocked list must be removed from the Blocked
						state -	so record the item value in
						xNextTaskUnblockTime. */
						xNextTaskUnblockTime = xItemValue;
 8003cc2:	4a2e      	ldr	r2, [pc, #184]	@ (8003d7c <xTaskIncrementTick+0x15c>)
 8003cc4:	687b      	ldr	r3, [r7, #4]
 8003cc6:	6013      	str	r3, [r2, #0]
						break; /*lint !e9011 Code structure here is deedmed easier to understand with multiple breaks. */
 8003cc8:	e02e      	b.n	8003d28 <xTaskIncrementTick+0x108>
					{
						mtCOVERAGE_TEST_MARKER();
					}

					/* It is time to remove the item from the Blocked state. */
					( void ) uxListRemove( &( pxTCB->xStateListItem ) );
 8003cca:	68bb      	ldr	r3, [r7, #8]
 8003ccc:	3304      	adds	r3, #4
 8003cce:	4618      	mov	r0, r3
 8003cd0:	f7ff fc10 	bl	80034f4 <uxListRemove>

					/* Is the task waiting on an event also?  If so remove
					it from the event list. */
					if( listLIST_ITEM_CONTAINER( &( pxTCB->xEventListItem ) ) != NULL )
 8003cd4:	68bb      	ldr	r3, [r7, #8]
 8003cd6:	6a9b      	ldr	r3, [r3, #40]	@ 0x28
 8003cd8:	2b00      	cmp	r3, #0
 8003cda:	d004      	beq.n	8003ce6 <xTaskIncrementTick+0xc6>
					{
						( void ) uxListRemove( &( pxTCB->xEventListItem ) );
 8003cdc:	68bb      	ldr	r3, [r7, #8]
 8003cde:	3318      	adds	r3, #24
 8003ce0:	4618      	mov	r0, r3
 8003ce2:	f7ff fc07 	bl	80034f4 <uxListRemove>
						mtCOVERAGE_TEST_MARKER();
					}

					/* Place the unblocked task into the appropriate ready
					list. */
					prvAddTaskToReadyList( pxTCB );
 8003ce6:	68bb      	ldr	r3, [r7, #8]
 8003ce8:	6adb      	ldr	r3, [r3, #44]	@ 0x2c
 8003cea:	2201      	movs	r2, #1
 8003cec:	409a      	lsls	r2, r3
 8003cee:	4b24      	ldr	r3, [pc, #144]	@ (8003d80 <xTaskIncrementTick+0x160>)
 8003cf0:	681b      	ldr	r3, [r3, #0]
 8003cf2:	4313      	orrs	r3, r2
 8003cf4:	4a22      	ldr	r2, [pc, #136]	@ (8003d80 <xTaskIncrementTick+0x160>)
 8003cf6:	6013      	str	r3, [r2, #0]
 8003cf8:	68bb      	ldr	r3, [r7, #8]
 8003cfa:	6ada      	ldr	r2, [r3, #44]	@ 0x2c
 8003cfc:	4613      	mov	r3, r2
 8003cfe:	009b      	lsls	r3, r3, #2
 8003d00:	4413      	add	r3, r2
 8003d02:	009b      	lsls	r3, r3, #2
 8003d04:	4a1f      	ldr	r2, [pc, #124]	@ (8003d84 <xTaskIncrementTick+0x164>)
 8003d06:	441a      	add	r2, r3
 8003d08:	68bb      	ldr	r3, [r7, #8]
 8003d0a:	3304      	adds	r3, #4
 8003d0c:	4619      	mov	r1, r3
 8003d0e:	4610      	mov	r0, r2
 8003d10:	f7ff fb93 	bl	800343a <vListInsertEnd>
					{
						/* Preemption is on, but a context switch should
						only be performed if the unblocked task has a
						priority that is equal to or higher than the
						currently executing task. */
						if( pxTCB->uxPriority >= pxCurrentTCB->uxPriority )
 8003d14:	68bb      	ldr	r3, [r7, #8]
 8003d16:	6ada      	ldr	r2, [r3, #44]	@ 0x2c
 8003d18:	4b1b      	ldr	r3, [pc, #108]	@ (8003d88 <xTaskIncrementTick+0x168>)
 8003d1a:	681b      	ldr	r3, [r3, #0]
 8003d1c:	6adb      	ldr	r3, [r3, #44]	@ 0x2c
 8003d1e:	429a      	cmp	r2, r3
 8003d20:	d3b9      	bcc.n	8003c96 <xTaskIncrementTick+0x76>
						{
							xSwitchRequired = pdTRUE;
 8003d22:	2301      	movs	r3, #1
 8003d24:	617b      	str	r3, [r7, #20]
				if( listLIST_IS_EMPTY( pxDelayedTaskList ) != pdFALSE )
 8003d26:	e7b6      	b.n	8003c96 <xTaskIncrementTick+0x76>
		/* Tasks of equal priority to the currently running task will share
		processing time (time slice) if preemption is on, and the application
		writer has not explicitly turned time slicing off. */
		#if ( ( configUSE_PREEMPTION == 1 ) && ( configUSE_TIME_SLICING == 1 ) )
		{
			if( listCURRENT_LIST_LENGTH( &( pxReadyTasksLists[ pxCurrentTCB->uxPriority ] ) ) > ( UBaseType_t ) 1 )
 8003d28:	4b17      	ldr	r3, [pc, #92]	@ (8003d88 <xTaskIncrementTick+0x168>)
 8003d2a:	681b      	ldr	r3, [r3, #0]
 8003d2c:	6ada      	ldr	r2, [r3, #44]	@ 0x2c
 8003d2e:	4915      	ldr	r1, [pc, #84]	@ (8003d84 <xTaskIncrementTick+0x164>)
 8003d30:	4613      	mov	r3, r2
 8003d32:	009b      	lsls	r3, r3, #2
 8003d34:	4413      	add	r3, r2
 8003d36:	009b      	lsls	r3, r3, #2
 8003d38:	440b      	add	r3, r1
 8003d3a:	681b      	ldr	r3, [r3, #0]
 8003d3c:	2b01      	cmp	r3, #1
 8003d3e:	d901      	bls.n	8003d44 <xTaskIncrementTick+0x124>
			{
				xSwitchRequired = pdTRUE;
 8003d40:	2301      	movs	r3, #1
 8003d42:	617b      	str	r3, [r7, #20]
		}
		#endif /* configUSE_TICK_HOOK */

		#if ( configUSE_PREEMPTION == 1 )
		{
			if( xYieldPending != pdFALSE )
 8003d44:	4b11      	ldr	r3, [pc, #68]	@ (8003d8c <xTaskIncrementTick+0x16c>)
 8003d46:	681b      	ldr	r3, [r3, #0]
 8003d48:	2b00      	cmp	r3, #0
 8003d4a:	d007      	beq.n	8003d5c <xTaskIncrementTick+0x13c>
			{
				xSwitchRequired = pdTRUE;
 8003d4c:	2301      	movs	r3, #1
 8003d4e:	617b      	str	r3, [r7, #20]
 8003d50:	e004      	b.n	8003d5c <xTaskIncrementTick+0x13c>
		}
		#endif /* configUSE_PREEMPTION */
	}
	else
	{
		++xPendedTicks;
 8003d52:	4b0f      	ldr	r3, [pc, #60]	@ (8003d90 <xTaskIncrementTick+0x170>)
 8003d54:	681b      	ldr	r3, [r3, #0]
 8003d56:	3301      	adds	r3, #1
 8003d58:	4a0d      	ldr	r2, [pc, #52]	@ (8003d90 <xTaskIncrementTick+0x170>)
 8003d5a:	6013      	str	r3, [r2, #0]
			vApplicationTickHook();
		}
		#endif
	}

	return xSwitchRequired;
 8003d5c:	697b      	ldr	r3, [r7, #20]
}
 8003d5e:	4618      	mov	r0, r3
 8003d60:	3718      	adds	r7, #24
 8003d62:	46bd      	mov	sp, r7
 8003d64:	bd80      	pop	{r7, pc}
 8003d66:	bf00      	nop
 8003d68:	2000048c 	.word	0x2000048c
 8003d6c:	20000468 	.word	0x20000468
 8003d70:	2000041c 	.word	0x2000041c
 8003d74:	20000420 	.word	0x20000420
 8003d78:	2000047c 	.word	0x2000047c
 8003d7c:	20000484 	.word	0x20000484
 8003d80:	2000046c 	.word	0x2000046c
 8003d84:	20000368 	.word	0x20000368
 8003d88:	20000364 	.word	0x20000364
 8003d8c:	20000478 	.word	0x20000478
 8003d90:	20000474 	.word	0x20000474

08003d94 <vTaskSwitchContext>:

#endif /* configUSE_APPLICATION_TASK_TAG */
/*-----------------------------------------------------------*/

void vTaskSwitchContext( void )
{
 8003d94:	b580      	push	{r7, lr}
 8003d96:	b086      	sub	sp, #24
 8003d98:	af00      	add	r7, sp, #0
	if( uxSchedulerSuspended != ( UBaseType_t ) pdFALSE )
 8003d9a:	4b2f      	ldr	r3, [pc, #188]	@ (8003e58 <vTaskSwitchContext+0xc4>)
 8003d9c:	681b      	ldr	r3, [r3, #0]
 8003d9e:	2b00      	cmp	r3, #0
 8003da0:	d003      	beq.n	8003daa <vTaskSwitchContext+0x16>
	{
		/* The scheduler is currently suspended - do not allow a context
		switch. */
		xYieldPending = pdTRUE;
 8003da2:	4b2e      	ldr	r3, [pc, #184]	@ (8003e5c <vTaskSwitchContext+0xc8>)
 8003da4:	2201      	movs	r2, #1
 8003da6:	601a      	str	r2, [r3, #0]
			for additional information. */
			_impure_ptr = &( pxCurrentTCB->xNewLib_reent );
		}
		#endif /* configUSE_NEWLIB_REENTRANT */
	}
}
 8003da8:	e051      	b.n	8003e4e <vTaskSwitchContext+0xba>
		xYieldPending = pdFALSE;
 8003daa:	4b2c      	ldr	r3, [pc, #176]	@ (8003e5c <vTaskSwitchContext+0xc8>)
 8003dac:	2200      	movs	r2, #0
 8003dae:	601a      	str	r2, [r3, #0]
		taskCHECK_FOR_STACK_OVERFLOW();
 8003db0:	4b2b      	ldr	r3, [pc, #172]	@ (8003e60 <vTaskSwitchContext+0xcc>)
 8003db2:	681b      	ldr	r3, [r3, #0]
 8003db4:	681a      	ldr	r2, [r3, #0]
 8003db6:	4b2a      	ldr	r3, [pc, #168]	@ (8003e60 <vTaskSwitchContext+0xcc>)
 8003db8:	681b      	ldr	r3, [r3, #0]
 8003dba:	6b1b      	ldr	r3, [r3, #48]	@ 0x30
 8003dbc:	429a      	cmp	r2, r3
 8003dbe:	d808      	bhi.n	8003dd2 <vTaskSwitchContext+0x3e>
 8003dc0:	4b27      	ldr	r3, [pc, #156]	@ (8003e60 <vTaskSwitchContext+0xcc>)
 8003dc2:	681a      	ldr	r2, [r3, #0]
 8003dc4:	4b26      	ldr	r3, [pc, #152]	@ (8003e60 <vTaskSwitchContext+0xcc>)
 8003dc6:	681b      	ldr	r3, [r3, #0]
 8003dc8:	3334      	adds	r3, #52	@ 0x34
 8003dca:	4619      	mov	r1, r3
 8003dcc:	4610      	mov	r0, r2
 8003dce:	f7fc fc07 	bl	80005e0 <vApplicationStackOverflowHook>
		taskSELECT_HIGHEST_PRIORITY_TASK(); /*lint !e9079 void * is used as this macro is used with timers and co-routines too.  Alignment is known to be fine as the type of the pointer stored and retrieved is the same. */
 8003dd2:	4b24      	ldr	r3, [pc, #144]	@ (8003e64 <vTaskSwitchContext+0xd0>)
 8003dd4:	681b      	ldr	r3, [r3, #0]
 8003dd6:	60fb      	str	r3, [r7, #12]
		__asm volatile ( "clz %0, %1" : "=r" ( ucReturn ) : "r" ( ulBitmap ) : "memory" );
 8003dd8:	68fb      	ldr	r3, [r7, #12]
 8003dda:	fab3 f383 	clz	r3, r3
 8003dde:	72fb      	strb	r3, [r7, #11]
		return ucReturn;
 8003de0:	7afb      	ldrb	r3, [r7, #11]
 8003de2:	f1c3 031f 	rsb	r3, r3, #31
 8003de6:	617b      	str	r3, [r7, #20]
 8003de8:	491f      	ldr	r1, [pc, #124]	@ (8003e68 <vTaskSwitchContext+0xd4>)
 8003dea:	697a      	ldr	r2, [r7, #20]
 8003dec:	4613      	mov	r3, r2
 8003dee:	009b      	lsls	r3, r3, #2
 8003df0:	4413      	add	r3, r2
 8003df2:	009b      	lsls	r3, r3, #2
 8003df4:	440b      	add	r3, r1
 8003df6:	681b      	ldr	r3, [r3, #0]
 8003df8:	2b00      	cmp	r3, #0
 8003dfa:	d10b      	bne.n	8003e14 <vTaskSwitchContext+0x80>
	__asm volatile
 8003dfc:	f04f 0350 	mov.w	r3, #80	@ 0x50
 8003e00:	f383 8811 	msr	BASEPRI, r3
 8003e04:	f3bf 8f6f 	isb	sy
 8003e08:	f3bf 8f4f 	dsb	sy
 8003e0c:	607b      	str	r3, [r7, #4]
}
 8003e0e:	bf00      	nop
 8003e10:	bf00      	nop
 8003e12:	e7fd      	b.n	8003e10 <vTaskSwitchContext+0x7c>
 8003e14:	697a      	ldr	r2, [r7, #20]
 8003e16:	4613      	mov	r3, r2
 8003e18:	009b      	lsls	r3, r3, #2
 8003e1a:	4413      	add	r3, r2
 8003e1c:	009b      	lsls	r3, r3, #2
 8003e1e:	4a12      	ldr	r2, [pc, #72]	@ (8003e68 <vTaskSwitchContext+0xd4>)
 8003e20:	4413      	add	r3, r2
 8003e22:	613b      	str	r3, [r7, #16]
 8003e24:	693b      	ldr	r3, [r7, #16]
 8003e26:	685b      	ldr	r3, [r3, #4]
 8003e28:	685a      	ldr	r2, [r3, #4]
 8003e2a:	693b      	ldr	r3, [r7, #16]
 8003e2c:	605a      	str	r2, [r3, #4]
 8003e2e:	693b      	ldr	r3, [r7, #16]
 8003e30:	685a      	ldr	r2, [r3, #4]
 8003e32:	693b      	ldr	r3, [r7, #16]
 8003e34:	3308      	adds	r3, #8
 8003e36:	429a      	cmp	r2, r3
 8003e38:	d104      	bne.n	8003e44 <vTaskSwitchContext+0xb0>
 8003e3a:	693b      	ldr	r3, [r7, #16]
 8003e3c:	685b      	ldr	r3, [r3, #4]
 8003e3e:	685a      	ldr	r2, [r3, #4]
 8003e40:	693b      	ldr	r3, [r7, #16]
 8003e42:	605a      	str	r2, [r3, #4]
 8003e44:	693b      	ldr	r3, [r7, #16]
 8003e46:	685b      	ldr	r3, [r3, #4]
 8003e48:	68db      	ldr	r3, [r3, #12]
 8003e4a:	4a05      	ldr	r2, [pc, #20]	@ (8003e60 <vTaskSwitchContext+0xcc>)
 8003e4c:	6013      	str	r3, [r2, #0]
}
 8003e4e:	bf00      	nop
 8003e50:	3718      	adds	r7, #24
 8003e52:	46bd      	mov	sp, r7
 8003e54:	bd80      	pop	{r7, pc}
 8003e56:	bf00      	nop
 8003e58:	2000048c 	.word	0x2000048c
 8003e5c:	20000478 	.word	0x20000478
 8003e60:	20000364 	.word	0x20000364
 8003e64:	2000046c 	.word	0x2000046c
 8003e68:	20000368 	.word	0x20000368

08003e6c <prvIdleTask>:
 *
 * void prvIdleTask( void *pvParameters );
 *
 */
static portTASK_FUNCTION( prvIdleTask, pvParameters )
{
 8003e6c:	b580      	push	{r7, lr}
 8003e6e:	b082      	sub	sp, #8
 8003e70:	af00      	add	r7, sp, #0
 8003e72:	6078      	str	r0, [r7, #4]

	for( ;; )
	{
		/* See if any tasks have deleted themselves - if so then the idle task
		is responsible for freeing the deleted task's TCB and stack. */
		prvCheckTasksWaitingTermination();
 8003e74:	f000 f852 	bl	8003f1c <prvCheckTasksWaitingTermination>

			A critical region is not required here as we are just reading from
			the list, and an occasional incorrect value will not matter.  If
			the ready list at the idle priority contains more than one task
			then a task other than the idle task is ready to execute. */
			if( listCURRENT_LIST_LENGTH( &( pxReadyTasksLists[ tskIDLE_PRIORITY ] ) ) > ( UBaseType_t ) 1 )
 8003e78:	4b06      	ldr	r3, [pc, #24]	@ (8003e94 <prvIdleTask+0x28>)
 8003e7a:	681b      	ldr	r3, [r3, #0]
 8003e7c:	2b01      	cmp	r3, #1
 8003e7e:	d9f9      	bls.n	8003e74 <prvIdleTask+0x8>
			{
				taskYIELD();
 8003e80:	4b05      	ldr	r3, [pc, #20]	@ (8003e98 <prvIdleTask+0x2c>)
 8003e82:	f04f 5280 	mov.w	r2, #268435456	@ 0x10000000
 8003e86:	601a      	str	r2, [r3, #0]
 8003e88:	f3bf 8f4f 	dsb	sy
 8003e8c:	f3bf 8f6f 	isb	sy
		prvCheckTasksWaitingTermination();
 8003e90:	e7f0      	b.n	8003e74 <prvIdleTask+0x8>
 8003e92:	bf00      	nop
 8003e94:	20000368 	.word	0x20000368
 8003e98:	e000ed04 	.word	0xe000ed04

08003e9c <prvInitialiseTaskLists>:

#endif /* portUSING_MPU_WRAPPERS */
/*-----------------------------------------------------------*/

static void prvInitialiseTaskLists( void )
{
 8003e9c:	b580      	push	{r7, lr}
 8003e9e:	b082      	sub	sp, #8
 8003ea0:	af00      	add	r7, sp, #0
UBaseType_t uxPriority;

	for( uxPriority = ( UBaseType_t ) 0U; uxPriority < ( UBaseType_t ) configMAX_PRIORITIES; uxPriority++ )
 8003ea2:	2300      	movs	r3, #0
 8003ea4:	607b      	str	r3, [r7, #4]
 8003ea6:	e00c      	b.n	8003ec2 <prvInitialiseTaskLists+0x26>
	{
		vListInitialise( &( pxReadyTasksLists[ uxPriority ] ) );
 8003ea8:	687a      	ldr	r2, [r7, #4]
 8003eaa:	4613      	mov	r3, r2
 8003eac:	009b      	lsls	r3, r3, #2
 8003eae:	4413      	add	r3, r2
 8003eb0:	009b      	lsls	r3, r3, #2
 8003eb2:	4a12      	ldr	r2, [pc, #72]	@ (8003efc <prvInitialiseTaskLists+0x60>)
 8003eb4:	4413      	add	r3, r2
 8003eb6:	4618      	mov	r0, r3
 8003eb8:	f7ff fa92 	bl	80033e0 <vListInitialise>
	for( uxPriority = ( UBaseType_t ) 0U; uxPriority < ( UBaseType_t ) configMAX_PRIORITIES; uxPriority++ )
 8003ebc:	687b      	ldr	r3, [r7, #4]
 8003ebe:	3301      	adds	r3, #1
 8003ec0:	607b      	str	r3, [r7, #4]
 8003ec2:	687b      	ldr	r3, [r7, #4]
 8003ec4:	2b06      	cmp	r3, #6
 8003ec6:	d9ef      	bls.n	8003ea8 <prvInitialiseTaskLists+0xc>
	}

	vListInitialise( &xDelayedTaskList1 );
 8003ec8:	480d      	ldr	r0, [pc, #52]	@ (8003f00 <prvInitialiseTaskLists+0x64>)
 8003eca:	f7ff fa89 	bl	80033e0 <vListInitialise>
	vListInitialise( &xDelayedTaskList2 );
 8003ece:	480d      	ldr	r0, [pc, #52]	@ (8003f04 <prvInitialiseTaskLists+0x68>)
 8003ed0:	f7ff fa86 	bl	80033e0 <vListInitialise>
	vListInitialise( &xPendingReadyList );
 8003ed4:	480c      	ldr	r0, [pc, #48]	@ (8003f08 <prvInitialiseTaskLists+0x6c>)
 8003ed6:	f7ff fa83 	bl	80033e0 <vListInitialise>

	#if ( INCLUDE_vTaskDelete == 1 )
	{
		vListInitialise( &xTasksWaitingTermination );
 8003eda:	480c      	ldr	r0, [pc, #48]	@ (8003f0c <prvInitialiseTaskLists+0x70>)
 8003edc:	f7ff fa80 	bl	80033e0 <vListInitialise>
	}
	#endif /* INCLUDE_vTaskDelete */

	#if ( INCLUDE_vTaskSuspend == 1 )
	{
		vListInitialise( &xSuspendedTaskList );
 8003ee0:	480b      	ldr	r0, [pc, #44]	@ (8003f10 <prvInitialiseTaskLists+0x74>)
 8003ee2:	f7ff fa7d 	bl	80033e0 <vListInitialise>
	}
	#endif /* INCLUDE_vTaskSuspend */

	/* Start with pxDelayedTaskList using list1 and the pxOverflowDelayedTaskList
	using list2. */
	pxDelayedTaskList = &xDelayedTaskList1;
 8003ee6:	4b0b      	ldr	r3, [pc, #44]	@ (8003f14 <prvInitialiseTaskLists+0x78>)
 8003ee8:	4a05      	ldr	r2, [pc, #20]	@ (8003f00 <prvInitialiseTaskLists+0x64>)
 8003eea:	601a      	str	r2, [r3, #0]
	pxOverflowDelayedTaskList = &xDelayedTaskList2;
 8003eec:	4b0a      	ldr	r3, [pc, #40]	@ (8003f18 <prvInitialiseTaskLists+0x7c>)
 8003eee:	4a05      	ldr	r2, [pc, #20]	@ (8003f04 <prvInitialiseTaskLists+0x68>)
 8003ef0:	601a      	str	r2, [r3, #0]
}
 8003ef2:	bf00      	nop
 8003ef4:	3708      	adds	r7, #8
 8003ef6:	46bd      	mov	sp, r7
 8003ef8:	bd80      	pop	{r7, pc}
 8003efa:	bf00      	nop
 8003efc:	20000368 	.word	0x20000368
 8003f00:	200003f4 	.word	0x200003f4
 8003f04:	20000408 	.word	0x20000408
 8003f08:	20000424 	.word	0x20000424
 8003f0c:	20000438 	.word	0x20000438
 8003f10:	20000450 	.word	0x20000450
 8003f14:	2000041c 	.word	0x2000041c
 8003f18:	20000420 	.word	0x20000420

08003f1c <prvCheckTasksWaitingTermination>:
/*-----------------------------------------------------------*/

static void prvCheckTasksWaitingTermination( void )
{
 8003f1c:	b580      	push	{r7, lr}
 8003f1e:	b082      	sub	sp, #8
 8003f20:	af00      	add	r7, sp, #0
	{
		TCB_t *pxTCB;

		/* uxDeletedTasksWaitingCleanUp is used to prevent taskENTER_CRITICAL()
		being called too often in the idle task. */
		while( uxDeletedTasksWaitingCleanUp > ( UBaseType_t ) 0U )
 8003f22:	e019      	b.n	8003f58 <prvCheckTasksWaitingTermination+0x3c>
		{
			taskENTER_CRITICAL();
 8003f24:	f000 fa30 	bl	8004388 <vPortEnterCritical>
			{
				pxTCB = listGET_OWNER_OF_HEAD_ENTRY( ( &xTasksWaitingTermination ) ); /*lint !e9079 void * is used as this macro is used with timers and co-routines too.  Alignment is known to be fine as the type of the pointer stored and retrieved is the same. */
 8003f28:	4b10      	ldr	r3, [pc, #64]	@ (8003f6c <prvCheckTasksWaitingTermination+0x50>)
 8003f2a:	68db      	ldr	r3, [r3, #12]
 8003f2c:	68db      	ldr	r3, [r3, #12]
 8003f2e:	607b      	str	r3, [r7, #4]
				( void ) uxListRemove( &( pxTCB->xStateListItem ) );
 8003f30:	687b      	ldr	r3, [r7, #4]
 8003f32:	3304      	adds	r3, #4
 8003f34:	4618      	mov	r0, r3
 8003f36:	f7ff fadd 	bl	80034f4 <uxListRemove>
				--uxCurrentNumberOfTasks;
 8003f3a:	4b0d      	ldr	r3, [pc, #52]	@ (8003f70 <prvCheckTasksWaitingTermination+0x54>)
 8003f3c:	681b      	ldr	r3, [r3, #0]
 8003f3e:	3b01      	subs	r3, #1
 8003f40:	4a0b      	ldr	r2, [pc, #44]	@ (8003f70 <prvCheckTasksWaitingTermination+0x54>)
 8003f42:	6013      	str	r3, [r2, #0]
				--uxDeletedTasksWaitingCleanUp;
 8003f44:	4b0b      	ldr	r3, [pc, #44]	@ (8003f74 <prvCheckTasksWaitingTermination+0x58>)
 8003f46:	681b      	ldr	r3, [r3, #0]
 8003f48:	3b01      	subs	r3, #1
 8003f4a:	4a0a      	ldr	r2, [pc, #40]	@ (8003f74 <prvCheckTasksWaitingTermination+0x58>)
 8003f4c:	6013      	str	r3, [r2, #0]
			}
			taskEXIT_CRITICAL();
 8003f4e:	f000 fa4d 	bl	80043ec <vPortExitCritical>

			prvDeleteTCB( pxTCB );
 8003f52:	6878      	ldr	r0, [r7, #4]
 8003f54:	f000 f810 	bl	8003f78 <prvDeleteTCB>
		while( uxDeletedTasksWaitingCleanUp > ( UBaseType_t ) 0U )
 8003f58:	4b06      	ldr	r3, [pc, #24]	@ (8003f74 <prvCheckTasksWaitingTermination+0x58>)
 8003f5a:	681b      	ldr	r3, [r3, #0]
 8003f5c:	2b00      	cmp	r3, #0
 8003f5e:	d1e1      	bne.n	8003f24 <prvCheckTasksWaitingTermination+0x8>
		}
	}
	#endif /* INCLUDE_vTaskDelete */
}
 8003f60:	bf00      	nop
 8003f62:	bf00      	nop
 8003f64:	3708      	adds	r7, #8
 8003f66:	46bd      	mov	sp, r7
 8003f68:	bd80      	pop	{r7, pc}
 8003f6a:	bf00      	nop
 8003f6c:	20000438 	.word	0x20000438
 8003f70:	20000464 	.word	0x20000464
 8003f74:	2000044c 	.word	0x2000044c

08003f78 <prvDeleteTCB>:
/*-----------------------------------------------------------*/

#if ( INCLUDE_vTaskDelete == 1 )

	static void prvDeleteTCB( TCB_t *pxTCB )
	{
 8003f78:	b580      	push	{r7, lr}
 8003f7a:	b084      	sub	sp, #16
 8003f7c:	af00      	add	r7, sp, #0
 8003f7e:	6078      	str	r0, [r7, #4]
		#elif( tskSTATIC_AND_DYNAMIC_ALLOCATION_POSSIBLE != 0 ) /*lint !e731 !e9029 Macro has been consolidated for readability reasons. */
		{
			/* The task could have been allocated statically or dynamically, so
			check what was statically allocated before trying to free the
			memory. */
			if( pxTCB->ucStaticallyAllocated == tskDYNAMICALLY_ALLOCATED_STACK_AND_TCB )
 8003f80:	687b      	ldr	r3, [r7, #4]
 8003f82:	f893 3051 	ldrb.w	r3, [r3, #81]	@ 0x51
 8003f86:	2b00      	cmp	r3, #0
 8003f88:	d108      	bne.n	8003f9c <prvDeleteTCB+0x24>
			{
				/* Both the stack and TCB were allocated dynamically, so both
				must be freed. */
				vPortFree( pxTCB->pxStack );
 8003f8a:	687b      	ldr	r3, [r7, #4]
 8003f8c:	6b1b      	ldr	r3, [r3, #48]	@ 0x30
 8003f8e:	4618      	mov	r0, r3
 8003f90:	f000 fba8 	bl	80046e4 <vPortFree>
				vPortFree( pxTCB );
 8003f94:	6878      	ldr	r0, [r7, #4]
 8003f96:	f000 fba5 	bl	80046e4 <vPortFree>
				configASSERT( pxTCB->ucStaticallyAllocated == tskSTATICALLY_ALLOCATED_STACK_AND_TCB	);
				mtCOVERAGE_TEST_MARKER();
			}
		}
		#endif /* configSUPPORT_DYNAMIC_ALLOCATION */
	}
 8003f9a:	e019      	b.n	8003fd0 <prvDeleteTCB+0x58>
			else if( pxTCB->ucStaticallyAllocated == tskSTATICALLY_ALLOCATED_STACK_ONLY )
 8003f9c:	687b      	ldr	r3, [r7, #4]
 8003f9e:	f893 3051 	ldrb.w	r3, [r3, #81]	@ 0x51
 8003fa2:	2b01      	cmp	r3, #1
 8003fa4:	d103      	bne.n	8003fae <prvDeleteTCB+0x36>
				vPortFree( pxTCB );
 8003fa6:	6878      	ldr	r0, [r7, #4]
 8003fa8:	f000 fb9c 	bl	80046e4 <vPortFree>
	}
 8003fac:	e010      	b.n	8003fd0 <prvDeleteTCB+0x58>
				configASSERT( pxTCB->ucStaticallyAllocated == tskSTATICALLY_ALLOCATED_STACK_AND_TCB	);
 8003fae:	687b      	ldr	r3, [r7, #4]
 8003fb0:	f893 3051 	ldrb.w	r3, [r3, #81]	@ 0x51
 8003fb4:	2b02      	cmp	r3, #2
 8003fb6:	d00b      	beq.n	8003fd0 <prvDeleteTCB+0x58>
	__asm volatile
 8003fb8:	f04f 0350 	mov.w	r3, #80	@ 0x50
 8003fbc:	f383 8811 	msr	BASEPRI, r3
 8003fc0:	f3bf 8f6f 	isb	sy
 8003fc4:	f3bf 8f4f 	dsb	sy
 8003fc8:	60fb      	str	r3, [r7, #12]
}
 8003fca:	bf00      	nop
 8003fcc:	bf00      	nop
 8003fce:	e7fd      	b.n	8003fcc <prvDeleteTCB+0x54>
	}
 8003fd0:	bf00      	nop
 8003fd2:	3710      	adds	r7, #16
 8003fd4:	46bd      	mov	sp, r7
 8003fd6:	bd80      	pop	{r7, pc}

08003fd8 <prvResetNextTaskUnblockTime>:

#endif /* INCLUDE_vTaskDelete */
/*-----------------------------------------------------------*/

static void prvResetNextTaskUnblockTime( void )
{
 8003fd8:	b480      	push	{r7}
 8003fda:	b083      	sub	sp, #12
 8003fdc:	af00      	add	r7, sp, #0
TCB_t *pxTCB;

	if( listLIST_IS_EMPTY( pxDelayedTaskList ) != pdFALSE )
 8003fde:	4b0c      	ldr	r3, [pc, #48]	@ (8004010 <prvResetNextTaskUnblockTime+0x38>)
 8003fe0:	681b      	ldr	r3, [r3, #0]
 8003fe2:	681b      	ldr	r3, [r3, #0]
 8003fe4:	2b00      	cmp	r3, #0
 8003fe6:	d104      	bne.n	8003ff2 <prvResetNextTaskUnblockTime+0x1a>
	{
		/* The new current delayed list is empty.  Set xNextTaskUnblockTime to
		the maximum possible value so it is	extremely unlikely that the
		if( xTickCount >= xNextTaskUnblockTime ) test will pass until
		there is an item in the delayed list. */
		xNextTaskUnblockTime = portMAX_DELAY;
 8003fe8:	4b0a      	ldr	r3, [pc, #40]	@ (8004014 <prvResetNextTaskUnblockTime+0x3c>)
 8003fea:	f04f 32ff 	mov.w	r2, #4294967295
 8003fee:	601a      	str	r2, [r3, #0]
		which the task at the head of the delayed list should be removed
		from the Blocked state. */
		( pxTCB ) = listGET_OWNER_OF_HEAD_ENTRY( pxDelayedTaskList ); /*lint !e9079 void * is used as this macro is used with timers and co-routines too.  Alignment is known to be fine as the type of the pointer stored and retrieved is the same. */
		xNextTaskUnblockTime = listGET_LIST_ITEM_VALUE( &( ( pxTCB )->xStateListItem ) );
	}
}
 8003ff0:	e008      	b.n	8004004 <prvResetNextTaskUnblockTime+0x2c>
		( pxTCB ) = listGET_OWNER_OF_HEAD_ENTRY( pxDelayedTaskList ); /*lint !e9079 void * is used as this macro is used with timers and co-routines too.  Alignment is known to be fine as the type of the pointer stored and retrieved is the same. */
 8003ff2:	4b07      	ldr	r3, [pc, #28]	@ (8004010 <prvResetNextTaskUnblockTime+0x38>)
 8003ff4:	681b      	ldr	r3, [r3, #0]
 8003ff6:	68db      	ldr	r3, [r3, #12]
 8003ff8:	68db      	ldr	r3, [r3, #12]
 8003ffa:	607b      	str	r3, [r7, #4]
		xNextTaskUnblockTime = listGET_LIST_ITEM_VALUE( &( ( pxTCB )->xStateListItem ) );
 8003ffc:	687b      	ldr	r3, [r7, #4]
 8003ffe:	685b      	ldr	r3, [r3, #4]
 8004000:	4a04      	ldr	r2, [pc, #16]	@ (8004014 <prvResetNextTaskUnblockTime+0x3c>)
 8004002:	6013      	str	r3, [r2, #0]
}
 8004004:	bf00      	nop
 8004006:	370c      	adds	r7, #12
 8004008:	46bd      	mov	sp, r7
 800400a:	f85d 7b04 	ldr.w	r7, [sp], #4
 800400e:	4770      	bx	lr
 8004010:	2000041c 	.word	0x2000041c
 8004014:	20000484 	.word	0x20000484

08004018 <xTaskGetSchedulerState>:
/*-----------------------------------------------------------*/

#if ( ( INCLUDE_xTaskGetSchedulerState == 1 ) || ( configUSE_TIMERS == 1 ) )

	BaseType_t xTaskGetSchedulerState( void )
	{
 8004018:	b480      	push	{r7}
 800401a:	b083      	sub	sp, #12
 800401c:	af00      	add	r7, sp, #0
	BaseType_t xReturn;

		if( xSchedulerRunning == pdFALSE )
 800401e:	4b0b      	ldr	r3, [pc, #44]	@ (800404c <xTaskGetSchedulerState+0x34>)
 8004020:	681b      	ldr	r3, [r3, #0]
 8004022:	2b00      	cmp	r3, #0
 8004024:	d102      	bne.n	800402c <xTaskGetSchedulerState+0x14>
		{
			xReturn = taskSCHEDULER_NOT_STARTED;
 8004026:	2301      	movs	r3, #1
 8004028:	607b      	str	r3, [r7, #4]
 800402a:	e008      	b.n	800403e <xTaskGetSchedulerState+0x26>
		}
		else
		{
			if( uxSchedulerSuspended == ( UBaseType_t ) pdFALSE )
 800402c:	4b08      	ldr	r3, [pc, #32]	@ (8004050 <xTaskGetSchedulerState+0x38>)
 800402e:	681b      	ldr	r3, [r3, #0]
 8004030:	2b00      	cmp	r3, #0
 8004032:	d102      	bne.n	800403a <xTaskGetSchedulerState+0x22>
			{
				xReturn = taskSCHEDULER_RUNNING;
 8004034:	2302      	movs	r3, #2
 8004036:	607b      	str	r3, [r7, #4]
 8004038:	e001      	b.n	800403e <xTaskGetSchedulerState+0x26>
			}
			else
			{
				xReturn = taskSCHEDULER_SUSPENDED;
 800403a:	2300      	movs	r3, #0
 800403c:	607b      	str	r3, [r7, #4]
			}
		}

		return xReturn;
 800403e:	687b      	ldr	r3, [r7, #4]
	}
 8004040:	4618      	mov	r0, r3
 8004042:	370c      	adds	r7, #12
 8004044:	46bd      	mov	sp, r7
 8004046:	f85d 7b04 	ldr.w	r7, [sp], #4
 800404a:	4770      	bx	lr
 800404c:	20000470 	.word	0x20000470
 8004050:	2000048c 	.word	0x2000048c

08004054 <prvAddCurrentTaskToDelayedList>:

#endif
/*-----------------------------------------------------------*/

static void prvAddCurrentTaskToDelayedList( TickType_t xTicksToWait, const BaseType_t xCanBlockIndefinitely )
{
 8004054:	b580      	push	{r7, lr}
 8004056:	b084      	sub	sp, #16
 8004058:	af00      	add	r7, sp, #0
 800405a:	6078      	str	r0, [r7, #4]
 800405c:	6039      	str	r1, [r7, #0]
TickType_t xTimeToWake;
const TickType_t xConstTickCount = xTickCount;
 800405e:	4b29      	ldr	r3, [pc, #164]	@ (8004104 <prvAddCurrentTaskToDelayedList+0xb0>)
 8004060:	681b      	ldr	r3, [r3, #0]
 8004062:	60fb      	str	r3, [r7, #12]
	}
	#endif

	/* Remove the task from the ready list before adding it to the blocked list
	as the same list item is used for both lists. */
	if( uxListRemove( &( pxCurrentTCB->xStateListItem ) ) == ( UBaseType_t ) 0 )
 8004064:	4b28      	ldr	r3, [pc, #160]	@ (8004108 <prvAddCurrentTaskToDelayedList+0xb4>)
 8004066:	681b      	ldr	r3, [r3, #0]
 8004068:	3304      	adds	r3, #4
 800406a:	4618      	mov	r0, r3
 800406c:	f7ff fa42 	bl	80034f4 <uxListRemove>
 8004070:	4603      	mov	r3, r0
 8004072:	2b00      	cmp	r3, #0
 8004074:	d10b      	bne.n	800408e <prvAddCurrentTaskToDelayedList+0x3a>
	{
		/* The current task must be in a ready list, so there is no need to
		check, and the port reset macro can be called directly. */
		portRESET_READY_PRIORITY( pxCurrentTCB->uxPriority, uxTopReadyPriority ); /*lint !e931 pxCurrentTCB cannot change as it is the calling task.  pxCurrentTCB->uxPriority and uxTopReadyPriority cannot change as called with scheduler suspended or in a critical section. */
 8004076:	4b24      	ldr	r3, [pc, #144]	@ (8004108 <prvAddCurrentTaskToDelayedList+0xb4>)
 8004078:	681b      	ldr	r3, [r3, #0]
 800407a:	6adb      	ldr	r3, [r3, #44]	@ 0x2c
 800407c:	2201      	movs	r2, #1
 800407e:	fa02 f303 	lsl.w	r3, r2, r3
 8004082:	43da      	mvns	r2, r3
 8004084:	4b21      	ldr	r3, [pc, #132]	@ (800410c <prvAddCurrentTaskToDelayedList+0xb8>)
 8004086:	681b      	ldr	r3, [r3, #0]
 8004088:	4013      	ands	r3, r2
 800408a:	4a20      	ldr	r2, [pc, #128]	@ (800410c <prvAddCurrentTaskToDelayedList+0xb8>)
 800408c:	6013      	str	r3, [r2, #0]
		mtCOVERAGE_TEST_MARKER();
	}

	#if ( INCLUDE_vTaskSuspend == 1 )
	{
		if( ( xTicksToWait == portMAX_DELAY ) && ( xCanBlockIndefinitely != pdFALSE ) )
 800408e:	687b      	ldr	r3, [r7, #4]
 8004090:	f1b3 3fff 	cmp.w	r3, #4294967295
 8004094:	d10a      	bne.n	80040ac <prvAddCurrentTaskToDelayedList+0x58>
 8004096:	683b      	ldr	r3, [r7, #0]
 8004098:	2b00      	cmp	r3, #0
 800409a:	d007      	beq.n	80040ac <prvAddCurrentTaskToDelayedList+0x58>
		{
			/* Add the task to the suspended task list instead of a delayed task
			list to ensure it is not woken by a timing event.  It will block
			indefinitely. */
			vListInsertEnd( &xSuspendedTaskList, &( pxCurrentTCB->xStateListItem ) );
 800409c:	4b1a      	ldr	r3, [pc, #104]	@ (8004108 <prvAddCurrentTaskToDelayedList+0xb4>)
 800409e:	681b      	ldr	r3, [r3, #0]
 80040a0:	3304      	adds	r3, #4
 80040a2:	4619      	mov	r1, r3
 80040a4:	481a      	ldr	r0, [pc, #104]	@ (8004110 <prvAddCurrentTaskToDelayedList+0xbc>)
 80040a6:	f7ff f9c8 	bl	800343a <vListInsertEnd>

		/* Avoid compiler warning when INCLUDE_vTaskSuspend is not 1. */
		( void ) xCanBlockIndefinitely;
	}
	#endif /* INCLUDE_vTaskSuspend */
}
 80040aa:	e026      	b.n	80040fa <prvAddCurrentTaskToDelayedList+0xa6>
			xTimeToWake = xConstTickCount + xTicksToWait;
 80040ac:	68fa      	ldr	r2, [r7, #12]
 80040ae:	687b      	ldr	r3, [r7, #4]
 80040b0:	4413      	add	r3, r2
 80040b2:	60bb      	str	r3, [r7, #8]
			listSET_LIST_ITEM_VALUE( &( pxCurrentTCB->xStateListItem ), xTimeToWake );
 80040b4:	4b14      	ldr	r3, [pc, #80]	@ (8004108 <prvAddCurrentTaskToDelayedList+0xb4>)
 80040b6:	681b      	ldr	r3, [r3, #0]
 80040b8:	68ba      	ldr	r2, [r7, #8]
 80040ba:	605a      	str	r2, [r3, #4]
			if( xTimeToWake < xConstTickCount )
 80040bc:	68ba      	ldr	r2, [r7, #8]
 80040be:	68fb      	ldr	r3, [r7, #12]
 80040c0:	429a      	cmp	r2, r3
 80040c2:	d209      	bcs.n	80040d8 <prvAddCurrentTaskToDelayedList+0x84>
				vListInsert( pxOverflowDelayedTaskList, &( pxCurrentTCB->xStateListItem ) );
 80040c4:	4b13      	ldr	r3, [pc, #76]	@ (8004114 <prvAddCurrentTaskToDelayedList+0xc0>)
 80040c6:	681a      	ldr	r2, [r3, #0]
 80040c8:	4b0f      	ldr	r3, [pc, #60]	@ (8004108 <prvAddCurrentTaskToDelayedList+0xb4>)
 80040ca:	681b      	ldr	r3, [r3, #0]
 80040cc:	3304      	adds	r3, #4
 80040ce:	4619      	mov	r1, r3
 80040d0:	4610      	mov	r0, r2
 80040d2:	f7ff f9d6 	bl	8003482 <vListInsert>
}
 80040d6:	e010      	b.n	80040fa <prvAddCurrentTaskToDelayedList+0xa6>
				vListInsert( pxDelayedTaskList, &( pxCurrentTCB->xStateListItem ) );
 80040d8:	4b0f      	ldr	r3, [pc, #60]	@ (8004118 <prvAddCurrentTaskToDelayedList+0xc4>)
 80040da:	681a      	ldr	r2, [r3, #0]
 80040dc:	4b0a      	ldr	r3, [pc, #40]	@ (8004108 <prvAddCurrentTaskToDelayedList+0xb4>)
 80040de:	681b      	ldr	r3, [r3, #0]
 80040e0:	3304      	adds	r3, #4
 80040e2:	4619      	mov	r1, r3
 80040e4:	4610      	mov	r0, r2
 80040e6:	f7ff f9cc 	bl	8003482 <vListInsert>
				if( xTimeToWake < xNextTaskUnblockTime )
 80040ea:	4b0c      	ldr	r3, [pc, #48]	@ (800411c <prvAddCurrentTaskToDelayedList+0xc8>)
 80040ec:	681b      	ldr	r3, [r3, #0]
 80040ee:	68ba      	ldr	r2, [r7, #8]
 80040f0:	429a      	cmp	r2, r3
 80040f2:	d202      	bcs.n	80040fa <prvAddCurrentTaskToDelayedList+0xa6>
					xNextTaskUnblockTime = xTimeToWake;
 80040f4:	4a09      	ldr	r2, [pc, #36]	@ (800411c <prvAddCurrentTaskToDelayedList+0xc8>)
 80040f6:	68bb      	ldr	r3, [r7, #8]
 80040f8:	6013      	str	r3, [r2, #0]
}
 80040fa:	bf00      	nop
 80040fc:	3710      	adds	r7, #16
 80040fe:	46bd      	mov	sp, r7
 8004100:	bd80      	pop	{r7, pc}
 8004102:	bf00      	nop
 8004104:	20000468 	.word	0x20000468
 8004108:	20000364 	.word	0x20000364
 800410c:	2000046c 	.word	0x2000046c
 8004110:	20000450 	.word	0x20000450
 8004114:	20000420 	.word	0x20000420
 8004118:	2000041c 	.word	0x2000041c
 800411c:	20000484 	.word	0x20000484

08004120 <pxPortInitialiseStack>:

/*
 * See header file for description.
 */
StackType_t *pxPortInitialiseStack( StackType_t *pxTopOfStack, TaskFunction_t pxCode, void *pvParameters )
{
 8004120:	b480      	push	{r7}
 8004122:	b085      	sub	sp, #20
 8004124:	af00      	add	r7, sp, #0
 8004126:	60f8      	str	r0, [r7, #12]
 8004128:	60b9      	str	r1, [r7, #8]
 800412a:	607a      	str	r2, [r7, #4]
	/* Simulate the stack frame as it would be created by a context switch
	interrupt. */

	/* Offset added to account for the way the MCU uses the stack on entry/exit
	of interrupts, and to ensure alignment. */
	pxTopOfStack--;
 800412c:	68fb      	ldr	r3, [r7, #12]
 800412e:	3b04      	subs	r3, #4
 8004130:	60fb      	str	r3, [r7, #12]

	*pxTopOfStack = portINITIAL_XPSR;	/* xPSR */
 8004132:	68fb      	ldr	r3, [r7, #12]
 8004134:	f04f 7280 	mov.w	r2, #16777216	@ 0x1000000
 8004138:	601a      	str	r2, [r3, #0]
	pxTopOfStack--;
 800413a:	68fb      	ldr	r3, [r7, #12]
 800413c:	3b04      	subs	r3, #4
 800413e:	60fb      	str	r3, [r7, #12]
	*pxTopOfStack = ( ( StackType_t ) pxCode ) & portSTART_ADDRESS_MASK;	/* PC */
 8004140:	68bb      	ldr	r3, [r7, #8]
 8004142:	f023 0201 	bic.w	r2, r3, #1
 8004146:	68fb      	ldr	r3, [r7, #12]
 8004148:	601a      	str	r2, [r3, #0]
	pxTopOfStack--;
 800414a:	68fb      	ldr	r3, [r7, #12]
 800414c:	3b04      	subs	r3, #4
 800414e:	60fb      	str	r3, [r7, #12]
	*pxTopOfStack = ( StackType_t ) portTASK_RETURN_ADDRESS;	/* LR */
 8004150:	4a0c      	ldr	r2, [pc, #48]	@ (8004184 <pxPortInitialiseStack+0x64>)
 8004152:	68fb      	ldr	r3, [r7, #12]
 8004154:	601a      	str	r2, [r3, #0]

	/* Save code space by skipping register initialisation. */
	pxTopOfStack -= 5;	/* R12, R3, R2 and R1. */
 8004156:	68fb      	ldr	r3, [r7, #12]
 8004158:	3b14      	subs	r3, #20
 800415a:	60fb      	str	r3, [r7, #12]
	*pxTopOfStack = ( StackType_t ) pvParameters;	/* R0 */
 800415c:	687a      	ldr	r2, [r7, #4]
 800415e:	68fb      	ldr	r3, [r7, #12]
 8004160:	601a      	str	r2, [r3, #0]

	/* A save method is being used that requires each task to maintain its
	own exec return value. */
	pxTopOfStack--;
 8004162:	68fb      	ldr	r3, [r7, #12]
 8004164:	3b04      	subs	r3, #4
 8004166:	60fb      	str	r3, [r7, #12]
	*pxTopOfStack = portINITIAL_EXC_RETURN;
 8004168:	68fb      	ldr	r3, [r7, #12]
 800416a:	f06f 0202 	mvn.w	r2, #2
 800416e:	601a      	str	r2, [r3, #0]

	pxTopOfStack -= 8;	/* R11, R10, R9, R8, R7, R6, R5 and R4. */
 8004170:	68fb      	ldr	r3, [r7, #12]
 8004172:	3b20      	subs	r3, #32
 8004174:	60fb      	str	r3, [r7, #12]

	return pxTopOfStack;
 8004176:	68fb      	ldr	r3, [r7, #12]
}
 8004178:	4618      	mov	r0, r3
 800417a:	3714      	adds	r7, #20
 800417c:	46bd      	mov	sp, r7
 800417e:	f85d 7b04 	ldr.w	r7, [sp], #4
 8004182:	4770      	bx	lr
 8004184:	08004189 	.word	0x08004189

08004188 <prvTaskExitError>:
/*-----------------------------------------------------------*/

static void prvTaskExitError( void )
{
 8004188:	b480      	push	{r7}
 800418a:	b085      	sub	sp, #20
 800418c:	af00      	add	r7, sp, #0
volatile uint32_t ulDummy = 0;
 800418e:	2300      	movs	r3, #0
 8004190:	607b      	str	r3, [r7, #4]
	its caller as there is nothing to return to.  If a task wants to exit it
	should instead call vTaskDelete( NULL ).

	Artificially force an assert() to be triggered if configASSERT() is
	defined, then stop here so application writers can catch the error. */
	configASSERT( uxCriticalNesting == ~0UL );
 8004192:	4b13      	ldr	r3, [pc, #76]	@ (80041e0 <prvTaskExitError+0x58>)
 8004194:	681b      	ldr	r3, [r3, #0]
 8004196:	f1b3 3fff 	cmp.w	r3, #4294967295
 800419a:	d00b      	beq.n	80041b4 <prvTaskExitError+0x2c>
	__asm volatile
 800419c:	f04f 0350 	mov.w	r3, #80	@ 0x50
 80041a0:	f383 8811 	msr	BASEPRI, r3
 80041a4:	f3bf 8f6f 	isb	sy
 80041a8:	f3bf 8f4f 	dsb	sy
 80041ac:	60fb      	str	r3, [r7, #12]
}
 80041ae:	bf00      	nop
 80041b0:	bf00      	nop
 80041b2:	e7fd      	b.n	80041b0 <prvTaskExitError+0x28>
	__asm volatile
 80041b4:	f04f 0350 	mov.w	r3, #80	@ 0x50
 80041b8:	f383 8811 	msr	BASEPRI, r3
 80041bc:	f3bf 8f6f 	isb	sy
 80041c0:	f3bf 8f4f 	dsb	sy
 80041c4:	60bb      	str	r3, [r7, #8]
}
 80041c6:	bf00      	nop
	portDISABLE_INTERRUPTS();
	while( ulDummy == 0 )
 80041c8:	bf00      	nop
 80041ca:	687b      	ldr	r3, [r7, #4]
 80041cc:	2b00      	cmp	r3, #0
 80041ce:	d0fc      	beq.n	80041ca <prvTaskExitError+0x42>
		about code appearing after this function is called - making ulDummy
		volatile makes the compiler think the function could return and
		therefore not output an 'unreachable code' warning for code that appears
		after it. */
	}
}
 80041d0:	bf00      	nop
 80041d2:	bf00      	nop
 80041d4:	3714      	adds	r7, #20
 80041d6:	46bd      	mov	sp, r7
 80041d8:	f85d 7b04 	ldr.w	r7, [sp], #4
 80041dc:	4770      	bx	lr
 80041de:	bf00      	nop
 80041e0:	2000000c 	.word	0x2000000c
	...

080041f0 <SVC_Handler>:
/*-----------------------------------------------------------*/

void vPortSVCHandler( void )
{
	__asm volatile (
 80041f0:	4b07      	ldr	r3, [pc, #28]	@ (8004210 <pxCurrentTCBConst2>)
 80041f2:	6819      	ldr	r1, [r3, #0]
 80041f4:	6808      	ldr	r0, [r1, #0]
 80041f6:	e8b0 4ff0 	ldmia.w	r0!, {r4, r5, r6, r7, r8, r9, sl, fp, lr}
 80041fa:	f380 8809 	msr	PSP, r0
 80041fe:	f3bf 8f6f 	isb	sy
 8004202:	f04f 0000 	mov.w	r0, #0
 8004206:	f380 8811 	msr	BASEPRI, r0
 800420a:	4770      	bx	lr
 800420c:	f3af 8000 	nop.w

08004210 <pxCurrentTCBConst2>:
 8004210:	20000364 	.word	0x20000364
					"	bx r14							\n"
					"									\n"
					"	.align 4						\n"
					"pxCurrentTCBConst2: .word pxCurrentTCB				\n"
				);
}
 8004214:	bf00      	nop
 8004216:	bf00      	nop

08004218 <prvPortStartFirstTask>:
{
	/* Start the first task.  This also clears the bit that indicates the FPU is
	in use in case the FPU was used before the scheduler was started - which
	would otherwise result in the unnecessary leaving of space in the SVC stack
	for lazy saving of FPU registers. */
	__asm volatile(
 8004218:	4808      	ldr	r0, [pc, #32]	@ (800423c <prvPortStartFirstTask+0x24>)
 800421a:	6800      	ldr	r0, [r0, #0]
 800421c:	6800      	ldr	r0, [r0, #0]
 800421e:	f380 8808 	msr	MSP, r0
 8004222:	f04f 0000 	mov.w	r0, #0
 8004226:	f380 8814 	msr	CONTROL, r0
 800422a:	b662      	cpsie	i
 800422c:	b661      	cpsie	f
 800422e:	f3bf 8f4f 	dsb	sy
 8004232:	f3bf 8f6f 	isb	sy
 8004236:	df00      	svc	0
 8004238:	bf00      	nop
					" dsb					\n"
					" isb					\n"
					" svc 0					\n" /* System call to start first task. */
					" nop					\n"
				);
}
 800423a:	bf00      	nop
 800423c:	e000ed08 	.word	0xe000ed08

08004240 <xPortStartScheduler>:

/*
 * See header file for description.
 */
BaseType_t xPortStartScheduler( void )
{
 8004240:	b580      	push	{r7, lr}
 8004242:	b086      	sub	sp, #24
 8004244:	af00      	add	r7, sp, #0
	configASSERT( configMAX_SYSCALL_INTERRUPT_PRIORITY );

	/* This port can be used on all revisions of the Cortex-M7 core other than
	the r0p1 parts.  r0p1 parts should use the port from the
	/source/portable/GCC/ARM_CM7/r0p1 directory. */
	configASSERT( portCPUID != portCORTEX_M7_r0p1_ID );
 8004246:	4b47      	ldr	r3, [pc, #284]	@ (8004364 <xPortStartScheduler+0x124>)
 8004248:	681b      	ldr	r3, [r3, #0]
 800424a:	4a47      	ldr	r2, [pc, #284]	@ (8004368 <xPortStartScheduler+0x128>)
 800424c:	4293      	cmp	r3, r2
 800424e:	d10b      	bne.n	8004268 <xPortStartScheduler+0x28>
	__asm volatile
 8004250:	f04f 0350 	mov.w	r3, #80	@ 0x50
 8004254:	f383 8811 	msr	BASEPRI, r3
 8004258:	f3bf 8f6f 	isb	sy
 800425c:	f3bf 8f4f 	dsb	sy
 8004260:	60fb      	str	r3, [r7, #12]
}
 8004262:	bf00      	nop
 8004264:	bf00      	nop
 8004266:	e7fd      	b.n	8004264 <xPortStartScheduler+0x24>
	configASSERT( portCPUID != portCORTEX_M7_r0p0_ID );
 8004268:	4b3e      	ldr	r3, [pc, #248]	@ (8004364 <xPortStartScheduler+0x124>)
 800426a:	681b      	ldr	r3, [r3, #0]
 800426c:	4a3f      	ldr	r2, [pc, #252]	@ (800436c <xPortStartScheduler+0x12c>)
 800426e:	4293      	cmp	r3, r2
 8004270:	d10b      	bne.n	800428a <xPortStartScheduler+0x4a>
	__asm volatile
 8004272:	f04f 0350 	mov.w	r3, #80	@ 0x50
 8004276:	f383 8811 	msr	BASEPRI, r3
 800427a:	f3bf 8f6f 	isb	sy
 800427e:	f3bf 8f4f 	dsb	sy
 8004282:	613b      	str	r3, [r7, #16]
}
 8004284:	bf00      	nop
 8004286:	bf00      	nop
 8004288:	e7fd      	b.n	8004286 <xPortStartScheduler+0x46>

	#if( configASSERT_DEFINED == 1 )
	{
		volatile uint32_t ulOriginalPriority;
		volatile uint8_t * const pucFirstUserPriorityRegister = ( volatile uint8_t * const ) ( portNVIC_IP_REGISTERS_OFFSET_16 + portFIRST_USER_INTERRUPT_NUMBER );
 800428a:	4b39      	ldr	r3, [pc, #228]	@ (8004370 <xPortStartScheduler+0x130>)
 800428c:	617b      	str	r3, [r7, #20]
		functions can be called.  ISR safe functions are those that end in
		"FromISR".  FreeRTOS maintains separate thread and ISR API functions to
		ensure interrupt entry is as fast and simple as possible.

		Save the interrupt priority value that is about to be clobbered. */
		ulOriginalPriority = *pucFirstUserPriorityRegister;
 800428e:	697b      	ldr	r3, [r7, #20]
 8004290:	781b      	ldrb	r3, [r3, #0]
 8004292:	b2db      	uxtb	r3, r3
 8004294:	607b      	str	r3, [r7, #4]

		/* Determine the number of priority bits available.  First write to all
		possible bits. */
		*pucFirstUserPriorityRegister = portMAX_8_BIT_VALUE;
 8004296:	697b      	ldr	r3, [r7, #20]
 8004298:	22ff      	movs	r2, #255	@ 0xff
 800429a:	701a      	strb	r2, [r3, #0]

		/* Read the value back to see how many bits stuck. */
		ucMaxPriorityValue = *pucFirstUserPriorityRegister;
 800429c:	697b      	ldr	r3, [r7, #20]
 800429e:	781b      	ldrb	r3, [r3, #0]
 80042a0:	b2db      	uxtb	r3, r3
 80042a2:	70fb      	strb	r3, [r7, #3]

		/* Use the same mask on the maximum system call priority. */
		ucMaxSysCallPriority = configMAX_SYSCALL_INTERRUPT_PRIORITY & ucMaxPriorityValue;
 80042a4:	78fb      	ldrb	r3, [r7, #3]
 80042a6:	b2db      	uxtb	r3, r3
 80042a8:	f003 0350 	and.w	r3, r3, #80	@ 0x50
 80042ac:	b2da      	uxtb	r2, r3
 80042ae:	4b31      	ldr	r3, [pc, #196]	@ (8004374 <xPortStartScheduler+0x134>)
 80042b0:	701a      	strb	r2, [r3, #0]

		/* Calculate the maximum acceptable priority group value for the number
		of bits read back. */
		ulMaxPRIGROUPValue = portMAX_PRIGROUP_BITS;
 80042b2:	4b31      	ldr	r3, [pc, #196]	@ (8004378 <xPortStartScheduler+0x138>)
 80042b4:	2207      	movs	r2, #7
 80042b6:	601a      	str	r2, [r3, #0]
		while( ( ucMaxPriorityValue & portTOP_BIT_OF_BYTE ) == portTOP_BIT_OF_BYTE )
 80042b8:	e009      	b.n	80042ce <xPortStartScheduler+0x8e>
		{
			ulMaxPRIGROUPValue--;
 80042ba:	4b2f      	ldr	r3, [pc, #188]	@ (8004378 <xPortStartScheduler+0x138>)
 80042bc:	681b      	ldr	r3, [r3, #0]
 80042be:	3b01      	subs	r3, #1
 80042c0:	4a2d      	ldr	r2, [pc, #180]	@ (8004378 <xPortStartScheduler+0x138>)
 80042c2:	6013      	str	r3, [r2, #0]
			ucMaxPriorityValue <<= ( uint8_t ) 0x01;
 80042c4:	78fb      	ldrb	r3, [r7, #3]
 80042c6:	b2db      	uxtb	r3, r3
 80042c8:	005b      	lsls	r3, r3, #1
 80042ca:	b2db      	uxtb	r3, r3
 80042cc:	70fb      	strb	r3, [r7, #3]
		while( ( ucMaxPriorityValue & portTOP_BIT_OF_BYTE ) == portTOP_BIT_OF_BYTE )
 80042ce:	78fb      	ldrb	r3, [r7, #3]
 80042d0:	b2db      	uxtb	r3, r3
 80042d2:	f003 0380 	and.w	r3, r3, #128	@ 0x80
 80042d6:	2b80      	cmp	r3, #128	@ 0x80
 80042d8:	d0ef      	beq.n	80042ba <xPortStartScheduler+0x7a>
		#ifdef configPRIO_BITS
		{
			/* Check the FreeRTOS configuration that defines the number of
			priority bits matches the number of priority bits actually queried
			from the hardware. */
			configASSERT( ( portMAX_PRIGROUP_BITS - ulMaxPRIGROUPValue ) == configPRIO_BITS );
 80042da:	4b27      	ldr	r3, [pc, #156]	@ (8004378 <xPortStartScheduler+0x138>)
 80042dc:	681b      	ldr	r3, [r3, #0]
 80042de:	f1c3 0307 	rsb	r3, r3, #7
 80042e2:	2b04      	cmp	r3, #4
 80042e4:	d00b      	beq.n	80042fe <xPortStartScheduler+0xbe>
	__asm volatile
 80042e6:	f04f 0350 	mov.w	r3, #80	@ 0x50
 80042ea:	f383 8811 	msr	BASEPRI, r3
 80042ee:	f3bf 8f6f 	isb	sy
 80042f2:	f3bf 8f4f 	dsb	sy
 80042f6:	60bb      	str	r3, [r7, #8]
}
 80042f8:	bf00      	nop
 80042fa:	bf00      	nop
 80042fc:	e7fd      	b.n	80042fa <xPortStartScheduler+0xba>
		}
		#endif

		/* Shift the priority group value back to its position within the AIRCR
		register. */
		ulMaxPRIGROUPValue <<= portPRIGROUP_SHIFT;
 80042fe:	4b1e      	ldr	r3, [pc, #120]	@ (8004378 <xPortStartScheduler+0x138>)
 8004300:	681b      	ldr	r3, [r3, #0]
 8004302:	021b      	lsls	r3, r3, #8
 8004304:	4a1c      	ldr	r2, [pc, #112]	@ (8004378 <xPortStartScheduler+0x138>)
 8004306:	6013      	str	r3, [r2, #0]
		ulMaxPRIGROUPValue &= portPRIORITY_GROUP_MASK;
 8004308:	4b1b      	ldr	r3, [pc, #108]	@ (8004378 <xPortStartScheduler+0x138>)
 800430a:	681b      	ldr	r3, [r3, #0]
 800430c:	f403 63e0 	and.w	r3, r3, #1792	@ 0x700
 8004310:	4a19      	ldr	r2, [pc, #100]	@ (8004378 <xPortStartScheduler+0x138>)
 8004312:	6013      	str	r3, [r2, #0]

		/* Restore the clobbered interrupt priority register to its original
		value. */
		*pucFirstUserPriorityRegister = ulOriginalPriority;
 8004314:	687b      	ldr	r3, [r7, #4]
 8004316:	b2da      	uxtb	r2, r3
 8004318:	697b      	ldr	r3, [r7, #20]
 800431a:	701a      	strb	r2, [r3, #0]
	}
	#endif /* conifgASSERT_DEFINED */

	/* Make PendSV and SysTick the lowest priority interrupts. */
	portNVIC_SYSPRI2_REG |= portNVIC_PENDSV_PRI;
 800431c:	4b17      	ldr	r3, [pc, #92]	@ (800437c <xPortStartScheduler+0x13c>)
 800431e:	681b      	ldr	r3, [r3, #0]
 8004320:	4a16      	ldr	r2, [pc, #88]	@ (800437c <xPortStartScheduler+0x13c>)
 8004322:	f443 0370 	orr.w	r3, r3, #15728640	@ 0xf00000
 8004326:	6013      	str	r3, [r2, #0]
	portNVIC_SYSPRI2_REG |= portNVIC_SYSTICK_PRI;
 8004328:	4b14      	ldr	r3, [pc, #80]	@ (800437c <xPortStartScheduler+0x13c>)
 800432a:	681b      	ldr	r3, [r3, #0]
 800432c:	4a13      	ldr	r2, [pc, #76]	@ (800437c <xPortStartScheduler+0x13c>)
 800432e:	f043 4370 	orr.w	r3, r3, #4026531840	@ 0xf0000000
 8004332:	6013      	str	r3, [r2, #0]

	/* Start the timer that generates the tick ISR.  Interrupts are disabled
	here already. */
	vPortSetupTimerInterrupt();
 8004334:	f000 f8da 	bl	80044ec <vPortSetupTimerInterrupt>

	/* Initialise the critical nesting count ready for the first task. */
	uxCriticalNesting = 0;
 8004338:	4b11      	ldr	r3, [pc, #68]	@ (8004380 <xPortStartScheduler+0x140>)
 800433a:	2200      	movs	r2, #0
 800433c:	601a      	str	r2, [r3, #0]

	/* Ensure the VFP is enabled - it should be anyway. */
	vPortEnableVFP();
 800433e:	f000 f8f9 	bl	8004534 <vPortEnableVFP>

	/* Lazy save always. */
	*( portFPCCR ) |= portASPEN_AND_LSPEN_BITS;
 8004342:	4b10      	ldr	r3, [pc, #64]	@ (8004384 <xPortStartScheduler+0x144>)
 8004344:	681b      	ldr	r3, [r3, #0]
 8004346:	4a0f      	ldr	r2, [pc, #60]	@ (8004384 <xPortStartScheduler+0x144>)
 8004348:	f043 4340 	orr.w	r3, r3, #3221225472	@ 0xc0000000
 800434c:	6013      	str	r3, [r2, #0]

	/* Start the first task. */
	prvPortStartFirstTask();
 800434e:	f7ff ff63 	bl	8004218 <prvPortStartFirstTask>
	exit error function to prevent compiler warnings about a static function
	not being called in the case that the application writer overrides this
	functionality by defining configTASK_RETURN_ADDRESS.  Call
	vTaskSwitchContext() so link time optimisation does not remove the
	symbol. */
	vTaskSwitchContext();
 8004352:	f7ff fd1f 	bl	8003d94 <vTaskSwitchContext>
	prvTaskExitError();
 8004356:	f7ff ff17 	bl	8004188 <prvTaskExitError>

	/* Should not get here! */
	return 0;
 800435a:	2300      	movs	r3, #0
}
 800435c:	4618      	mov	r0, r3
 800435e:	3718      	adds	r7, #24
 8004360:	46bd      	mov	sp, r7
 8004362:	bd80      	pop	{r7, pc}
 8004364:	e000ed00 	.word	0xe000ed00
 8004368:	410fc271 	.word	0x410fc271
 800436c:	410fc270 	.word	0x410fc270
 8004370:	e000e400 	.word	0xe000e400
 8004374:	20000490 	.word	0x20000490
 8004378:	20000494 	.word	0x20000494
 800437c:	e000ed20 	.word	0xe000ed20
 8004380:	2000000c 	.word	0x2000000c
 8004384:	e000ef34 	.word	0xe000ef34

08004388 <vPortEnterCritical>:
	configASSERT( uxCriticalNesting == 1000UL );
}
/*-----------------------------------------------------------*/

void vPortEnterCritical( void )
{
 8004388:	b480      	push	{r7}
 800438a:	b083      	sub	sp, #12
 800438c:	af00      	add	r7, sp, #0
	__asm volatile
 800438e:	f04f 0350 	mov.w	r3, #80	@ 0x50
 8004392:	f383 8811 	msr	BASEPRI, r3
 8004396:	f3bf 8f6f 	isb	sy
 800439a:	f3bf 8f4f 	dsb	sy
 800439e:	607b      	str	r3, [r7, #4]
}
 80043a0:	bf00      	nop
	portDISABLE_INTERRUPTS();
	uxCriticalNesting++;
 80043a2:	4b10      	ldr	r3, [pc, #64]	@ (80043e4 <vPortEnterCritical+0x5c>)
 80043a4:	681b      	ldr	r3, [r3, #0]
 80043a6:	3301      	adds	r3, #1
 80043a8:	4a0e      	ldr	r2, [pc, #56]	@ (80043e4 <vPortEnterCritical+0x5c>)
 80043aa:	6013      	str	r3, [r2, #0]
	/* This is not the interrupt safe version of the enter critical function so
	assert() if it is being called from an interrupt context.  Only API
	functions that end in "FromISR" can be used in an interrupt.  Only assert if
	the critical nesting count is 1 to protect against recursive calls if the
	assert function also uses a critical section. */
	if( uxCriticalNesting == 1 )
 80043ac:	4b0d      	ldr	r3, [pc, #52]	@ (80043e4 <vPortEnterCritical+0x5c>)
 80043ae:	681b      	ldr	r3, [r3, #0]
 80043b0:	2b01      	cmp	r3, #1
 80043b2:	d110      	bne.n	80043d6 <vPortEnterCritical+0x4e>
	{
		configASSERT( ( portNVIC_INT_CTRL_REG & portVECTACTIVE_MASK ) == 0 );
 80043b4:	4b0c      	ldr	r3, [pc, #48]	@ (80043e8 <vPortEnterCritical+0x60>)
 80043b6:	681b      	ldr	r3, [r3, #0]
 80043b8:	b2db      	uxtb	r3, r3
 80043ba:	2b00      	cmp	r3, #0
 80043bc:	d00b      	beq.n	80043d6 <vPortEnterCritical+0x4e>
	__asm volatile
 80043be:	f04f 0350 	mov.w	r3, #80	@ 0x50
 80043c2:	f383 8811 	msr	BASEPRI, r3
 80043c6:	f3bf 8f6f 	isb	sy
 80043ca:	f3bf 8f4f 	dsb	sy
 80043ce:	603b      	str	r3, [r7, #0]
}
 80043d0:	bf00      	nop
 80043d2:	bf00      	nop
 80043d4:	e7fd      	b.n	80043d2 <vPortEnterCritical+0x4a>
	}
}
 80043d6:	bf00      	nop
 80043d8:	370c      	adds	r7, #12
 80043da:	46bd      	mov	sp, r7
 80043dc:	f85d 7b04 	ldr.w	r7, [sp], #4
 80043e0:	4770      	bx	lr
 80043e2:	bf00      	nop
 80043e4:	2000000c 	.word	0x2000000c
 80043e8:	e000ed04 	.word	0xe000ed04

080043ec <vPortExitCritical>:
/*-----------------------------------------------------------*/

void vPortExitCritical( void )
{
 80043ec:	b480      	push	{r7}
 80043ee:	b083      	sub	sp, #12
 80043f0:	af00      	add	r7, sp, #0
	configASSERT( uxCriticalNesting );
 80043f2:	4b12      	ldr	r3, [pc, #72]	@ (800443c <vPortExitCritical+0x50>)
 80043f4:	681b      	ldr	r3, [r3, #0]
 80043f6:	2b00      	cmp	r3, #0
 80043f8:	d10b      	bne.n	8004412 <vPortExitCritical+0x26>
	__asm volatile
 80043fa:	f04f 0350 	mov.w	r3, #80	@ 0x50
 80043fe:	f383 8811 	msr	BASEPRI, r3
 8004402:	f3bf 8f6f 	isb	sy
 8004406:	f3bf 8f4f 	dsb	sy
 800440a:	607b      	str	r3, [r7, #4]
}
 800440c:	bf00      	nop
 800440e:	bf00      	nop
 8004410:	e7fd      	b.n	800440e <vPortExitCritical+0x22>
	uxCriticalNesting--;
 8004412:	4b0a      	ldr	r3, [pc, #40]	@ (800443c <vPortExitCritical+0x50>)
 8004414:	681b      	ldr	r3, [r3, #0]
 8004416:	3b01      	subs	r3, #1
 8004418:	4a08      	ldr	r2, [pc, #32]	@ (800443c <vPortExitCritical+0x50>)
 800441a:	6013      	str	r3, [r2, #0]
	if( uxCriticalNesting == 0 )
 800441c:	4b07      	ldr	r3, [pc, #28]	@ (800443c <vPortExitCritical+0x50>)
 800441e:	681b      	ldr	r3, [r3, #0]
 8004420:	2b00      	cmp	r3, #0
 8004422:	d105      	bne.n	8004430 <vPortExitCritical+0x44>
 8004424:	2300      	movs	r3, #0
 8004426:	603b      	str	r3, [r7, #0]
}
/*-----------------------------------------------------------*/

portFORCE_INLINE static void vPortSetBASEPRI( uint32_t ulNewMaskValue )
{
	__asm volatile
 8004428:	683b      	ldr	r3, [r7, #0]
 800442a:	f383 8811 	msr	BASEPRI, r3
	(
		"	msr basepri, %0	" :: "r" ( ulNewMaskValue ) : "memory"
	);
}
 800442e:	bf00      	nop
	{
		portENABLE_INTERRUPTS();
	}
}
 8004430:	bf00      	nop
 8004432:	370c      	adds	r7, #12
 8004434:	46bd      	mov	sp, r7
 8004436:	f85d 7b04 	ldr.w	r7, [sp], #4
 800443a:	4770      	bx	lr
 800443c:	2000000c 	.word	0x2000000c

08004440 <PendSV_Handler>:

void xPortPendSVHandler( void )
{
	/* This is a naked function. */

	__asm volatile
 8004440:	f3ef 8009 	mrs	r0, PSP
 8004444:	f3bf 8f6f 	isb	sy
 8004448:	4b15      	ldr	r3, [pc, #84]	@ (80044a0 <pxCurrentTCBConst>)
 800444a:	681a      	ldr	r2, [r3, #0]
 800444c:	f01e 0f10 	tst.w	lr, #16
 8004450:	bf08      	it	eq
 8004452:	ed20 8a10 	vstmdbeq	r0!, {s16-s31}
 8004456:	e920 4ff0 	stmdb	r0!, {r4, r5, r6, r7, r8, r9, sl, fp, lr}
 800445a:	6010      	str	r0, [r2, #0]
 800445c:	e92d 0009 	stmdb	sp!, {r0, r3}
 8004460:	f04f 0050 	mov.w	r0, #80	@ 0x50
 8004464:	f380 8811 	msr	BASEPRI, r0
 8004468:	f3bf 8f4f 	dsb	sy
 800446c:	f3bf 8f6f 	isb	sy
 8004470:	f7ff fc90 	bl	8003d94 <vTaskSwitchContext>
 8004474:	f04f 0000 	mov.w	r0, #0
 8004478:	f380 8811 	msr	BASEPRI, r0
 800447c:	bc09      	pop	{r0, r3}
 800447e:	6819      	ldr	r1, [r3, #0]
 8004480:	6808      	ldr	r0, [r1, #0]
 8004482:	e8b0 4ff0 	ldmia.w	r0!, {r4, r5, r6, r7, r8, r9, sl, fp, lr}
 8004486:	f01e 0f10 	tst.w	lr, #16
 800448a:	bf08      	it	eq
 800448c:	ecb0 8a10 	vldmiaeq	r0!, {s16-s31}
 8004490:	f380 8809 	msr	PSP, r0
 8004494:	f3bf 8f6f 	isb	sy
 8004498:	4770      	bx	lr
 800449a:	bf00      	nop
 800449c:	f3af 8000 	nop.w

080044a0 <pxCurrentTCBConst>:
 80044a0:	20000364 	.word	0x20000364
	"										\n"
	"	.align 4							\n"
	"pxCurrentTCBConst: .word pxCurrentTCB	\n"
	::"i"(configMAX_SYSCALL_INTERRUPT_PRIORITY)
	);
}
 80044a4:	bf00      	nop
 80044a6:	bf00      	nop

080044a8 <xPortSysTickHandler>:
/*-----------------------------------------------------------*/

void xPortSysTickHandler( void )
{
 80044a8:	b580      	push	{r7, lr}
 80044aa:	b082      	sub	sp, #8
 80044ac:	af00      	add	r7, sp, #0
	__asm volatile
 80044ae:	f04f 0350 	mov.w	r3, #80	@ 0x50
 80044b2:	f383 8811 	msr	BASEPRI, r3
 80044b6:	f3bf 8f6f 	isb	sy
 80044ba:	f3bf 8f4f 	dsb	sy
 80044be:	607b      	str	r3, [r7, #4]
}
 80044c0:	bf00      	nop
	save and then restore the interrupt mask value as its value is already
	known. */
	portDISABLE_INTERRUPTS();
	{
		/* Increment the RTOS tick. */
		if( xTaskIncrementTick() != pdFALSE )
 80044c2:	f7ff fbad 	bl	8003c20 <xTaskIncrementTick>
 80044c6:	4603      	mov	r3, r0
 80044c8:	2b00      	cmp	r3, #0
 80044ca:	d003      	beq.n	80044d4 <xPortSysTickHandler+0x2c>
		{
			/* A context switch is required.  Context switching is performed in
			the PendSV interrupt.  Pend the PendSV interrupt. */
			portNVIC_INT_CTRL_REG = portNVIC_PENDSVSET_BIT;
 80044cc:	4b06      	ldr	r3, [pc, #24]	@ (80044e8 <xPortSysTickHandler+0x40>)
 80044ce:	f04f 5280 	mov.w	r2, #268435456	@ 0x10000000
 80044d2:	601a      	str	r2, [r3, #0]
 80044d4:	2300      	movs	r3, #0
 80044d6:	603b      	str	r3, [r7, #0]
	__asm volatile
 80044d8:	683b      	ldr	r3, [r7, #0]
 80044da:	f383 8811 	msr	BASEPRI, r3
}
 80044de:	bf00      	nop
		}
	}
	portENABLE_INTERRUPTS();
}
 80044e0:	bf00      	nop
 80044e2:	3708      	adds	r7, #8
 80044e4:	46bd      	mov	sp, r7
 80044e6:	bd80      	pop	{r7, pc}
 80044e8:	e000ed04 	.word	0xe000ed04

080044ec <vPortSetupTimerInterrupt>:
/*
 * Setup the systick timer to generate the tick interrupts at the required
 * frequency.
 */
__attribute__(( weak )) void vPortSetupTimerInterrupt( void )
{
 80044ec:	b480      	push	{r7}
 80044ee:	af00      	add	r7, sp, #0
		ulStoppedTimerCompensation = portMISSED_COUNTS_FACTOR / ( configCPU_CLOCK_HZ / configSYSTICK_CLOCK_HZ );
	}
	#endif /* configUSE_TICKLESS_IDLE */

	/* Stop and clear the SysTick. */
	portNVIC_SYSTICK_CTRL_REG = 0UL;
 80044f0:	4b0b      	ldr	r3, [pc, #44]	@ (8004520 <vPortSetupTimerInterrupt+0x34>)
 80044f2:	2200      	movs	r2, #0
 80044f4:	601a      	str	r2, [r3, #0]
	portNVIC_SYSTICK_CURRENT_VALUE_REG = 0UL;
 80044f6:	4b0b      	ldr	r3, [pc, #44]	@ (8004524 <vPortSetupTimerInterrupt+0x38>)
 80044f8:	2200      	movs	r2, #0
 80044fa:	601a      	str	r2, [r3, #0]

	/* Configure SysTick to interrupt at the requested rate. */
	portNVIC_SYSTICK_LOAD_REG = ( configSYSTICK_CLOCK_HZ / configTICK_RATE_HZ ) - 1UL;
 80044fc:	4b0a      	ldr	r3, [pc, #40]	@ (8004528 <vPortSetupTimerInterrupt+0x3c>)
 80044fe:	681b      	ldr	r3, [r3, #0]
 8004500:	4a0a      	ldr	r2, [pc, #40]	@ (800452c <vPortSetupTimerInterrupt+0x40>)
 8004502:	fba2 2303 	umull	r2, r3, r2, r3
 8004506:	099b      	lsrs	r3, r3, #6
 8004508:	4a09      	ldr	r2, [pc, #36]	@ (8004530 <vPortSetupTimerInterrupt+0x44>)
 800450a:	3b01      	subs	r3, #1
 800450c:	6013      	str	r3, [r2, #0]
	portNVIC_SYSTICK_CTRL_REG = ( portNVIC_SYSTICK_CLK_BIT | portNVIC_SYSTICK_INT_BIT | portNVIC_SYSTICK_ENABLE_BIT );
 800450e:	4b04      	ldr	r3, [pc, #16]	@ (8004520 <vPortSetupTimerInterrupt+0x34>)
 8004510:	2207      	movs	r2, #7
 8004512:	601a      	str	r2, [r3, #0]
}
 8004514:	bf00      	nop
 8004516:	46bd      	mov	sp, r7
 8004518:	f85d 7b04 	ldr.w	r7, [sp], #4
 800451c:	4770      	bx	lr
 800451e:	bf00      	nop
 8004520:	e000e010 	.word	0xe000e010
 8004524:	e000e018 	.word	0xe000e018
 8004528:	20000000 	.word	0x20000000
 800452c:	10624dd3 	.word	0x10624dd3
 8004530:	e000e014 	.word	0xe000e014

08004534 <vPortEnableVFP>:
/*-----------------------------------------------------------*/

/* This is a naked function. */
static void vPortEnableVFP( void )
{
	__asm volatile
 8004534:	f8df 000c 	ldr.w	r0, [pc, #12]	@ 8004544 <vPortEnableVFP+0x10>
 8004538:	6801      	ldr	r1, [r0, #0]
 800453a:	f441 0170 	orr.w	r1, r1, #15728640	@ 0xf00000
 800453e:	6001      	str	r1, [r0, #0]
 8004540:	4770      	bx	lr
		"								\n"
		"	orr r1, r1, #( 0xf << 20 )	\n" /* Enable CP10 and CP11 coprocessors, then save back. */
		"	str r1, [r0]				\n"
		"	bx r14						"
	);
}
 8004542:	bf00      	nop
 8004544:	e000ed88 	.word	0xe000ed88

08004548 <pvPortMalloc>:
static size_t xBlockAllocatedBit = 0;

/*-----------------------------------------------------------*/

void *pvPortMalloc( size_t xWantedSize )
{
 8004548:	b580      	push	{r7, lr}
 800454a:	b08a      	sub	sp, #40	@ 0x28
 800454c:	af00      	add	r7, sp, #0
 800454e:	6078      	str	r0, [r7, #4]
BlockLink_t *pxBlock, *pxPreviousBlock, *pxNewBlockLink;
void *pvReturn = NULL;
 8004550:	2300      	movs	r3, #0
 8004552:	61fb      	str	r3, [r7, #28]

	vTaskSuspendAll();
 8004554:	f7ff fab8 	bl	8003ac8 <vTaskSuspendAll>
	{
		/* If this is the first call to malloc then the heap will require
		initialisation to setup the list of free blocks. */
		if( pxEnd == NULL )
 8004558:	4b5c      	ldr	r3, [pc, #368]	@ (80046cc <pvPortMalloc+0x184>)
 800455a:	681b      	ldr	r3, [r3, #0]
 800455c:	2b00      	cmp	r3, #0
 800455e:	d101      	bne.n	8004564 <pvPortMalloc+0x1c>
		{
			prvHeapInit();
 8004560:	f000 f924 	bl	80047ac <prvHeapInit>

		/* Check the requested block size is not so large that the top bit is
		set.  The top bit of the block size member of the BlockLink_t structure
		is used to determine who owns the block - the application or the
		kernel, so it must be free. */
		if( ( xWantedSize & xBlockAllocatedBit ) == 0 )
 8004564:	4b5a      	ldr	r3, [pc, #360]	@ (80046d0 <pvPortMalloc+0x188>)
 8004566:	681a      	ldr	r2, [r3, #0]
 8004568:	687b      	ldr	r3, [r7, #4]
 800456a:	4013      	ands	r3, r2
 800456c:	2b00      	cmp	r3, #0
 800456e:	f040 8095 	bne.w	800469c <pvPortMalloc+0x154>
		{
			/* The wanted size is increased so it can contain a BlockLink_t
			structure in addition to the requested amount of bytes. */
			if( xWantedSize > 0 )
 8004572:	687b      	ldr	r3, [r7, #4]
 8004574:	2b00      	cmp	r3, #0
 8004576:	d01e      	beq.n	80045b6 <pvPortMalloc+0x6e>
			{
				xWantedSize += xHeapStructSize;
 8004578:	2208      	movs	r2, #8
 800457a:	687b      	ldr	r3, [r7, #4]
 800457c:	4413      	add	r3, r2
 800457e:	607b      	str	r3, [r7, #4]

				/* Ensure that blocks are always aligned to the required number
				of bytes. */
				if( ( xWantedSize & portBYTE_ALIGNMENT_MASK ) != 0x00 )
 8004580:	687b      	ldr	r3, [r7, #4]
 8004582:	f003 0307 	and.w	r3, r3, #7
 8004586:	2b00      	cmp	r3, #0
 8004588:	d015      	beq.n	80045b6 <pvPortMalloc+0x6e>
				{
					/* Byte alignment required. */
					xWantedSize += ( portBYTE_ALIGNMENT - ( xWantedSize & portBYTE_ALIGNMENT_MASK ) );
 800458a:	687b      	ldr	r3, [r7, #4]
 800458c:	f023 0307 	bic.w	r3, r3, #7
 8004590:	3308      	adds	r3, #8
 8004592:	607b      	str	r3, [r7, #4]
					configASSERT( ( xWantedSize & portBYTE_ALIGNMENT_MASK ) == 0 );
 8004594:	687b      	ldr	r3, [r7, #4]
 8004596:	f003 0307 	and.w	r3, r3, #7
 800459a:	2b00      	cmp	r3, #0
 800459c:	d00b      	beq.n	80045b6 <pvPortMalloc+0x6e>
	__asm volatile
 800459e:	f04f 0350 	mov.w	r3, #80	@ 0x50
 80045a2:	f383 8811 	msr	BASEPRI, r3
 80045a6:	f3bf 8f6f 	isb	sy
 80045aa:	f3bf 8f4f 	dsb	sy
 80045ae:	617b      	str	r3, [r7, #20]
}
 80045b0:	bf00      	nop
 80045b2:	bf00      	nop
 80045b4:	e7fd      	b.n	80045b2 <pvPortMalloc+0x6a>
			else
			{
				mtCOVERAGE_TEST_MARKER();
			}

			if( ( xWantedSize > 0 ) && ( xWantedSize <= xFreeBytesRemaining ) )
 80045b6:	687b      	ldr	r3, [r7, #4]
 80045b8:	2b00      	cmp	r3, #0
 80045ba:	d06f      	beq.n	800469c <pvPortMalloc+0x154>
 80045bc:	4b45      	ldr	r3, [pc, #276]	@ (80046d4 <pvPortMalloc+0x18c>)
 80045be:	681b      	ldr	r3, [r3, #0]
 80045c0:	687a      	ldr	r2, [r7, #4]
 80045c2:	429a      	cmp	r2, r3
 80045c4:	d86a      	bhi.n	800469c <pvPortMalloc+0x154>
			{
				/* Traverse the list from the start	(lowest address) block until
				one	of adequate size is found. */
				pxPreviousBlock = &xStart;
 80045c6:	4b44      	ldr	r3, [pc, #272]	@ (80046d8 <pvPortMalloc+0x190>)
 80045c8:	623b      	str	r3, [r7, #32]
				pxBlock = xStart.pxNextFreeBlock;
 80045ca:	4b43      	ldr	r3, [pc, #268]	@ (80046d8 <pvPortMalloc+0x190>)
 80045cc:	681b      	ldr	r3, [r3, #0]
 80045ce:	627b      	str	r3, [r7, #36]	@ 0x24
				while( ( pxBlock->xBlockSize < xWantedSize ) && ( pxBlock->pxNextFreeBlock != NULL ) )
 80045d0:	e004      	b.n	80045dc <pvPortMalloc+0x94>
				{
					pxPreviousBlock = pxBlock;
 80045d2:	6a7b      	ldr	r3, [r7, #36]	@ 0x24
 80045d4:	623b      	str	r3, [r7, #32]
					pxBlock = pxBlock->pxNextFreeBlock;
 80045d6:	6a7b      	ldr	r3, [r7, #36]	@ 0x24
 80045d8:	681b      	ldr	r3, [r3, #0]
 80045da:	627b      	str	r3, [r7, #36]	@ 0x24
				while( ( pxBlock->xBlockSize < xWantedSize ) && ( pxBlock->pxNextFreeBlock != NULL ) )
 80045dc:	6a7b      	ldr	r3, [r7, #36]	@ 0x24
 80045de:	685b      	ldr	r3, [r3, #4]
 80045e0:	687a      	ldr	r2, [r7, #4]
 80045e2:	429a      	cmp	r2, r3
 80045e4:	d903      	bls.n	80045ee <pvPortMalloc+0xa6>
 80045e6:	6a7b      	ldr	r3, [r7, #36]	@ 0x24
 80045e8:	681b      	ldr	r3, [r3, #0]
 80045ea:	2b00      	cmp	r3, #0
 80045ec:	d1f1      	bne.n	80045d2 <pvPortMalloc+0x8a>
				}

				/* If the end marker was reached then a block of adequate size
				was	not found. */
				if( pxBlock != pxEnd )
 80045ee:	4b37      	ldr	r3, [pc, #220]	@ (80046cc <pvPortMalloc+0x184>)
 80045f0:	681b      	ldr	r3, [r3, #0]
 80045f2:	6a7a      	ldr	r2, [r7, #36]	@ 0x24
 80045f4:	429a      	cmp	r2, r3
 80045f6:	d051      	beq.n	800469c <pvPortMalloc+0x154>
				{
					/* Return the memory space pointed to - jumping over the
					BlockLink_t structure at its start. */
					pvReturn = ( void * ) ( ( ( uint8_t * ) pxPreviousBlock->pxNextFreeBlock ) + xHeapStructSize );
 80045f8:	6a3b      	ldr	r3, [r7, #32]
 80045fa:	681b      	ldr	r3, [r3, #0]
 80045fc:	2208      	movs	r2, #8
 80045fe:	4413      	add	r3, r2
 8004600:	61fb      	str	r3, [r7, #28]

					/* This block is being returned for use so must be taken out
					of the list of free blocks. */
					pxPreviousBlock->pxNextFreeBlock = pxBlock->pxNextFreeBlock;
 8004602:	6a7b      	ldr	r3, [r7, #36]	@ 0x24
 8004604:	681a      	ldr	r2, [r3, #0]
 8004606:	6a3b      	ldr	r3, [r7, #32]
 8004608:	601a      	str	r2, [r3, #0]

					/* If the block is larger than required it can be split into
					two. */
					if( ( pxBlock->xBlockSize - xWantedSize ) > heapMINIMUM_BLOCK_SIZE )
 800460a:	6a7b      	ldr	r3, [r7, #36]	@ 0x24
 800460c:	685a      	ldr	r2, [r3, #4]
 800460e:	687b      	ldr	r3, [r7, #4]
 8004610:	1ad2      	subs	r2, r2, r3
 8004612:	2308      	movs	r3, #8
 8004614:	005b      	lsls	r3, r3, #1
 8004616:	429a      	cmp	r2, r3
 8004618:	d920      	bls.n	800465c <pvPortMalloc+0x114>
					{
						/* This block is to be split into two.  Create a new
						block following the number of bytes requested. The void
						cast is used to prevent byte alignment warnings from the
						compiler. */
						pxNewBlockLink = ( void * ) ( ( ( uint8_t * ) pxBlock ) + xWantedSize );
 800461a:	6a7a      	ldr	r2, [r7, #36]	@ 0x24
 800461c:	687b      	ldr	r3, [r7, #4]
 800461e:	4413      	add	r3, r2
 8004620:	61bb      	str	r3, [r7, #24]
						configASSERT( ( ( ( size_t ) pxNewBlockLink ) & portBYTE_ALIGNMENT_MASK ) == 0 );
 8004622:	69bb      	ldr	r3, [r7, #24]
 8004624:	f003 0307 	and.w	r3, r3, #7
 8004628:	2b00      	cmp	r3, #0
 800462a:	d00b      	beq.n	8004644 <pvPortMalloc+0xfc>
	__asm volatile
 800462c:	f04f 0350 	mov.w	r3, #80	@ 0x50
 8004630:	f383 8811 	msr	BASEPRI, r3
 8004634:	f3bf 8f6f 	isb	sy
 8004638:	f3bf 8f4f 	dsb	sy
 800463c:	613b      	str	r3, [r7, #16]
}
 800463e:	bf00      	nop
 8004640:	bf00      	nop
 8004642:	e7fd      	b.n	8004640 <pvPortMalloc+0xf8>

						/* Calculate the sizes of two blocks split from the
						single block. */
						pxNewBlockLink->xBlockSize = pxBlock->xBlockSize - xWantedSize;
 8004644:	6a7b      	ldr	r3, [r7, #36]	@ 0x24
 8004646:	685a      	ldr	r2, [r3, #4]
 8004648:	687b      	ldr	r3, [r7, #4]
 800464a:	1ad2      	subs	r2, r2, r3
 800464c:	69bb      	ldr	r3, [r7, #24]
 800464e:	605a      	str	r2, [r3, #4]
						pxBlock->xBlockSize = xWantedSize;
 8004650:	6a7b      	ldr	r3, [r7, #36]	@ 0x24
 8004652:	687a      	ldr	r2, [r7, #4]
 8004654:	605a      	str	r2, [r3, #4]

						/* Insert the new block into the list of free blocks. */
						prvInsertBlockIntoFreeList( pxNewBlockLink );
 8004656:	69b8      	ldr	r0, [r7, #24]
 8004658:	f000 f90a 	bl	8004870 <prvInsertBlockIntoFreeList>
					else
					{
						mtCOVERAGE_TEST_MARKER();
					}

					xFreeBytesRemaining -= pxBlock->xBlockSize;
 800465c:	4b1d      	ldr	r3, [pc, #116]	@ (80046d4 <pvPortMalloc+0x18c>)
 800465e:	681a      	ldr	r2, [r3, #0]
 8004660:	6a7b      	ldr	r3, [r7, #36]	@ 0x24
 8004662:	685b      	ldr	r3, [r3, #4]
 8004664:	1ad3      	subs	r3, r2, r3
 8004666:	4a1b      	ldr	r2, [pc, #108]	@ (80046d4 <pvPortMalloc+0x18c>)
 8004668:	6013      	str	r3, [r2, #0]

					if( xFreeBytesRemaining < xMinimumEverFreeBytesRemaining )
 800466a:	4b1a      	ldr	r3, [pc, #104]	@ (80046d4 <pvPortMalloc+0x18c>)
 800466c:	681a      	ldr	r2, [r3, #0]
 800466e:	4b1b      	ldr	r3, [pc, #108]	@ (80046dc <pvPortMalloc+0x194>)
 8004670:	681b      	ldr	r3, [r3, #0]
 8004672:	429a      	cmp	r2, r3
 8004674:	d203      	bcs.n	800467e <pvPortMalloc+0x136>
					{
						xMinimumEverFreeBytesRemaining = xFreeBytesRemaining;
 8004676:	4b17      	ldr	r3, [pc, #92]	@ (80046d4 <pvPortMalloc+0x18c>)
 8004678:	681b      	ldr	r3, [r3, #0]
 800467a:	4a18      	ldr	r2, [pc, #96]	@ (80046dc <pvPortMalloc+0x194>)
 800467c:	6013      	str	r3, [r2, #0]
						mtCOVERAGE_TEST_MARKER();
					}

					/* The block is being returned - it is allocated and owned
					by the application and has no "next" block. */
					pxBlock->xBlockSize |= xBlockAllocatedBit;
 800467e:	6a7b      	ldr	r3, [r7, #36]	@ 0x24
 8004680:	685a      	ldr	r2, [r3, #4]
 8004682:	4b13      	ldr	r3, [pc, #76]	@ (80046d0 <pvPortMalloc+0x188>)
 8004684:	681b      	ldr	r3, [r3, #0]
 8004686:	431a      	orrs	r2, r3
 8004688:	6a7b      	ldr	r3, [r7, #36]	@ 0x24
 800468a:	605a      	str	r2, [r3, #4]
					pxBlock->pxNextFreeBlock = NULL;
 800468c:	6a7b      	ldr	r3, [r7, #36]	@ 0x24
 800468e:	2200      	movs	r2, #0
 8004690:	601a      	str	r2, [r3, #0]
					xNumberOfSuccessfulAllocations++;
 8004692:	4b13      	ldr	r3, [pc, #76]	@ (80046e0 <pvPortMalloc+0x198>)
 8004694:	681b      	ldr	r3, [r3, #0]
 8004696:	3301      	adds	r3, #1
 8004698:	4a11      	ldr	r2, [pc, #68]	@ (80046e0 <pvPortMalloc+0x198>)
 800469a:	6013      	str	r3, [r2, #0]
			mtCOVERAGE_TEST_MARKER();
		}

		traceMALLOC( pvReturn, xWantedSize );
	}
	( void ) xTaskResumeAll();
 800469c:	f7ff fa22 	bl	8003ae4 <xTaskResumeAll>
			mtCOVERAGE_TEST_MARKER();
		}
	}
	#endif

	configASSERT( ( ( ( size_t ) pvReturn ) & ( size_t ) portBYTE_ALIGNMENT_MASK ) == 0 );
 80046a0:	69fb      	ldr	r3, [r7, #28]
 80046a2:	f003 0307 	and.w	r3, r3, #7
 80046a6:	2b00      	cmp	r3, #0
 80046a8:	d00b      	beq.n	80046c2 <pvPortMalloc+0x17a>
	__asm volatile
 80046aa:	f04f 0350 	mov.w	r3, #80	@ 0x50
 80046ae:	f383 8811 	msr	BASEPRI, r3
 80046b2:	f3bf 8f6f 	isb	sy
 80046b6:	f3bf 8f4f 	dsb	sy
 80046ba:	60fb      	str	r3, [r7, #12]
}
 80046bc:	bf00      	nop
 80046be:	bf00      	nop
 80046c0:	e7fd      	b.n	80046be <pvPortMalloc+0x176>
	return pvReturn;
 80046c2:	69fb      	ldr	r3, [r7, #28]
}
 80046c4:	4618      	mov	r0, r3
 80046c6:	3728      	adds	r7, #40	@ 0x28
 80046c8:	46bd      	mov	sp, r7
 80046ca:	bd80      	pop	{r7, pc}
 80046cc:	20001058 	.word	0x20001058
 80046d0:	2000106c 	.word	0x2000106c
 80046d4:	2000105c 	.word	0x2000105c
 80046d8:	20001050 	.word	0x20001050
 80046dc:	20001060 	.word	0x20001060
 80046e0:	20001064 	.word	0x20001064

080046e4 <vPortFree>:
/*-----------------------------------------------------------*/

void vPortFree( void *pv )
{
 80046e4:	b580      	push	{r7, lr}
 80046e6:	b086      	sub	sp, #24
 80046e8:	af00      	add	r7, sp, #0
 80046ea:	6078      	str	r0, [r7, #4]
uint8_t *puc = ( uint8_t * ) pv;
 80046ec:	687b      	ldr	r3, [r7, #4]
 80046ee:	617b      	str	r3, [r7, #20]
BlockLink_t *pxLink;

	if( pv != NULL )
 80046f0:	687b      	ldr	r3, [r7, #4]
 80046f2:	2b00      	cmp	r3, #0
 80046f4:	d04f      	beq.n	8004796 <vPortFree+0xb2>
	{
		/* The memory being freed will have an BlockLink_t structure immediately
		before it. */
		puc -= xHeapStructSize;
 80046f6:	2308      	movs	r3, #8
 80046f8:	425b      	negs	r3, r3
 80046fa:	697a      	ldr	r2, [r7, #20]
 80046fc:	4413      	add	r3, r2
 80046fe:	617b      	str	r3, [r7, #20]

		/* This casting is to keep the compiler from issuing warnings. */
		pxLink = ( void * ) puc;
 8004700:	697b      	ldr	r3, [r7, #20]
 8004702:	613b      	str	r3, [r7, #16]

		/* Check the block is actually allocated. */
		configASSERT( ( pxLink->xBlockSize & xBlockAllocatedBit ) != 0 );
 8004704:	693b      	ldr	r3, [r7, #16]
 8004706:	685a      	ldr	r2, [r3, #4]
 8004708:	4b25      	ldr	r3, [pc, #148]	@ (80047a0 <vPortFree+0xbc>)
 800470a:	681b      	ldr	r3, [r3, #0]
 800470c:	4013      	ands	r3, r2
 800470e:	2b00      	cmp	r3, #0
 8004710:	d10b      	bne.n	800472a <vPortFree+0x46>
	__asm volatile
 8004712:	f04f 0350 	mov.w	r3, #80	@ 0x50
 8004716:	f383 8811 	msr	BASEPRI, r3
 800471a:	f3bf 8f6f 	isb	sy
 800471e:	f3bf 8f4f 	dsb	sy
 8004722:	60fb      	str	r3, [r7, #12]
}
 8004724:	bf00      	nop
 8004726:	bf00      	nop
 8004728:	e7fd      	b.n	8004726 <vPortFree+0x42>
		configASSERT( pxLink->pxNextFreeBlock == NULL );
 800472a:	693b      	ldr	r3, [r7, #16]
 800472c:	681b      	ldr	r3, [r3, #0]
 800472e:	2b00      	cmp	r3, #0
 8004730:	d00b      	beq.n	800474a <vPortFree+0x66>
	__asm volatile
 8004732:	f04f 0350 	mov.w	r3, #80	@ 0x50
 8004736:	f383 8811 	msr	BASEPRI, r3
 800473a:	f3bf 8f6f 	isb	sy
 800473e:	f3bf 8f4f 	dsb	sy
 8004742:	60bb      	str	r3, [r7, #8]
}
 8004744:	bf00      	nop
 8004746:	bf00      	nop
 8004748:	e7fd      	b.n	8004746 <vPortFree+0x62>

		if( ( pxLink->xBlockSize & xBlockAllocatedBit ) != 0 )
 800474a:	693b      	ldr	r3, [r7, #16]
 800474c:	685a      	ldr	r2, [r3, #4]
 800474e:	4b14      	ldr	r3, [pc, #80]	@ (80047a0 <vPortFree+0xbc>)
 8004750:	681b      	ldr	r3, [r3, #0]
 8004752:	4013      	ands	r3, r2
 8004754:	2b00      	cmp	r3, #0
 8004756:	d01e      	beq.n	8004796 <vPortFree+0xb2>
		{
			if( pxLink->pxNextFreeBlock == NULL )
 8004758:	693b      	ldr	r3, [r7, #16]
 800475a:	681b      	ldr	r3, [r3, #0]
 800475c:	2b00      	cmp	r3, #0
 800475e:	d11a      	bne.n	8004796 <vPortFree+0xb2>
			{
				/* The block is being returned to the heap - it is no longer
				allocated. */
				pxLink->xBlockSize &= ~xBlockAllocatedBit;
 8004760:	693b      	ldr	r3, [r7, #16]
 8004762:	685a      	ldr	r2, [r3, #4]
 8004764:	4b0e      	ldr	r3, [pc, #56]	@ (80047a0 <vPortFree+0xbc>)
 8004766:	681b      	ldr	r3, [r3, #0]
 8004768:	43db      	mvns	r3, r3
 800476a:	401a      	ands	r2, r3
 800476c:	693b      	ldr	r3, [r7, #16]
 800476e:	605a      	str	r2, [r3, #4]

				vTaskSuspendAll();
 8004770:	f7ff f9aa 	bl	8003ac8 <vTaskSuspendAll>
				{
					/* Add this block to the list of free blocks. */
					xFreeBytesRemaining += pxLink->xBlockSize;
 8004774:	693b      	ldr	r3, [r7, #16]
 8004776:	685a      	ldr	r2, [r3, #4]
 8004778:	4b0a      	ldr	r3, [pc, #40]	@ (80047a4 <vPortFree+0xc0>)
 800477a:	681b      	ldr	r3, [r3, #0]
 800477c:	4413      	add	r3, r2
 800477e:	4a09      	ldr	r2, [pc, #36]	@ (80047a4 <vPortFree+0xc0>)
 8004780:	6013      	str	r3, [r2, #0]
					traceFREE( pv, pxLink->xBlockSize );
					prvInsertBlockIntoFreeList( ( ( BlockLink_t * ) pxLink ) );
 8004782:	6938      	ldr	r0, [r7, #16]
 8004784:	f000 f874 	bl	8004870 <prvInsertBlockIntoFreeList>
					xNumberOfSuccessfulFrees++;
 8004788:	4b07      	ldr	r3, [pc, #28]	@ (80047a8 <vPortFree+0xc4>)
 800478a:	681b      	ldr	r3, [r3, #0]
 800478c:	3301      	adds	r3, #1
 800478e:	4a06      	ldr	r2, [pc, #24]	@ (80047a8 <vPortFree+0xc4>)
 8004790:	6013      	str	r3, [r2, #0]
				}
				( void ) xTaskResumeAll();
 8004792:	f7ff f9a7 	bl	8003ae4 <xTaskResumeAll>
		else
		{
			mtCOVERAGE_TEST_MARKER();
		}
	}
}
 8004796:	bf00      	nop
 8004798:	3718      	adds	r7, #24
 800479a:	46bd      	mov	sp, r7
 800479c:	bd80      	pop	{r7, pc}
 800479e:	bf00      	nop
 80047a0:	2000106c 	.word	0x2000106c
 80047a4:	2000105c 	.word	0x2000105c
 80047a8:	20001068 	.word	0x20001068

080047ac <prvHeapInit>:
	/* This just exists to keep the linker quiet. */
}
/*-----------------------------------------------------------*/

static void prvHeapInit( void )
{
 80047ac:	b480      	push	{r7}
 80047ae:	b085      	sub	sp, #20
 80047b0:	af00      	add	r7, sp, #0
BlockLink_t *pxFirstFreeBlock;
uint8_t *pucAlignedHeap;
size_t uxAddress;
size_t xTotalHeapSize = configTOTAL_HEAP_SIZE;
 80047b2:	f640 33b8 	movw	r3, #3000	@ 0xbb8
 80047b6:	60bb      	str	r3, [r7, #8]

	/* Ensure the heap starts on a correctly aligned boundary. */
	uxAddress = ( size_t ) ucHeap;
 80047b8:	4b27      	ldr	r3, [pc, #156]	@ (8004858 <prvHeapInit+0xac>)
 80047ba:	60fb      	str	r3, [r7, #12]

	if( ( uxAddress & portBYTE_ALIGNMENT_MASK ) != 0 )
 80047bc:	68fb      	ldr	r3, [r7, #12]
 80047be:	f003 0307 	and.w	r3, r3, #7
 80047c2:	2b00      	cmp	r3, #0
 80047c4:	d00c      	beq.n	80047e0 <prvHeapInit+0x34>
	{
		uxAddress += ( portBYTE_ALIGNMENT - 1 );
 80047c6:	68fb      	ldr	r3, [r7, #12]
 80047c8:	3307      	adds	r3, #7
 80047ca:	60fb      	str	r3, [r7, #12]
		uxAddress &= ~( ( size_t ) portBYTE_ALIGNMENT_MASK );
 80047cc:	68fb      	ldr	r3, [r7, #12]
 80047ce:	f023 0307 	bic.w	r3, r3, #7
 80047d2:	60fb      	str	r3, [r7, #12]
		xTotalHeapSize -= uxAddress - ( size_t ) ucHeap;
 80047d4:	68ba      	ldr	r2, [r7, #8]
 80047d6:	68fb      	ldr	r3, [r7, #12]
 80047d8:	1ad3      	subs	r3, r2, r3
 80047da:	4a1f      	ldr	r2, [pc, #124]	@ (8004858 <prvHeapInit+0xac>)
 80047dc:	4413      	add	r3, r2
 80047de:	60bb      	str	r3, [r7, #8]
	}

	pucAlignedHeap = ( uint8_t * ) uxAddress;
 80047e0:	68fb      	ldr	r3, [r7, #12]
 80047e2:	607b      	str	r3, [r7, #4]

	/* xStart is used to hold a pointer to the first item in the list of free
	blocks.  The void cast is used to prevent compiler warnings. */
	xStart.pxNextFreeBlock = ( void * ) pucAlignedHeap;
 80047e4:	4a1d      	ldr	r2, [pc, #116]	@ (800485c <prvHeapInit+0xb0>)
 80047e6:	687b      	ldr	r3, [r7, #4]
 80047e8:	6013      	str	r3, [r2, #0]
	xStart.xBlockSize = ( size_t ) 0;
 80047ea:	4b1c      	ldr	r3, [pc, #112]	@ (800485c <prvHeapInit+0xb0>)
 80047ec:	2200      	movs	r2, #0
 80047ee:	605a      	str	r2, [r3, #4]

	/* pxEnd is used to mark the end of the list of free blocks and is inserted
	at the end of the heap space. */
	uxAddress = ( ( size_t ) pucAlignedHeap ) + xTotalHeapSize;
 80047f0:	687b      	ldr	r3, [r7, #4]
 80047f2:	68ba      	ldr	r2, [r7, #8]
 80047f4:	4413      	add	r3, r2
 80047f6:	60fb      	str	r3, [r7, #12]
	uxAddress -= xHeapStructSize;
 80047f8:	2208      	movs	r2, #8
 80047fa:	68fb      	ldr	r3, [r7, #12]
 80047fc:	1a9b      	subs	r3, r3, r2
 80047fe:	60fb      	str	r3, [r7, #12]
	uxAddress &= ~( ( size_t ) portBYTE_ALIGNMENT_MASK );
 8004800:	68fb      	ldr	r3, [r7, #12]
 8004802:	f023 0307 	bic.w	r3, r3, #7
 8004806:	60fb      	str	r3, [r7, #12]
	pxEnd = ( void * ) uxAddress;
 8004808:	68fb      	ldr	r3, [r7, #12]
 800480a:	4a15      	ldr	r2, [pc, #84]	@ (8004860 <prvHeapInit+0xb4>)
 800480c:	6013      	str	r3, [r2, #0]
	pxEnd->xBlockSize = 0;
 800480e:	4b14      	ldr	r3, [pc, #80]	@ (8004860 <prvHeapInit+0xb4>)
 8004810:	681b      	ldr	r3, [r3, #0]
 8004812:	2200      	movs	r2, #0
 8004814:	605a      	str	r2, [r3, #4]
	pxEnd->pxNextFreeBlock = NULL;
 8004816:	4b12      	ldr	r3, [pc, #72]	@ (8004860 <prvHeapInit+0xb4>)
 8004818:	681b      	ldr	r3, [r3, #0]
 800481a:	2200      	movs	r2, #0
 800481c:	601a      	str	r2, [r3, #0]

	/* To start with there is a single free block that is sized to take up the
	entire heap space, minus the space taken by pxEnd. */
	pxFirstFreeBlock = ( void * ) pucAlignedHeap;
 800481e:	687b      	ldr	r3, [r7, #4]
 8004820:	603b      	str	r3, [r7, #0]
	pxFirstFreeBlock->xBlockSize = uxAddress - ( size_t ) pxFirstFreeBlock;
 8004822:	683b      	ldr	r3, [r7, #0]
 8004824:	68fa      	ldr	r2, [r7, #12]
 8004826:	1ad2      	subs	r2, r2, r3
 8004828:	683b      	ldr	r3, [r7, #0]
 800482a:	605a      	str	r2, [r3, #4]
	pxFirstFreeBlock->pxNextFreeBlock = pxEnd;
 800482c:	4b0c      	ldr	r3, [pc, #48]	@ (8004860 <prvHeapInit+0xb4>)
 800482e:	681a      	ldr	r2, [r3, #0]
 8004830:	683b      	ldr	r3, [r7, #0]
 8004832:	601a      	str	r2, [r3, #0]

	/* Only one block exists - and it covers the entire usable heap space. */
	xMinimumEverFreeBytesRemaining = pxFirstFreeBlock->xBlockSize;
 8004834:	683b      	ldr	r3, [r7, #0]
 8004836:	685b      	ldr	r3, [r3, #4]
 8004838:	4a0a      	ldr	r2, [pc, #40]	@ (8004864 <prvHeapInit+0xb8>)
 800483a:	6013      	str	r3, [r2, #0]
	xFreeBytesRemaining = pxFirstFreeBlock->xBlockSize;
 800483c:	683b      	ldr	r3, [r7, #0]
 800483e:	685b      	ldr	r3, [r3, #4]
 8004840:	4a09      	ldr	r2, [pc, #36]	@ (8004868 <prvHeapInit+0xbc>)
 8004842:	6013      	str	r3, [r2, #0]

	/* Work out the position of the top bit in a size_t variable. */
	xBlockAllocatedBit = ( ( size_t ) 1 ) << ( ( sizeof( size_t ) * heapBITS_PER_BYTE ) - 1 );
 8004844:	4b09      	ldr	r3, [pc, #36]	@ (800486c <prvHeapInit+0xc0>)
 8004846:	f04f 4200 	mov.w	r2, #2147483648	@ 0x80000000
 800484a:	601a      	str	r2, [r3, #0]
}
 800484c:	bf00      	nop
 800484e:	3714      	adds	r7, #20
 8004850:	46bd      	mov	sp, r7
 8004852:	f85d 7b04 	ldr.w	r7, [sp], #4
 8004856:	4770      	bx	lr
 8004858:	20000498 	.word	0x20000498
 800485c:	20001050 	.word	0x20001050
 8004860:	20001058 	.word	0x20001058
 8004864:	20001060 	.word	0x20001060
 8004868:	2000105c 	.word	0x2000105c
 800486c:	2000106c 	.word	0x2000106c

08004870 <prvInsertBlockIntoFreeList>:
/*-----------------------------------------------------------*/

static void prvInsertBlockIntoFreeList( BlockLink_t *pxBlockToInsert )
{
 8004870:	b480      	push	{r7}
 8004872:	b085      	sub	sp, #20
 8004874:	af00      	add	r7, sp, #0
 8004876:	6078      	str	r0, [r7, #4]
BlockLink_t *pxIterator;
uint8_t *puc;

	/* Iterate through the list until a block is found that has a higher address
	than the block being inserted. */
	for( pxIterator = &xStart; pxIterator->pxNextFreeBlock < pxBlockToInsert; pxIterator = pxIterator->pxNextFreeBlock )
 8004878:	4b28      	ldr	r3, [pc, #160]	@ (800491c <prvInsertBlockIntoFreeList+0xac>)
 800487a:	60fb      	str	r3, [r7, #12]
 800487c:	e002      	b.n	8004884 <prvInsertBlockIntoFreeList+0x14>
 800487e:	68fb      	ldr	r3, [r7, #12]
 8004880:	681b      	ldr	r3, [r3, #0]
 8004882:	60fb      	str	r3, [r7, #12]
 8004884:	68fb      	ldr	r3, [r7, #12]
 8004886:	681b      	ldr	r3, [r3, #0]
 8004888:	687a      	ldr	r2, [r7, #4]
 800488a:	429a      	cmp	r2, r3
 800488c:	d8f7      	bhi.n	800487e <prvInsertBlockIntoFreeList+0xe>
		/* Nothing to do here, just iterate to the right position. */
	}

	/* Do the block being inserted, and the block it is being inserted after
	make a contiguous block of memory? */
	puc = ( uint8_t * ) pxIterator;
 800488e:	68fb      	ldr	r3, [r7, #12]
 8004890:	60bb      	str	r3, [r7, #8]
	if( ( puc + pxIterator->xBlockSize ) == ( uint8_t * ) pxBlockToInsert )
 8004892:	68fb      	ldr	r3, [r7, #12]
 8004894:	685b      	ldr	r3, [r3, #4]
 8004896:	68ba      	ldr	r2, [r7, #8]
 8004898:	4413      	add	r3, r2
 800489a:	687a      	ldr	r2, [r7, #4]
 800489c:	429a      	cmp	r2, r3
 800489e:	d108      	bne.n	80048b2 <prvInsertBlockIntoFreeList+0x42>
	{
		pxIterator->xBlockSize += pxBlockToInsert->xBlockSize;
 80048a0:	68fb      	ldr	r3, [r7, #12]
 80048a2:	685a      	ldr	r2, [r3, #4]
 80048a4:	687b      	ldr	r3, [r7, #4]
 80048a6:	685b      	ldr	r3, [r3, #4]
 80048a8:	441a      	add	r2, r3
 80048aa:	68fb      	ldr	r3, [r7, #12]
 80048ac:	605a      	str	r2, [r3, #4]
		pxBlockToInsert = pxIterator;
 80048ae:	68fb      	ldr	r3, [r7, #12]
 80048b0:	607b      	str	r3, [r7, #4]
		mtCOVERAGE_TEST_MARKER();
	}

	/* Do the block being inserted, and the block it is being inserted before
	make a contiguous block of memory? */
	puc = ( uint8_t * ) pxBlockToInsert;
 80048b2:	687b      	ldr	r3, [r7, #4]
 80048b4:	60bb      	str	r3, [r7, #8]
	if( ( puc + pxBlockToInsert->xBlockSize ) == ( uint8_t * ) pxIterator->pxNextFreeBlock )
 80048b6:	687b      	ldr	r3, [r7, #4]
 80048b8:	685b      	ldr	r3, [r3, #4]
 80048ba:	68ba      	ldr	r2, [r7, #8]
 80048bc:	441a      	add	r2, r3
 80048be:	68fb      	ldr	r3, [r7, #12]
 80048c0:	681b      	ldr	r3, [r3, #0]
 80048c2:	429a      	cmp	r2, r3
 80048c4:	d118      	bne.n	80048f8 <prvInsertBlockIntoFreeList+0x88>
	{
		if( pxIterator->pxNextFreeBlock != pxEnd )
 80048c6:	68fb      	ldr	r3, [r7, #12]
 80048c8:	681a      	ldr	r2, [r3, #0]
 80048ca:	4b15      	ldr	r3, [pc, #84]	@ (8004920 <prvInsertBlockIntoFreeList+0xb0>)
 80048cc:	681b      	ldr	r3, [r3, #0]
 80048ce:	429a      	cmp	r2, r3
 80048d0:	d00d      	beq.n	80048ee <prvInsertBlockIntoFreeList+0x7e>
		{
			/* Form one big block from the two blocks. */
			pxBlockToInsert->xBlockSize += pxIterator->pxNextFreeBlock->xBlockSize;
 80048d2:	687b      	ldr	r3, [r7, #4]
 80048d4:	685a      	ldr	r2, [r3, #4]
 80048d6:	68fb      	ldr	r3, [r7, #12]
 80048d8:	681b      	ldr	r3, [r3, #0]
 80048da:	685b      	ldr	r3, [r3, #4]
 80048dc:	441a      	add	r2, r3
 80048de:	687b      	ldr	r3, [r7, #4]
 80048e0:	605a      	str	r2, [r3, #4]
			pxBlockToInsert->pxNextFreeBlock = pxIterator->pxNextFreeBlock->pxNextFreeBlock;
 80048e2:	68fb      	ldr	r3, [r7, #12]
 80048e4:	681b      	ldr	r3, [r3, #0]
 80048e6:	681a      	ldr	r2, [r3, #0]
 80048e8:	687b      	ldr	r3, [r7, #4]
 80048ea:	601a      	str	r2, [r3, #0]
 80048ec:	e008      	b.n	8004900 <prvInsertBlockIntoFreeList+0x90>
		}
		else
		{
			pxBlockToInsert->pxNextFreeBlock = pxEnd;
 80048ee:	4b0c      	ldr	r3, [pc, #48]	@ (8004920 <prvInsertBlockIntoFreeList+0xb0>)
 80048f0:	681a      	ldr	r2, [r3, #0]
 80048f2:	687b      	ldr	r3, [r7, #4]
 80048f4:	601a      	str	r2, [r3, #0]
 80048f6:	e003      	b.n	8004900 <prvInsertBlockIntoFreeList+0x90>
		}
	}
	else
	{
		pxBlockToInsert->pxNextFreeBlock = pxIterator->pxNextFreeBlock;
 80048f8:	68fb      	ldr	r3, [r7, #12]
 80048fa:	681a      	ldr	r2, [r3, #0]
 80048fc:	687b      	ldr	r3, [r7, #4]
 80048fe:	601a      	str	r2, [r3, #0]

	/* If the block being inserted plugged a gab, so was merged with the block
	before and the block after, then it's pxNextFreeBlock pointer will have
	already been set, and should not be set here as that would make it point
	to itself. */
	if( pxIterator != pxBlockToInsert )
 8004900:	68fa      	ldr	r2, [r7, #12]
 8004902:	687b      	ldr	r3, [r7, #4]
 8004904:	429a      	cmp	r2, r3
 8004906:	d002      	beq.n	800490e <prvInsertBlockIntoFreeList+0x9e>
	{
		pxIterator->pxNextFreeBlock = pxBlockToInsert;
 8004908:	68fb      	ldr	r3, [r7, #12]
 800490a:	687a      	ldr	r2, [r7, #4]
 800490c:	601a      	str	r2, [r3, #0]
	}
	else
	{
		mtCOVERAGE_TEST_MARKER();
	}
}
 800490e:	bf00      	nop
 8004910:	3714      	adds	r7, #20
 8004912:	46bd      	mov	sp, r7
 8004914:	f85d 7b04 	ldr.w	r7, [sp], #4
 8004918:	4770      	bx	lr
 800491a:	bf00      	nop
 800491c:	20001050 	.word	0x20001050
 8004920:	20001058 	.word	0x20001058

08004924 <siprintf>:
 8004924:	b40e      	push	{r1, r2, r3}
 8004926:	b510      	push	{r4, lr}
 8004928:	b09d      	sub	sp, #116	@ 0x74
 800492a:	ab1f      	add	r3, sp, #124	@ 0x7c
 800492c:	9002      	str	r0, [sp, #8]
 800492e:	9006      	str	r0, [sp, #24]
 8004930:	f06f 4100 	mvn.w	r1, #2147483648	@ 0x80000000
 8004934:	480a      	ldr	r0, [pc, #40]	@ (8004960 <siprintf+0x3c>)
 8004936:	9107      	str	r1, [sp, #28]
 8004938:	9104      	str	r1, [sp, #16]
 800493a:	490a      	ldr	r1, [pc, #40]	@ (8004964 <siprintf+0x40>)
 800493c:	f853 2b04 	ldr.w	r2, [r3], #4
 8004940:	9105      	str	r1, [sp, #20]
 8004942:	2400      	movs	r4, #0
 8004944:	a902      	add	r1, sp, #8
 8004946:	6800      	ldr	r0, [r0, #0]
 8004948:	9301      	str	r3, [sp, #4]
 800494a:	941b      	str	r4, [sp, #108]	@ 0x6c
 800494c:	f000 f9a2 	bl	8004c94 <_svfiprintf_r>
 8004950:	9b02      	ldr	r3, [sp, #8]
 8004952:	701c      	strb	r4, [r3, #0]
 8004954:	b01d      	add	sp, #116	@ 0x74
 8004956:	e8bd 4010 	ldmia.w	sp!, {r4, lr}
 800495a:	b003      	add	sp, #12
 800495c:	4770      	bx	lr
 800495e:	bf00      	nop
 8004960:	20000010 	.word	0x20000010
 8004964:	ffff0208 	.word	0xffff0208

08004968 <memset>:
 8004968:	4402      	add	r2, r0
 800496a:	4603      	mov	r3, r0
 800496c:	4293      	cmp	r3, r2
 800496e:	d100      	bne.n	8004972 <memset+0xa>
 8004970:	4770      	bx	lr
 8004972:	f803 1b01 	strb.w	r1, [r3], #1
 8004976:	e7f9      	b.n	800496c <memset+0x4>

08004978 <__errno>:
 8004978:	4b01      	ldr	r3, [pc, #4]	@ (8004980 <__errno+0x8>)
 800497a:	6818      	ldr	r0, [r3, #0]
 800497c:	4770      	bx	lr
 800497e:	bf00      	nop
 8004980:	20000010 	.word	0x20000010

08004984 <__libc_init_array>:
 8004984:	b570      	push	{r4, r5, r6, lr}
 8004986:	4d0d      	ldr	r5, [pc, #52]	@ (80049bc <__libc_init_array+0x38>)
 8004988:	4c0d      	ldr	r4, [pc, #52]	@ (80049c0 <__libc_init_array+0x3c>)
 800498a:	1b64      	subs	r4, r4, r5
 800498c:	10a4      	asrs	r4, r4, #2
 800498e:	2600      	movs	r6, #0
 8004990:	42a6      	cmp	r6, r4
 8004992:	d109      	bne.n	80049a8 <__libc_init_array+0x24>
 8004994:	4d0b      	ldr	r5, [pc, #44]	@ (80049c4 <__libc_init_array+0x40>)
 8004996:	4c0c      	ldr	r4, [pc, #48]	@ (80049c8 <__libc_init_array+0x44>)
 8004998:	f000 fc64 	bl	8005264 <_init>
 800499c:	1b64      	subs	r4, r4, r5
 800499e:	10a4      	asrs	r4, r4, #2
 80049a0:	2600      	movs	r6, #0
 80049a2:	42a6      	cmp	r6, r4
 80049a4:	d105      	bne.n	80049b2 <__libc_init_array+0x2e>
 80049a6:	bd70      	pop	{r4, r5, r6, pc}
 80049a8:	f855 3b04 	ldr.w	r3, [r5], #4
 80049ac:	4798      	blx	r3
 80049ae:	3601      	adds	r6, #1
 80049b0:	e7ee      	b.n	8004990 <__libc_init_array+0xc>
 80049b2:	f855 3b04 	ldr.w	r3, [r5], #4
 80049b6:	4798      	blx	r3
 80049b8:	3601      	adds	r6, #1
 80049ba:	e7f2      	b.n	80049a2 <__libc_init_array+0x1e>
 80049bc:	08005360 	.word	0x08005360
 80049c0:	08005360 	.word	0x08005360
 80049c4:	08005360 	.word	0x08005360
 80049c8:	08005364 	.word	0x08005364

080049cc <__retarget_lock_acquire_recursive>:
 80049cc:	4770      	bx	lr

080049ce <__retarget_lock_release_recursive>:
 80049ce:	4770      	bx	lr

080049d0 <memcpy>:
 80049d0:	440a      	add	r2, r1
 80049d2:	4291      	cmp	r1, r2
 80049d4:	f100 33ff 	add.w	r3, r0, #4294967295
 80049d8:	d100      	bne.n	80049dc <memcpy+0xc>
 80049da:	4770      	bx	lr
 80049dc:	b510      	push	{r4, lr}
 80049de:	f811 4b01 	ldrb.w	r4, [r1], #1
 80049e2:	f803 4f01 	strb.w	r4, [r3, #1]!
 80049e6:	4291      	cmp	r1, r2
 80049e8:	d1f9      	bne.n	80049de <memcpy+0xe>
 80049ea:	bd10      	pop	{r4, pc}

080049ec <_free_r>:
 80049ec:	b538      	push	{r3, r4, r5, lr}
 80049ee:	4605      	mov	r5, r0
 80049f0:	2900      	cmp	r1, #0
 80049f2:	d041      	beq.n	8004a78 <_free_r+0x8c>
 80049f4:	f851 3c04 	ldr.w	r3, [r1, #-4]
 80049f8:	1f0c      	subs	r4, r1, #4
 80049fa:	2b00      	cmp	r3, #0
 80049fc:	bfb8      	it	lt
 80049fe:	18e4      	addlt	r4, r4, r3
 8004a00:	f000 f8e0 	bl	8004bc4 <__malloc_lock>
 8004a04:	4a1d      	ldr	r2, [pc, #116]	@ (8004a7c <_free_r+0x90>)
 8004a06:	6813      	ldr	r3, [r2, #0]
 8004a08:	b933      	cbnz	r3, 8004a18 <_free_r+0x2c>
 8004a0a:	6063      	str	r3, [r4, #4]
 8004a0c:	6014      	str	r4, [r2, #0]
 8004a0e:	4628      	mov	r0, r5
 8004a10:	e8bd 4038 	ldmia.w	sp!, {r3, r4, r5, lr}
 8004a14:	f000 b8dc 	b.w	8004bd0 <__malloc_unlock>
 8004a18:	42a3      	cmp	r3, r4
 8004a1a:	d908      	bls.n	8004a2e <_free_r+0x42>
 8004a1c:	6820      	ldr	r0, [r4, #0]
 8004a1e:	1821      	adds	r1, r4, r0
 8004a20:	428b      	cmp	r3, r1
 8004a22:	bf01      	itttt	eq
 8004a24:	6819      	ldreq	r1, [r3, #0]
 8004a26:	685b      	ldreq	r3, [r3, #4]
 8004a28:	1809      	addeq	r1, r1, r0
 8004a2a:	6021      	streq	r1, [r4, #0]
 8004a2c:	e7ed      	b.n	8004a0a <_free_r+0x1e>
 8004a2e:	461a      	mov	r2, r3
 8004a30:	685b      	ldr	r3, [r3, #4]
 8004a32:	b10b      	cbz	r3, 8004a38 <_free_r+0x4c>
 8004a34:	42a3      	cmp	r3, r4
 8004a36:	d9fa      	bls.n	8004a2e <_free_r+0x42>
 8004a38:	6811      	ldr	r1, [r2, #0]
 8004a3a:	1850      	adds	r0, r2, r1
 8004a3c:	42a0      	cmp	r0, r4
 8004a3e:	d10b      	bne.n	8004a58 <_free_r+0x6c>
 8004a40:	6820      	ldr	r0, [r4, #0]
 8004a42:	4401      	add	r1, r0
 8004a44:	1850      	adds	r0, r2, r1
 8004a46:	4283      	cmp	r3, r0
 8004a48:	6011      	str	r1, [r2, #0]
 8004a4a:	d1e0      	bne.n	8004a0e <_free_r+0x22>
 8004a4c:	6818      	ldr	r0, [r3, #0]
 8004a4e:	685b      	ldr	r3, [r3, #4]
 8004a50:	6053      	str	r3, [r2, #4]
 8004a52:	4408      	add	r0, r1
 8004a54:	6010      	str	r0, [r2, #0]
 8004a56:	e7da      	b.n	8004a0e <_free_r+0x22>
 8004a58:	d902      	bls.n	8004a60 <_free_r+0x74>
 8004a5a:	230c      	movs	r3, #12
 8004a5c:	602b      	str	r3, [r5, #0]
 8004a5e:	e7d6      	b.n	8004a0e <_free_r+0x22>
 8004a60:	6820      	ldr	r0, [r4, #0]
 8004a62:	1821      	adds	r1, r4, r0
 8004a64:	428b      	cmp	r3, r1
 8004a66:	bf04      	itt	eq
 8004a68:	6819      	ldreq	r1, [r3, #0]
 8004a6a:	685b      	ldreq	r3, [r3, #4]
 8004a6c:	6063      	str	r3, [r4, #4]
 8004a6e:	bf04      	itt	eq
 8004a70:	1809      	addeq	r1, r1, r0
 8004a72:	6021      	streq	r1, [r4, #0]
 8004a74:	6054      	str	r4, [r2, #4]
 8004a76:	e7ca      	b.n	8004a0e <_free_r+0x22>
 8004a78:	bd38      	pop	{r3, r4, r5, pc}
 8004a7a:	bf00      	nop
 8004a7c:	200011b4 	.word	0x200011b4

08004a80 <sbrk_aligned>:
 8004a80:	b570      	push	{r4, r5, r6, lr}
 8004a82:	4e0f      	ldr	r6, [pc, #60]	@ (8004ac0 <sbrk_aligned+0x40>)
 8004a84:	460c      	mov	r4, r1
 8004a86:	6831      	ldr	r1, [r6, #0]
 8004a88:	4605      	mov	r5, r0
 8004a8a:	b911      	cbnz	r1, 8004a92 <sbrk_aligned+0x12>
 8004a8c:	f000 fba4 	bl	80051d8 <_sbrk_r>
 8004a90:	6030      	str	r0, [r6, #0]
 8004a92:	4621      	mov	r1, r4
 8004a94:	4628      	mov	r0, r5
 8004a96:	f000 fb9f 	bl	80051d8 <_sbrk_r>
 8004a9a:	1c43      	adds	r3, r0, #1
 8004a9c:	d103      	bne.n	8004aa6 <sbrk_aligned+0x26>
 8004a9e:	f04f 34ff 	mov.w	r4, #4294967295
 8004aa2:	4620      	mov	r0, r4
 8004aa4:	bd70      	pop	{r4, r5, r6, pc}
 8004aa6:	1cc4      	adds	r4, r0, #3
 8004aa8:	f024 0403 	bic.w	r4, r4, #3
 8004aac:	42a0      	cmp	r0, r4
 8004aae:	d0f8      	beq.n	8004aa2 <sbrk_aligned+0x22>
 8004ab0:	1a21      	subs	r1, r4, r0
 8004ab2:	4628      	mov	r0, r5
 8004ab4:	f000 fb90 	bl	80051d8 <_sbrk_r>
 8004ab8:	3001      	adds	r0, #1
 8004aba:	d1f2      	bne.n	8004aa2 <sbrk_aligned+0x22>
 8004abc:	e7ef      	b.n	8004a9e <sbrk_aligned+0x1e>
 8004abe:	bf00      	nop
 8004ac0:	200011b0 	.word	0x200011b0

08004ac4 <_malloc_r>:
 8004ac4:	e92d 43f8 	stmdb	sp!, {r3, r4, r5, r6, r7, r8, r9, lr}
 8004ac8:	1ccd      	adds	r5, r1, #3
 8004aca:	f025 0503 	bic.w	r5, r5, #3
 8004ace:	3508      	adds	r5, #8
 8004ad0:	2d0c      	cmp	r5, #12
 8004ad2:	bf38      	it	cc
 8004ad4:	250c      	movcc	r5, #12
 8004ad6:	2d00      	cmp	r5, #0
 8004ad8:	4606      	mov	r6, r0
 8004ada:	db01      	blt.n	8004ae0 <_malloc_r+0x1c>
 8004adc:	42a9      	cmp	r1, r5
 8004ade:	d904      	bls.n	8004aea <_malloc_r+0x26>
 8004ae0:	230c      	movs	r3, #12
 8004ae2:	6033      	str	r3, [r6, #0]
 8004ae4:	2000      	movs	r0, #0
 8004ae6:	e8bd 83f8 	ldmia.w	sp!, {r3, r4, r5, r6, r7, r8, r9, pc}
 8004aea:	f8df 80d4 	ldr.w	r8, [pc, #212]	@ 8004bc0 <_malloc_r+0xfc>
 8004aee:	f000 f869 	bl	8004bc4 <__malloc_lock>
 8004af2:	f8d8 3000 	ldr.w	r3, [r8]
 8004af6:	461c      	mov	r4, r3
 8004af8:	bb44      	cbnz	r4, 8004b4c <_malloc_r+0x88>
 8004afa:	4629      	mov	r1, r5
 8004afc:	4630      	mov	r0, r6
 8004afe:	f7ff ffbf 	bl	8004a80 <sbrk_aligned>
 8004b02:	1c43      	adds	r3, r0, #1
 8004b04:	4604      	mov	r4, r0
 8004b06:	d158      	bne.n	8004bba <_malloc_r+0xf6>
 8004b08:	f8d8 4000 	ldr.w	r4, [r8]
 8004b0c:	4627      	mov	r7, r4
 8004b0e:	2f00      	cmp	r7, #0
 8004b10:	d143      	bne.n	8004b9a <_malloc_r+0xd6>
 8004b12:	2c00      	cmp	r4, #0
 8004b14:	d04b      	beq.n	8004bae <_malloc_r+0xea>
 8004b16:	6823      	ldr	r3, [r4, #0]
 8004b18:	4639      	mov	r1, r7
 8004b1a:	4630      	mov	r0, r6
 8004b1c:	eb04 0903 	add.w	r9, r4, r3
 8004b20:	f000 fb5a 	bl	80051d8 <_sbrk_r>
 8004b24:	4581      	cmp	r9, r0
 8004b26:	d142      	bne.n	8004bae <_malloc_r+0xea>
 8004b28:	6821      	ldr	r1, [r4, #0]
 8004b2a:	1a6d      	subs	r5, r5, r1
 8004b2c:	4629      	mov	r1, r5
 8004b2e:	4630      	mov	r0, r6
 8004b30:	f7ff ffa6 	bl	8004a80 <sbrk_aligned>
 8004b34:	3001      	adds	r0, #1
 8004b36:	d03a      	beq.n	8004bae <_malloc_r+0xea>
 8004b38:	6823      	ldr	r3, [r4, #0]
 8004b3a:	442b      	add	r3, r5
 8004b3c:	6023      	str	r3, [r4, #0]
 8004b3e:	f8d8 3000 	ldr.w	r3, [r8]
 8004b42:	685a      	ldr	r2, [r3, #4]
 8004b44:	bb62      	cbnz	r2, 8004ba0 <_malloc_r+0xdc>
 8004b46:	f8c8 7000 	str.w	r7, [r8]
 8004b4a:	e00f      	b.n	8004b6c <_malloc_r+0xa8>
 8004b4c:	6822      	ldr	r2, [r4, #0]
 8004b4e:	1b52      	subs	r2, r2, r5
 8004b50:	d420      	bmi.n	8004b94 <_malloc_r+0xd0>
 8004b52:	2a0b      	cmp	r2, #11
 8004b54:	d917      	bls.n	8004b86 <_malloc_r+0xc2>
 8004b56:	1961      	adds	r1, r4, r5
 8004b58:	42a3      	cmp	r3, r4
 8004b5a:	6025      	str	r5, [r4, #0]
 8004b5c:	bf18      	it	ne
 8004b5e:	6059      	strne	r1, [r3, #4]
 8004b60:	6863      	ldr	r3, [r4, #4]
 8004b62:	bf08      	it	eq
 8004b64:	f8c8 1000 	streq.w	r1, [r8]
 8004b68:	5162      	str	r2, [r4, r5]
 8004b6a:	604b      	str	r3, [r1, #4]
 8004b6c:	4630      	mov	r0, r6
 8004b6e:	f000 f82f 	bl	8004bd0 <__malloc_unlock>
 8004b72:	f104 000b 	add.w	r0, r4, #11
 8004b76:	1d23      	adds	r3, r4, #4
 8004b78:	f020 0007 	bic.w	r0, r0, #7
 8004b7c:	1ac2      	subs	r2, r0, r3
 8004b7e:	bf1c      	itt	ne
 8004b80:	1a1b      	subne	r3, r3, r0
 8004b82:	50a3      	strne	r3, [r4, r2]
 8004b84:	e7af      	b.n	8004ae6 <_malloc_r+0x22>
 8004b86:	6862      	ldr	r2, [r4, #4]
 8004b88:	42a3      	cmp	r3, r4
 8004b8a:	bf0c      	ite	eq
 8004b8c:	f8c8 2000 	streq.w	r2, [r8]
 8004b90:	605a      	strne	r2, [r3, #4]
 8004b92:	e7eb      	b.n	8004b6c <_malloc_r+0xa8>
 8004b94:	4623      	mov	r3, r4
 8004b96:	6864      	ldr	r4, [r4, #4]
 8004b98:	e7ae      	b.n	8004af8 <_malloc_r+0x34>
 8004b9a:	463c      	mov	r4, r7
 8004b9c:	687f      	ldr	r7, [r7, #4]
 8004b9e:	e7b6      	b.n	8004b0e <_malloc_r+0x4a>
 8004ba0:	461a      	mov	r2, r3
 8004ba2:	685b      	ldr	r3, [r3, #4]
 8004ba4:	42a3      	cmp	r3, r4
 8004ba6:	d1fb      	bne.n	8004ba0 <_malloc_r+0xdc>
 8004ba8:	2300      	movs	r3, #0
 8004baa:	6053      	str	r3, [r2, #4]
 8004bac:	e7de      	b.n	8004b6c <_malloc_r+0xa8>
 8004bae:	230c      	movs	r3, #12
 8004bb0:	6033      	str	r3, [r6, #0]
 8004bb2:	4630      	mov	r0, r6
 8004bb4:	f000 f80c 	bl	8004bd0 <__malloc_unlock>
 8004bb8:	e794      	b.n	8004ae4 <_malloc_r+0x20>
 8004bba:	6005      	str	r5, [r0, #0]
 8004bbc:	e7d6      	b.n	8004b6c <_malloc_r+0xa8>
 8004bbe:	bf00      	nop
 8004bc0:	200011b4 	.word	0x200011b4

08004bc4 <__malloc_lock>:
 8004bc4:	4801      	ldr	r0, [pc, #4]	@ (8004bcc <__malloc_lock+0x8>)
 8004bc6:	f7ff bf01 	b.w	80049cc <__retarget_lock_acquire_recursive>
 8004bca:	bf00      	nop
 8004bcc:	200011ac 	.word	0x200011ac

08004bd0 <__malloc_unlock>:
 8004bd0:	4801      	ldr	r0, [pc, #4]	@ (8004bd8 <__malloc_unlock+0x8>)
 8004bd2:	f7ff befc 	b.w	80049ce <__retarget_lock_release_recursive>
 8004bd6:	bf00      	nop
 8004bd8:	200011ac 	.word	0x200011ac

08004bdc <__ssputs_r>:
 8004bdc:	e92d 47f0 	stmdb	sp!, {r4, r5, r6, r7, r8, r9, sl, lr}
 8004be0:	688e      	ldr	r6, [r1, #8]
 8004be2:	461f      	mov	r7, r3
 8004be4:	42be      	cmp	r6, r7
 8004be6:	680b      	ldr	r3, [r1, #0]
 8004be8:	4682      	mov	sl, r0
 8004bea:	460c      	mov	r4, r1
 8004bec:	4690      	mov	r8, r2
 8004bee:	d82d      	bhi.n	8004c4c <__ssputs_r+0x70>
 8004bf0:	f9b1 200c 	ldrsh.w	r2, [r1, #12]
 8004bf4:	f412 6f90 	tst.w	r2, #1152	@ 0x480
 8004bf8:	d026      	beq.n	8004c48 <__ssputs_r+0x6c>
 8004bfa:	6965      	ldr	r5, [r4, #20]
 8004bfc:	6909      	ldr	r1, [r1, #16]
 8004bfe:	eb05 0545 	add.w	r5, r5, r5, lsl #1
 8004c02:	eba3 0901 	sub.w	r9, r3, r1
 8004c06:	eb05 75d5 	add.w	r5, r5, r5, lsr #31
 8004c0a:	1c7b      	adds	r3, r7, #1
 8004c0c:	444b      	add	r3, r9
 8004c0e:	106d      	asrs	r5, r5, #1
 8004c10:	429d      	cmp	r5, r3
 8004c12:	bf38      	it	cc
 8004c14:	461d      	movcc	r5, r3
 8004c16:	0553      	lsls	r3, r2, #21
 8004c18:	d527      	bpl.n	8004c6a <__ssputs_r+0x8e>
 8004c1a:	4629      	mov	r1, r5
 8004c1c:	f7ff ff52 	bl	8004ac4 <_malloc_r>
 8004c20:	4606      	mov	r6, r0
 8004c22:	b360      	cbz	r0, 8004c7e <__ssputs_r+0xa2>
 8004c24:	6921      	ldr	r1, [r4, #16]
 8004c26:	464a      	mov	r2, r9
 8004c28:	f7ff fed2 	bl	80049d0 <memcpy>
 8004c2c:	89a3      	ldrh	r3, [r4, #12]
 8004c2e:	f423 6390 	bic.w	r3, r3, #1152	@ 0x480
 8004c32:	f043 0380 	orr.w	r3, r3, #128	@ 0x80
 8004c36:	81a3      	strh	r3, [r4, #12]
 8004c38:	6126      	str	r6, [r4, #16]
 8004c3a:	6165      	str	r5, [r4, #20]
 8004c3c:	444e      	add	r6, r9
 8004c3e:	eba5 0509 	sub.w	r5, r5, r9
 8004c42:	6026      	str	r6, [r4, #0]
 8004c44:	60a5      	str	r5, [r4, #8]
 8004c46:	463e      	mov	r6, r7
 8004c48:	42be      	cmp	r6, r7
 8004c4a:	d900      	bls.n	8004c4e <__ssputs_r+0x72>
 8004c4c:	463e      	mov	r6, r7
 8004c4e:	6820      	ldr	r0, [r4, #0]
 8004c50:	4632      	mov	r2, r6
 8004c52:	4641      	mov	r1, r8
 8004c54:	f000 faa6 	bl	80051a4 <memmove>
 8004c58:	68a3      	ldr	r3, [r4, #8]
 8004c5a:	1b9b      	subs	r3, r3, r6
 8004c5c:	60a3      	str	r3, [r4, #8]
 8004c5e:	6823      	ldr	r3, [r4, #0]
 8004c60:	4433      	add	r3, r6
 8004c62:	6023      	str	r3, [r4, #0]
 8004c64:	2000      	movs	r0, #0
 8004c66:	e8bd 87f0 	ldmia.w	sp!, {r4, r5, r6, r7, r8, r9, sl, pc}
 8004c6a:	462a      	mov	r2, r5
 8004c6c:	f000 fac4 	bl	80051f8 <_realloc_r>
 8004c70:	4606      	mov	r6, r0
 8004c72:	2800      	cmp	r0, #0
 8004c74:	d1e0      	bne.n	8004c38 <__ssputs_r+0x5c>
 8004c76:	6921      	ldr	r1, [r4, #16]
 8004c78:	4650      	mov	r0, sl
 8004c7a:	f7ff feb7 	bl	80049ec <_free_r>
 8004c7e:	230c      	movs	r3, #12
 8004c80:	f8ca 3000 	str.w	r3, [sl]
 8004c84:	89a3      	ldrh	r3, [r4, #12]
 8004c86:	f043 0340 	orr.w	r3, r3, #64	@ 0x40
 8004c8a:	81a3      	strh	r3, [r4, #12]
 8004c8c:	f04f 30ff 	mov.w	r0, #4294967295
 8004c90:	e7e9      	b.n	8004c66 <__ssputs_r+0x8a>
	...

08004c94 <_svfiprintf_r>:
 8004c94:	e92d 4ff0 	stmdb	sp!, {r4, r5, r6, r7, r8, r9, sl, fp, lr}
 8004c98:	4698      	mov	r8, r3
 8004c9a:	898b      	ldrh	r3, [r1, #12]
 8004c9c:	061b      	lsls	r3, r3, #24
 8004c9e:	b09d      	sub	sp, #116	@ 0x74
 8004ca0:	4607      	mov	r7, r0
 8004ca2:	460d      	mov	r5, r1
 8004ca4:	4614      	mov	r4, r2
 8004ca6:	d510      	bpl.n	8004cca <_svfiprintf_r+0x36>
 8004ca8:	690b      	ldr	r3, [r1, #16]
 8004caa:	b973      	cbnz	r3, 8004cca <_svfiprintf_r+0x36>
 8004cac:	2140      	movs	r1, #64	@ 0x40
 8004cae:	f7ff ff09 	bl	8004ac4 <_malloc_r>
 8004cb2:	6028      	str	r0, [r5, #0]
 8004cb4:	6128      	str	r0, [r5, #16]
 8004cb6:	b930      	cbnz	r0, 8004cc6 <_svfiprintf_r+0x32>
 8004cb8:	230c      	movs	r3, #12
 8004cba:	603b      	str	r3, [r7, #0]
 8004cbc:	f04f 30ff 	mov.w	r0, #4294967295
 8004cc0:	b01d      	add	sp, #116	@ 0x74
 8004cc2:	e8bd 8ff0 	ldmia.w	sp!, {r4, r5, r6, r7, r8, r9, sl, fp, pc}
 8004cc6:	2340      	movs	r3, #64	@ 0x40
 8004cc8:	616b      	str	r3, [r5, #20]
 8004cca:	2300      	movs	r3, #0
 8004ccc:	9309      	str	r3, [sp, #36]	@ 0x24
 8004cce:	2320      	movs	r3, #32
 8004cd0:	f88d 3029 	strb.w	r3, [sp, #41]	@ 0x29
 8004cd4:	f8cd 800c 	str.w	r8, [sp, #12]
 8004cd8:	2330      	movs	r3, #48	@ 0x30
 8004cda:	f8df 819c 	ldr.w	r8, [pc, #412]	@ 8004e78 <_svfiprintf_r+0x1e4>
 8004cde:	f88d 302a 	strb.w	r3, [sp, #42]	@ 0x2a
 8004ce2:	f04f 0901 	mov.w	r9, #1
 8004ce6:	4623      	mov	r3, r4
 8004ce8:	469a      	mov	sl, r3
 8004cea:	f813 2b01 	ldrb.w	r2, [r3], #1
 8004cee:	b10a      	cbz	r2, 8004cf4 <_svfiprintf_r+0x60>
 8004cf0:	2a25      	cmp	r2, #37	@ 0x25
 8004cf2:	d1f9      	bne.n	8004ce8 <_svfiprintf_r+0x54>
 8004cf4:	ebba 0b04 	subs.w	fp, sl, r4
 8004cf8:	d00b      	beq.n	8004d12 <_svfiprintf_r+0x7e>
 8004cfa:	465b      	mov	r3, fp
 8004cfc:	4622      	mov	r2, r4
 8004cfe:	4629      	mov	r1, r5
 8004d00:	4638      	mov	r0, r7
 8004d02:	f7ff ff6b 	bl	8004bdc <__ssputs_r>
 8004d06:	3001      	adds	r0, #1
 8004d08:	f000 80a7 	beq.w	8004e5a <_svfiprintf_r+0x1c6>
 8004d0c:	9a09      	ldr	r2, [sp, #36]	@ 0x24
 8004d0e:	445a      	add	r2, fp
 8004d10:	9209      	str	r2, [sp, #36]	@ 0x24
 8004d12:	f89a 3000 	ldrb.w	r3, [sl]
 8004d16:	2b00      	cmp	r3, #0
 8004d18:	f000 809f 	beq.w	8004e5a <_svfiprintf_r+0x1c6>
 8004d1c:	2300      	movs	r3, #0
 8004d1e:	f04f 32ff 	mov.w	r2, #4294967295
 8004d22:	e9cd 2305 	strd	r2, r3, [sp, #20]
 8004d26:	f10a 0a01 	add.w	sl, sl, #1
 8004d2a:	9304      	str	r3, [sp, #16]
 8004d2c:	9307      	str	r3, [sp, #28]
 8004d2e:	f88d 3053 	strb.w	r3, [sp, #83]	@ 0x53
 8004d32:	931a      	str	r3, [sp, #104]	@ 0x68
 8004d34:	4654      	mov	r4, sl
 8004d36:	2205      	movs	r2, #5
 8004d38:	f814 1b01 	ldrb.w	r1, [r4], #1
 8004d3c:	484e      	ldr	r0, [pc, #312]	@ (8004e78 <_svfiprintf_r+0x1e4>)
 8004d3e:	f7fb fa4f 	bl	80001e0 <memchr>
 8004d42:	9a04      	ldr	r2, [sp, #16]
 8004d44:	b9d8      	cbnz	r0, 8004d7e <_svfiprintf_r+0xea>
 8004d46:	06d0      	lsls	r0, r2, #27
 8004d48:	bf44      	itt	mi
 8004d4a:	2320      	movmi	r3, #32
 8004d4c:	f88d 3053 	strbmi.w	r3, [sp, #83]	@ 0x53
 8004d50:	0711      	lsls	r1, r2, #28
 8004d52:	bf44      	itt	mi
 8004d54:	232b      	movmi	r3, #43	@ 0x2b
 8004d56:	f88d 3053 	strbmi.w	r3, [sp, #83]	@ 0x53
 8004d5a:	f89a 3000 	ldrb.w	r3, [sl]
 8004d5e:	2b2a      	cmp	r3, #42	@ 0x2a
 8004d60:	d015      	beq.n	8004d8e <_svfiprintf_r+0xfa>
 8004d62:	9a07      	ldr	r2, [sp, #28]
 8004d64:	4654      	mov	r4, sl
 8004d66:	2000      	movs	r0, #0
 8004d68:	f04f 0c0a 	mov.w	ip, #10
 8004d6c:	4621      	mov	r1, r4
 8004d6e:	f811 3b01 	ldrb.w	r3, [r1], #1
 8004d72:	3b30      	subs	r3, #48	@ 0x30
 8004d74:	2b09      	cmp	r3, #9
 8004d76:	d94b      	bls.n	8004e10 <_svfiprintf_r+0x17c>
 8004d78:	b1b0      	cbz	r0, 8004da8 <_svfiprintf_r+0x114>
 8004d7a:	9207      	str	r2, [sp, #28]
 8004d7c:	e014      	b.n	8004da8 <_svfiprintf_r+0x114>
 8004d7e:	eba0 0308 	sub.w	r3, r0, r8
 8004d82:	fa09 f303 	lsl.w	r3, r9, r3
 8004d86:	4313      	orrs	r3, r2
 8004d88:	9304      	str	r3, [sp, #16]
 8004d8a:	46a2      	mov	sl, r4
 8004d8c:	e7d2      	b.n	8004d34 <_svfiprintf_r+0xa0>
 8004d8e:	9b03      	ldr	r3, [sp, #12]
 8004d90:	1d19      	adds	r1, r3, #4
 8004d92:	681b      	ldr	r3, [r3, #0]
 8004d94:	9103      	str	r1, [sp, #12]
 8004d96:	2b00      	cmp	r3, #0
 8004d98:	bfbb      	ittet	lt
 8004d9a:	425b      	neglt	r3, r3
 8004d9c:	f042 0202 	orrlt.w	r2, r2, #2
 8004da0:	9307      	strge	r3, [sp, #28]
 8004da2:	9307      	strlt	r3, [sp, #28]
 8004da4:	bfb8      	it	lt
 8004da6:	9204      	strlt	r2, [sp, #16]
 8004da8:	7823      	ldrb	r3, [r4, #0]
 8004daa:	2b2e      	cmp	r3, #46	@ 0x2e
 8004dac:	d10a      	bne.n	8004dc4 <_svfiprintf_r+0x130>
 8004dae:	7863      	ldrb	r3, [r4, #1]
 8004db0:	2b2a      	cmp	r3, #42	@ 0x2a
 8004db2:	d132      	bne.n	8004e1a <_svfiprintf_r+0x186>
 8004db4:	9b03      	ldr	r3, [sp, #12]
 8004db6:	1d1a      	adds	r2, r3, #4
 8004db8:	681b      	ldr	r3, [r3, #0]
 8004dba:	9203      	str	r2, [sp, #12]
 8004dbc:	ea43 73e3 	orr.w	r3, r3, r3, asr #31
 8004dc0:	3402      	adds	r4, #2
 8004dc2:	9305      	str	r3, [sp, #20]
 8004dc4:	f8df a0c0 	ldr.w	sl, [pc, #192]	@ 8004e88 <_svfiprintf_r+0x1f4>
 8004dc8:	7821      	ldrb	r1, [r4, #0]
 8004dca:	2203      	movs	r2, #3
 8004dcc:	4650      	mov	r0, sl
 8004dce:	f7fb fa07 	bl	80001e0 <memchr>
 8004dd2:	b138      	cbz	r0, 8004de4 <_svfiprintf_r+0x150>
 8004dd4:	9b04      	ldr	r3, [sp, #16]
 8004dd6:	eba0 000a 	sub.w	r0, r0, sl
 8004dda:	2240      	movs	r2, #64	@ 0x40
 8004ddc:	4082      	lsls	r2, r0
 8004dde:	4313      	orrs	r3, r2
 8004de0:	3401      	adds	r4, #1
 8004de2:	9304      	str	r3, [sp, #16]
 8004de4:	f814 1b01 	ldrb.w	r1, [r4], #1
 8004de8:	4824      	ldr	r0, [pc, #144]	@ (8004e7c <_svfiprintf_r+0x1e8>)
 8004dea:	f88d 1028 	strb.w	r1, [sp, #40]	@ 0x28
 8004dee:	2206      	movs	r2, #6
 8004df0:	f7fb f9f6 	bl	80001e0 <memchr>
 8004df4:	2800      	cmp	r0, #0
 8004df6:	d036      	beq.n	8004e66 <_svfiprintf_r+0x1d2>
 8004df8:	4b21      	ldr	r3, [pc, #132]	@ (8004e80 <_svfiprintf_r+0x1ec>)
 8004dfa:	bb1b      	cbnz	r3, 8004e44 <_svfiprintf_r+0x1b0>
 8004dfc:	9b03      	ldr	r3, [sp, #12]
 8004dfe:	3307      	adds	r3, #7
 8004e00:	f023 0307 	bic.w	r3, r3, #7
 8004e04:	3308      	adds	r3, #8
 8004e06:	9303      	str	r3, [sp, #12]
 8004e08:	9b09      	ldr	r3, [sp, #36]	@ 0x24
 8004e0a:	4433      	add	r3, r6
 8004e0c:	9309      	str	r3, [sp, #36]	@ 0x24
 8004e0e:	e76a      	b.n	8004ce6 <_svfiprintf_r+0x52>
 8004e10:	fb0c 3202 	mla	r2, ip, r2, r3
 8004e14:	460c      	mov	r4, r1
 8004e16:	2001      	movs	r0, #1
 8004e18:	e7a8      	b.n	8004d6c <_svfiprintf_r+0xd8>
 8004e1a:	2300      	movs	r3, #0
 8004e1c:	3401      	adds	r4, #1
 8004e1e:	9305      	str	r3, [sp, #20]
 8004e20:	4619      	mov	r1, r3
 8004e22:	f04f 0c0a 	mov.w	ip, #10
 8004e26:	4620      	mov	r0, r4
 8004e28:	f810 2b01 	ldrb.w	r2, [r0], #1
 8004e2c:	3a30      	subs	r2, #48	@ 0x30
 8004e2e:	2a09      	cmp	r2, #9
 8004e30:	d903      	bls.n	8004e3a <_svfiprintf_r+0x1a6>
 8004e32:	2b00      	cmp	r3, #0
 8004e34:	d0c6      	beq.n	8004dc4 <_svfiprintf_r+0x130>
 8004e36:	9105      	str	r1, [sp, #20]
 8004e38:	e7c4      	b.n	8004dc4 <_svfiprintf_r+0x130>
 8004e3a:	fb0c 2101 	mla	r1, ip, r1, r2
 8004e3e:	4604      	mov	r4, r0
 8004e40:	2301      	movs	r3, #1
 8004e42:	e7f0      	b.n	8004e26 <_svfiprintf_r+0x192>
 8004e44:	ab03      	add	r3, sp, #12
 8004e46:	9300      	str	r3, [sp, #0]
 8004e48:	462a      	mov	r2, r5
 8004e4a:	4b0e      	ldr	r3, [pc, #56]	@ (8004e84 <_svfiprintf_r+0x1f0>)
 8004e4c:	a904      	add	r1, sp, #16
 8004e4e:	4638      	mov	r0, r7
 8004e50:	f3af 8000 	nop.w
 8004e54:	1c42      	adds	r2, r0, #1
 8004e56:	4606      	mov	r6, r0
 8004e58:	d1d6      	bne.n	8004e08 <_svfiprintf_r+0x174>
 8004e5a:	89ab      	ldrh	r3, [r5, #12]
 8004e5c:	065b      	lsls	r3, r3, #25
 8004e5e:	f53f af2d 	bmi.w	8004cbc <_svfiprintf_r+0x28>
 8004e62:	9809      	ldr	r0, [sp, #36]	@ 0x24
 8004e64:	e72c      	b.n	8004cc0 <_svfiprintf_r+0x2c>
 8004e66:	ab03      	add	r3, sp, #12
 8004e68:	9300      	str	r3, [sp, #0]
 8004e6a:	462a      	mov	r2, r5
 8004e6c:	4b05      	ldr	r3, [pc, #20]	@ (8004e84 <_svfiprintf_r+0x1f0>)
 8004e6e:	a904      	add	r1, sp, #16
 8004e70:	4638      	mov	r0, r7
 8004e72:	f000 f879 	bl	8004f68 <_printf_i>
 8004e76:	e7ed      	b.n	8004e54 <_svfiprintf_r+0x1c0>
 8004e78:	08005324 	.word	0x08005324
 8004e7c:	0800532e 	.word	0x0800532e
 8004e80:	00000000 	.word	0x00000000
 8004e84:	08004bdd 	.word	0x08004bdd
 8004e88:	0800532a 	.word	0x0800532a

08004e8c <_printf_common>:
 8004e8c:	e92d 47f0 	stmdb	sp!, {r4, r5, r6, r7, r8, r9, sl, lr}
 8004e90:	4616      	mov	r6, r2
 8004e92:	4698      	mov	r8, r3
 8004e94:	688a      	ldr	r2, [r1, #8]
 8004e96:	690b      	ldr	r3, [r1, #16]
 8004e98:	f8dd 9020 	ldr.w	r9, [sp, #32]
 8004e9c:	4293      	cmp	r3, r2
 8004e9e:	bfb8      	it	lt
 8004ea0:	4613      	movlt	r3, r2
 8004ea2:	6033      	str	r3, [r6, #0]
 8004ea4:	f891 2043 	ldrb.w	r2, [r1, #67]	@ 0x43
 8004ea8:	4607      	mov	r7, r0
 8004eaa:	460c      	mov	r4, r1
 8004eac:	b10a      	cbz	r2, 8004eb2 <_printf_common+0x26>
 8004eae:	3301      	adds	r3, #1
 8004eb0:	6033      	str	r3, [r6, #0]
 8004eb2:	6823      	ldr	r3, [r4, #0]
 8004eb4:	0699      	lsls	r1, r3, #26
 8004eb6:	bf42      	ittt	mi
 8004eb8:	6833      	ldrmi	r3, [r6, #0]
 8004eba:	3302      	addmi	r3, #2
 8004ebc:	6033      	strmi	r3, [r6, #0]
 8004ebe:	6825      	ldr	r5, [r4, #0]
 8004ec0:	f015 0506 	ands.w	r5, r5, #6
 8004ec4:	d106      	bne.n	8004ed4 <_printf_common+0x48>
 8004ec6:	f104 0a19 	add.w	sl, r4, #25
 8004eca:	68e3      	ldr	r3, [r4, #12]
 8004ecc:	6832      	ldr	r2, [r6, #0]
 8004ece:	1a9b      	subs	r3, r3, r2
 8004ed0:	42ab      	cmp	r3, r5
 8004ed2:	dc26      	bgt.n	8004f22 <_printf_common+0x96>
 8004ed4:	f894 3043 	ldrb.w	r3, [r4, #67]	@ 0x43
 8004ed8:	6822      	ldr	r2, [r4, #0]
 8004eda:	3b00      	subs	r3, #0
 8004edc:	bf18      	it	ne
 8004ede:	2301      	movne	r3, #1
 8004ee0:	0692      	lsls	r2, r2, #26
 8004ee2:	d42b      	bmi.n	8004f3c <_printf_common+0xb0>
 8004ee4:	f104 0243 	add.w	r2, r4, #67	@ 0x43
 8004ee8:	4641      	mov	r1, r8
 8004eea:	4638      	mov	r0, r7
 8004eec:	47c8      	blx	r9
 8004eee:	3001      	adds	r0, #1
 8004ef0:	d01e      	beq.n	8004f30 <_printf_common+0xa4>
 8004ef2:	6823      	ldr	r3, [r4, #0]
 8004ef4:	6922      	ldr	r2, [r4, #16]
 8004ef6:	f003 0306 	and.w	r3, r3, #6
 8004efa:	2b04      	cmp	r3, #4
 8004efc:	bf02      	ittt	eq
 8004efe:	68e5      	ldreq	r5, [r4, #12]
 8004f00:	6833      	ldreq	r3, [r6, #0]
 8004f02:	1aed      	subeq	r5, r5, r3
 8004f04:	68a3      	ldr	r3, [r4, #8]
 8004f06:	bf0c      	ite	eq
 8004f08:	ea25 75e5 	biceq.w	r5, r5, r5, asr #31
 8004f0c:	2500      	movne	r5, #0
 8004f0e:	4293      	cmp	r3, r2
 8004f10:	bfc4      	itt	gt
 8004f12:	1a9b      	subgt	r3, r3, r2
 8004f14:	18ed      	addgt	r5, r5, r3
 8004f16:	2600      	movs	r6, #0
 8004f18:	341a      	adds	r4, #26
 8004f1a:	42b5      	cmp	r5, r6
 8004f1c:	d11a      	bne.n	8004f54 <_printf_common+0xc8>
 8004f1e:	2000      	movs	r0, #0
 8004f20:	e008      	b.n	8004f34 <_printf_common+0xa8>
 8004f22:	2301      	movs	r3, #1
 8004f24:	4652      	mov	r2, sl
 8004f26:	4641      	mov	r1, r8
 8004f28:	4638      	mov	r0, r7
 8004f2a:	47c8      	blx	r9
 8004f2c:	3001      	adds	r0, #1
 8004f2e:	d103      	bne.n	8004f38 <_printf_common+0xac>
 8004f30:	f04f 30ff 	mov.w	r0, #4294967295
 8004f34:	e8bd 87f0 	ldmia.w	sp!, {r4, r5, r6, r7, r8, r9, sl, pc}
 8004f38:	3501      	adds	r5, #1
 8004f3a:	e7c6      	b.n	8004eca <_printf_common+0x3e>
 8004f3c:	18e1      	adds	r1, r4, r3
 8004f3e:	1c5a      	adds	r2, r3, #1
 8004f40:	2030      	movs	r0, #48	@ 0x30
 8004f42:	f881 0043 	strb.w	r0, [r1, #67]	@ 0x43
 8004f46:	4422      	add	r2, r4
 8004f48:	f894 1045 	ldrb.w	r1, [r4, #69]	@ 0x45
 8004f4c:	f882 1043 	strb.w	r1, [r2, #67]	@ 0x43
 8004f50:	3302      	adds	r3, #2
 8004f52:	e7c7      	b.n	8004ee4 <_printf_common+0x58>
 8004f54:	2301      	movs	r3, #1
 8004f56:	4622      	mov	r2, r4
 8004f58:	4641      	mov	r1, r8
 8004f5a:	4638      	mov	r0, r7
 8004f5c:	47c8      	blx	r9
 8004f5e:	3001      	adds	r0, #1
 8004f60:	d0e6      	beq.n	8004f30 <_printf_common+0xa4>
 8004f62:	3601      	adds	r6, #1
 8004f64:	e7d9      	b.n	8004f1a <_printf_common+0x8e>
	...

08004f68 <_printf_i>:
 8004f68:	e92d 47ff 	stmdb	sp!, {r0, r1, r2, r3, r4, r5, r6, r7, r8, r9, sl, lr}
 8004f6c:	7e0f      	ldrb	r7, [r1, #24]
 8004f6e:	9e0c      	ldr	r6, [sp, #48]	@ 0x30
 8004f70:	2f78      	cmp	r7, #120	@ 0x78
 8004f72:	4691      	mov	r9, r2
 8004f74:	4680      	mov	r8, r0
 8004f76:	460c      	mov	r4, r1
 8004f78:	469a      	mov	sl, r3
 8004f7a:	f101 0243 	add.w	r2, r1, #67	@ 0x43
 8004f7e:	d807      	bhi.n	8004f90 <_printf_i+0x28>
 8004f80:	2f62      	cmp	r7, #98	@ 0x62
 8004f82:	d80a      	bhi.n	8004f9a <_printf_i+0x32>
 8004f84:	2f00      	cmp	r7, #0
 8004f86:	f000 80d1 	beq.w	800512c <_printf_i+0x1c4>
 8004f8a:	2f58      	cmp	r7, #88	@ 0x58
 8004f8c:	f000 80b8 	beq.w	8005100 <_printf_i+0x198>
 8004f90:	f104 0642 	add.w	r6, r4, #66	@ 0x42
 8004f94:	f884 7042 	strb.w	r7, [r4, #66]	@ 0x42
 8004f98:	e03a      	b.n	8005010 <_printf_i+0xa8>
 8004f9a:	f1a7 0363 	sub.w	r3, r7, #99	@ 0x63
 8004f9e:	2b15      	cmp	r3, #21
 8004fa0:	d8f6      	bhi.n	8004f90 <_printf_i+0x28>
 8004fa2:	a101      	add	r1, pc, #4	@ (adr r1, 8004fa8 <_printf_i+0x40>)
 8004fa4:	f851 f023 	ldr.w	pc, [r1, r3, lsl #2]
 8004fa8:	08005001 	.word	0x08005001
 8004fac:	08005015 	.word	0x08005015
 8004fb0:	08004f91 	.word	0x08004f91
 8004fb4:	08004f91 	.word	0x08004f91
 8004fb8:	08004f91 	.word	0x08004f91
 8004fbc:	08004f91 	.word	0x08004f91
 8004fc0:	08005015 	.word	0x08005015
 8004fc4:	08004f91 	.word	0x08004f91
 8004fc8:	08004f91 	.word	0x08004f91
 8004fcc:	08004f91 	.word	0x08004f91
 8004fd0:	08004f91 	.word	0x08004f91
 8004fd4:	08005113 	.word	0x08005113
 8004fd8:	0800503f 	.word	0x0800503f
 8004fdc:	080050cd 	.word	0x080050cd
 8004fe0:	08004f91 	.word	0x08004f91
 8004fe4:	08004f91 	.word	0x08004f91
 8004fe8:	08005135 	.word	0x08005135
 8004fec:	08004f91 	.word	0x08004f91
 8004ff0:	0800503f 	.word	0x0800503f
 8004ff4:	08004f91 	.word	0x08004f91
 8004ff8:	08004f91 	.word	0x08004f91
 8004ffc:	080050d5 	.word	0x080050d5
 8005000:	6833      	ldr	r3, [r6, #0]
 8005002:	1d1a      	adds	r2, r3, #4
 8005004:	681b      	ldr	r3, [r3, #0]
 8005006:	6032      	str	r2, [r6, #0]
 8005008:	f104 0642 	add.w	r6, r4, #66	@ 0x42
 800500c:	f884 3042 	strb.w	r3, [r4, #66]	@ 0x42
 8005010:	2301      	movs	r3, #1
 8005012:	e09c      	b.n	800514e <_printf_i+0x1e6>
 8005014:	6833      	ldr	r3, [r6, #0]
 8005016:	6820      	ldr	r0, [r4, #0]
 8005018:	1d19      	adds	r1, r3, #4
 800501a:	6031      	str	r1, [r6, #0]
 800501c:	0606      	lsls	r6, r0, #24
 800501e:	d501      	bpl.n	8005024 <_printf_i+0xbc>
 8005020:	681d      	ldr	r5, [r3, #0]
 8005022:	e003      	b.n	800502c <_printf_i+0xc4>
 8005024:	0645      	lsls	r5, r0, #25
 8005026:	d5fb      	bpl.n	8005020 <_printf_i+0xb8>
 8005028:	f9b3 5000 	ldrsh.w	r5, [r3]
 800502c:	2d00      	cmp	r5, #0
 800502e:	da03      	bge.n	8005038 <_printf_i+0xd0>
 8005030:	232d      	movs	r3, #45	@ 0x2d
 8005032:	426d      	negs	r5, r5
 8005034:	f884 3043 	strb.w	r3, [r4, #67]	@ 0x43
 8005038:	4858      	ldr	r0, [pc, #352]	@ (800519c <_printf_i+0x234>)
 800503a:	230a      	movs	r3, #10
 800503c:	e011      	b.n	8005062 <_printf_i+0xfa>
 800503e:	6821      	ldr	r1, [r4, #0]
 8005040:	6833      	ldr	r3, [r6, #0]
 8005042:	0608      	lsls	r0, r1, #24
 8005044:	f853 5b04 	ldr.w	r5, [r3], #4
 8005048:	d402      	bmi.n	8005050 <_printf_i+0xe8>
 800504a:	0649      	lsls	r1, r1, #25
 800504c:	bf48      	it	mi
 800504e:	b2ad      	uxthmi	r5, r5
 8005050:	2f6f      	cmp	r7, #111	@ 0x6f
 8005052:	4852      	ldr	r0, [pc, #328]	@ (800519c <_printf_i+0x234>)
 8005054:	6033      	str	r3, [r6, #0]
 8005056:	bf14      	ite	ne
 8005058:	230a      	movne	r3, #10
 800505a:	2308      	moveq	r3, #8
 800505c:	2100      	movs	r1, #0
 800505e:	f884 1043 	strb.w	r1, [r4, #67]	@ 0x43
 8005062:	6866      	ldr	r6, [r4, #4]
 8005064:	60a6      	str	r6, [r4, #8]
 8005066:	2e00      	cmp	r6, #0
 8005068:	db05      	blt.n	8005076 <_printf_i+0x10e>
 800506a:	6821      	ldr	r1, [r4, #0]
 800506c:	432e      	orrs	r6, r5
 800506e:	f021 0104 	bic.w	r1, r1, #4
 8005072:	6021      	str	r1, [r4, #0]
 8005074:	d04b      	beq.n	800510e <_printf_i+0x1a6>
 8005076:	4616      	mov	r6, r2
 8005078:	fbb5 f1f3 	udiv	r1, r5, r3
 800507c:	fb03 5711 	mls	r7, r3, r1, r5
 8005080:	5dc7      	ldrb	r7, [r0, r7]
 8005082:	f806 7d01 	strb.w	r7, [r6, #-1]!
 8005086:	462f      	mov	r7, r5
 8005088:	42bb      	cmp	r3, r7
 800508a:	460d      	mov	r5, r1
 800508c:	d9f4      	bls.n	8005078 <_printf_i+0x110>
 800508e:	2b08      	cmp	r3, #8
 8005090:	d10b      	bne.n	80050aa <_printf_i+0x142>
 8005092:	6823      	ldr	r3, [r4, #0]
 8005094:	07df      	lsls	r7, r3, #31
 8005096:	d508      	bpl.n	80050aa <_printf_i+0x142>
 8005098:	6923      	ldr	r3, [r4, #16]
 800509a:	6861      	ldr	r1, [r4, #4]
 800509c:	4299      	cmp	r1, r3
 800509e:	bfde      	ittt	le
 80050a0:	2330      	movle	r3, #48	@ 0x30
 80050a2:	f806 3c01 	strble.w	r3, [r6, #-1]
 80050a6:	f106 36ff 	addle.w	r6, r6, #4294967295
 80050aa:	1b92      	subs	r2, r2, r6
 80050ac:	6122      	str	r2, [r4, #16]
 80050ae:	f8cd a000 	str.w	sl, [sp]
 80050b2:	464b      	mov	r3, r9
 80050b4:	aa03      	add	r2, sp, #12
 80050b6:	4621      	mov	r1, r4
 80050b8:	4640      	mov	r0, r8
 80050ba:	f7ff fee7 	bl	8004e8c <_printf_common>
 80050be:	3001      	adds	r0, #1
 80050c0:	d14a      	bne.n	8005158 <_printf_i+0x1f0>
 80050c2:	f04f 30ff 	mov.w	r0, #4294967295
 80050c6:	b004      	add	sp, #16
 80050c8:	e8bd 87f0 	ldmia.w	sp!, {r4, r5, r6, r7, r8, r9, sl, pc}
 80050cc:	6823      	ldr	r3, [r4, #0]
 80050ce:	f043 0320 	orr.w	r3, r3, #32
 80050d2:	6023      	str	r3, [r4, #0]
 80050d4:	4832      	ldr	r0, [pc, #200]	@ (80051a0 <_printf_i+0x238>)
 80050d6:	2778      	movs	r7, #120	@ 0x78
 80050d8:	f884 7045 	strb.w	r7, [r4, #69]	@ 0x45
 80050dc:	6823      	ldr	r3, [r4, #0]
 80050de:	6831      	ldr	r1, [r6, #0]
 80050e0:	061f      	lsls	r7, r3, #24
 80050e2:	f851 5b04 	ldr.w	r5, [r1], #4
 80050e6:	d402      	bmi.n	80050ee <_printf_i+0x186>
 80050e8:	065f      	lsls	r7, r3, #25
 80050ea:	bf48      	it	mi
 80050ec:	b2ad      	uxthmi	r5, r5
 80050ee:	6031      	str	r1, [r6, #0]
 80050f0:	07d9      	lsls	r1, r3, #31
 80050f2:	bf44      	itt	mi
 80050f4:	f043 0320 	orrmi.w	r3, r3, #32
 80050f8:	6023      	strmi	r3, [r4, #0]
 80050fa:	b11d      	cbz	r5, 8005104 <_printf_i+0x19c>
 80050fc:	2310      	movs	r3, #16
 80050fe:	e7ad      	b.n	800505c <_printf_i+0xf4>
 8005100:	4826      	ldr	r0, [pc, #152]	@ (800519c <_printf_i+0x234>)
 8005102:	e7e9      	b.n	80050d8 <_printf_i+0x170>
 8005104:	6823      	ldr	r3, [r4, #0]
 8005106:	f023 0320 	bic.w	r3, r3, #32
 800510a:	6023      	str	r3, [r4, #0]
 800510c:	e7f6      	b.n	80050fc <_printf_i+0x194>
 800510e:	4616      	mov	r6, r2
 8005110:	e7bd      	b.n	800508e <_printf_i+0x126>
 8005112:	6833      	ldr	r3, [r6, #0]
 8005114:	6825      	ldr	r5, [r4, #0]
 8005116:	6961      	ldr	r1, [r4, #20]
 8005118:	1d18      	adds	r0, r3, #4
 800511a:	6030      	str	r0, [r6, #0]
 800511c:	062e      	lsls	r6, r5, #24
 800511e:	681b      	ldr	r3, [r3, #0]
 8005120:	d501      	bpl.n	8005126 <_printf_i+0x1be>
 8005122:	6019      	str	r1, [r3, #0]
 8005124:	e002      	b.n	800512c <_printf_i+0x1c4>
 8005126:	0668      	lsls	r0, r5, #25
 8005128:	d5fb      	bpl.n	8005122 <_printf_i+0x1ba>
 800512a:	8019      	strh	r1, [r3, #0]
 800512c:	2300      	movs	r3, #0
 800512e:	6123      	str	r3, [r4, #16]
 8005130:	4616      	mov	r6, r2
 8005132:	e7bc      	b.n	80050ae <_printf_i+0x146>
 8005134:	6833      	ldr	r3, [r6, #0]
 8005136:	1d1a      	adds	r2, r3, #4
 8005138:	6032      	str	r2, [r6, #0]
 800513a:	681e      	ldr	r6, [r3, #0]
 800513c:	6862      	ldr	r2, [r4, #4]
 800513e:	2100      	movs	r1, #0
 8005140:	4630      	mov	r0, r6
 8005142:	f7fb f84d 	bl	80001e0 <memchr>
 8005146:	b108      	cbz	r0, 800514c <_printf_i+0x1e4>
 8005148:	1b80      	subs	r0, r0, r6
 800514a:	6060      	str	r0, [r4, #4]
 800514c:	6863      	ldr	r3, [r4, #4]
 800514e:	6123      	str	r3, [r4, #16]
 8005150:	2300      	movs	r3, #0
 8005152:	f884 3043 	strb.w	r3, [r4, #67]	@ 0x43
 8005156:	e7aa      	b.n	80050ae <_printf_i+0x146>
 8005158:	6923      	ldr	r3, [r4, #16]
 800515a:	4632      	mov	r2, r6
 800515c:	4649      	mov	r1, r9
 800515e:	4640      	mov	r0, r8
 8005160:	47d0      	blx	sl
 8005162:	3001      	adds	r0, #1
 8005164:	d0ad      	beq.n	80050c2 <_printf_i+0x15a>
 8005166:	6823      	ldr	r3, [r4, #0]
 8005168:	079b      	lsls	r3, r3, #30
 800516a:	d413      	bmi.n	8005194 <_printf_i+0x22c>
 800516c:	68e0      	ldr	r0, [r4, #12]
 800516e:	9b03      	ldr	r3, [sp, #12]
 8005170:	4298      	cmp	r0, r3
 8005172:	bfb8      	it	lt
 8005174:	4618      	movlt	r0, r3
 8005176:	e7a6      	b.n	80050c6 <_printf_i+0x15e>
 8005178:	2301      	movs	r3, #1
 800517a:	4632      	mov	r2, r6
 800517c:	4649      	mov	r1, r9
 800517e:	4640      	mov	r0, r8
 8005180:	47d0      	blx	sl
 8005182:	3001      	adds	r0, #1
 8005184:	d09d      	beq.n	80050c2 <_printf_i+0x15a>
 8005186:	3501      	adds	r5, #1
 8005188:	68e3      	ldr	r3, [r4, #12]
 800518a:	9903      	ldr	r1, [sp, #12]
 800518c:	1a5b      	subs	r3, r3, r1
 800518e:	42ab      	cmp	r3, r5
 8005190:	dcf2      	bgt.n	8005178 <_printf_i+0x210>
 8005192:	e7eb      	b.n	800516c <_printf_i+0x204>
 8005194:	2500      	movs	r5, #0
 8005196:	f104 0619 	add.w	r6, r4, #25
 800519a:	e7f5      	b.n	8005188 <_printf_i+0x220>
 800519c:	08005335 	.word	0x08005335
 80051a0:	08005346 	.word	0x08005346

080051a4 <memmove>:
 80051a4:	4288      	cmp	r0, r1
 80051a6:	b510      	push	{r4, lr}
 80051a8:	eb01 0402 	add.w	r4, r1, r2
 80051ac:	d902      	bls.n	80051b4 <memmove+0x10>
 80051ae:	4284      	cmp	r4, r0
 80051b0:	4623      	mov	r3, r4
 80051b2:	d807      	bhi.n	80051c4 <memmove+0x20>
 80051b4:	1e43      	subs	r3, r0, #1
 80051b6:	42a1      	cmp	r1, r4
 80051b8:	d008      	beq.n	80051cc <memmove+0x28>
 80051ba:	f811 2b01 	ldrb.w	r2, [r1], #1
 80051be:	f803 2f01 	strb.w	r2, [r3, #1]!
 80051c2:	e7f8      	b.n	80051b6 <memmove+0x12>
 80051c4:	4402      	add	r2, r0
 80051c6:	4601      	mov	r1, r0
 80051c8:	428a      	cmp	r2, r1
 80051ca:	d100      	bne.n	80051ce <memmove+0x2a>
 80051cc:	bd10      	pop	{r4, pc}
 80051ce:	f813 4d01 	ldrb.w	r4, [r3, #-1]!
 80051d2:	f802 4d01 	strb.w	r4, [r2, #-1]!
 80051d6:	e7f7      	b.n	80051c8 <memmove+0x24>

080051d8 <_sbrk_r>:
 80051d8:	b538      	push	{r3, r4, r5, lr}
 80051da:	4d06      	ldr	r5, [pc, #24]	@ (80051f4 <_sbrk_r+0x1c>)
 80051dc:	2300      	movs	r3, #0
 80051de:	4604      	mov	r4, r0
 80051e0:	4608      	mov	r0, r1
 80051e2:	602b      	str	r3, [r5, #0]
 80051e4:	f7fb fc1c 	bl	8000a20 <_sbrk>
 80051e8:	1c43      	adds	r3, r0, #1
 80051ea:	d102      	bne.n	80051f2 <_sbrk_r+0x1a>
 80051ec:	682b      	ldr	r3, [r5, #0]
 80051ee:	b103      	cbz	r3, 80051f2 <_sbrk_r+0x1a>
 80051f0:	6023      	str	r3, [r4, #0]
 80051f2:	bd38      	pop	{r3, r4, r5, pc}
 80051f4:	200011a8 	.word	0x200011a8

080051f8 <_realloc_r>:
 80051f8:	e92d 41f0 	stmdb	sp!, {r4, r5, r6, r7, r8, lr}
 80051fc:	4607      	mov	r7, r0
 80051fe:	4614      	mov	r4, r2
 8005200:	460d      	mov	r5, r1
 8005202:	b921      	cbnz	r1, 800520e <_realloc_r+0x16>
 8005204:	e8bd 41f0 	ldmia.w	sp!, {r4, r5, r6, r7, r8, lr}
 8005208:	4611      	mov	r1, r2
 800520a:	f7ff bc5b 	b.w	8004ac4 <_malloc_r>
 800520e:	b92a      	cbnz	r2, 800521c <_realloc_r+0x24>
 8005210:	f7ff fbec 	bl	80049ec <_free_r>
 8005214:	4625      	mov	r5, r4
 8005216:	4628      	mov	r0, r5
 8005218:	e8bd 81f0 	ldmia.w	sp!, {r4, r5, r6, r7, r8, pc}
 800521c:	f000 f81a 	bl	8005254 <_malloc_usable_size_r>
 8005220:	4284      	cmp	r4, r0
 8005222:	4606      	mov	r6, r0
 8005224:	d802      	bhi.n	800522c <_realloc_r+0x34>
 8005226:	ebb4 0f50 	cmp.w	r4, r0, lsr #1
 800522a:	d8f4      	bhi.n	8005216 <_realloc_r+0x1e>
 800522c:	4621      	mov	r1, r4
 800522e:	4638      	mov	r0, r7
 8005230:	f7ff fc48 	bl	8004ac4 <_malloc_r>
 8005234:	4680      	mov	r8, r0
 8005236:	b908      	cbnz	r0, 800523c <_realloc_r+0x44>
 8005238:	4645      	mov	r5, r8
 800523a:	e7ec      	b.n	8005216 <_realloc_r+0x1e>
 800523c:	42b4      	cmp	r4, r6
 800523e:	4622      	mov	r2, r4
 8005240:	4629      	mov	r1, r5
 8005242:	bf28      	it	cs
 8005244:	4632      	movcs	r2, r6
 8005246:	f7ff fbc3 	bl	80049d0 <memcpy>
 800524a:	4629      	mov	r1, r5
 800524c:	4638      	mov	r0, r7
 800524e:	f7ff fbcd 	bl	80049ec <_free_r>
 8005252:	e7f1      	b.n	8005238 <_realloc_r+0x40>

08005254 <_malloc_usable_size_r>:
 8005254:	f851 3c04 	ldr.w	r3, [r1, #-4]
 8005258:	1f18      	subs	r0, r3, #4
 800525a:	2b00      	cmp	r3, #0
 800525c:	bfbc      	itt	lt
 800525e:	580b      	ldrlt	r3, [r1, r0]
 8005260:	18c0      	addlt	r0, r0, r3
 8005262:	4770      	bx	lr

08005264 <_init>:
 8005264:	b5f8      	push	{r3, r4, r5, r6, r7, lr}
 8005266:	bf00      	nop
 8005268:	bcf8      	pop	{r3, r4, r5, r6, r7}
 800526a:	bc08      	pop	{r3}
 800526c:	469e      	mov	lr, r3
 800526e:	4770      	bx	lr

08005270 <_fini>:
 8005270:	b5f8      	push	{r3, r4, r5, r6, r7, lr}
 8005272:	bf00      	nop
 8005274:	bcf8      	pop	{r3, r4, r5, r6, r7}
 8005276:	bc08      	pop	{r3}
 8005278:	469e      	mov	lr, r3
 800527a:	4770      	bx	lr
